
Dribbler Motor - HALL sensing with high-speed logging.elf:     file format elf32-littlearm

Sections:
Idx Name          Size      VMA       LMA       File off  Algn
  0 .isr_vector   000000c0  08000000  08000000  00010000  2**0
                  CONTENTS, ALLOC, LOAD, READONLY, DATA
  1 .text         000064cc  080000c0  080000c0  000100c0  2**2
                  CONTENTS, ALLOC, LOAD, READONLY, CODE
  2 .rodata       00000bd0  0800658c  0800658c  0001658c  2**2
                  CONTENTS, ALLOC, LOAD, READONLY, DATA
  3 .ARM.extab    00000000  0800715c  0800715c  000203c4  2**0
                  CONTENTS
  4 .ARM          00000000  0800715c  0800715c  000203c4  2**0
                  CONTENTS
  5 .preinit_array 00000000  0800715c  0800715c  000203c4  2**0
                  CONTENTS, ALLOC, LOAD, DATA
  6 .init_array   00000004  0800715c  0800715c  0001715c  2**2
                  CONTENTS, ALLOC, LOAD, DATA
  7 .fini_array   00000004  08007160  08007160  00017160  2**2
                  CONTENTS, ALLOC, LOAD, DATA
  8 .data         000003c4  20000000  08007164  00020000  2**2
                  CONTENTS, ALLOC, LOAD, DATA
  9 .bss          00000624  200003c4  08007528  000203c4  2**2
                  ALLOC
 10 ._user_heap_stack 00000480  200009e8  08007528  000209e8  2**0
                  ALLOC
 11 .ARM.attributes 00000028  00000000  00000000  000203c4  2**0
                  CONTENTS, READONLY
 12 .comment      00000043  00000000  00000000  000203ec  2**0
                  CONTENTS, READONLY
 13 .debug_line   0003183a  00000000  00000000  0002042f  2**0
                  CONTENTS, READONLY, DEBUGGING, OCTETS
 14 .debug_line_str 00000091  00000000  00000000  00051c69  2**0
                  CONTENTS, READONLY, DEBUGGING, OCTETS
 15 .debug_info   0002eedf  00000000  00000000  00051cfa  2**0
                  CONTENTS, READONLY, DEBUGGING, OCTETS
 16 .debug_abbrev 000067a9  00000000  00000000  00080bd9  2**0
                  CONTENTS, READONLY, DEBUGGING, OCTETS
 17 .debug_aranges 000016e8  00000000  00000000  00087388  2**3
                  CONTENTS, READONLY, DEBUGGING, OCTETS
 18 .debug_str    00084641  00000000  00000000  00088a70  2**0
                  CONTENTS, READONLY, DEBUGGING, OCTETS
 19 .debug_rnglists 00001c04  00000000  00000000  0010d0b1  2**0
                  CONTENTS, READONLY, DEBUGGING, OCTETS
 20 .debug_loclists 0000f93c  00000000  00000000  0010ecb5  2**0
                  CONTENTS, READONLY, DEBUGGING, OCTETS
 21 .debug_macro  00019b69  00000000  00000000  0011e5f1  2**0
                  CONTENTS, READONLY, DEBUGGING, OCTETS
 22 .debug_frame  00003fa0  00000000  00000000  0013815c  2**2
                  CONTENTS, READONLY, DEBUGGING, OCTETS

Disassembly of section .text:

080000c0 <__do_global_dtors_aux>:
 80000c0:	b510      	push	{r4, lr}
 80000c2:	4c06      	ldr	r4, [pc, #24]	; (80000dc <__do_global_dtors_aux+0x1c>)
 80000c4:	7823      	ldrb	r3, [r4, #0]
 80000c6:	2b00      	cmp	r3, #0
 80000c8:	d107      	bne.n	80000da <__do_global_dtors_aux+0x1a>
 80000ca:	4b05      	ldr	r3, [pc, #20]	; (80000e0 <__do_global_dtors_aux+0x20>)
 80000cc:	2b00      	cmp	r3, #0
 80000ce:	d002      	beq.n	80000d6 <__do_global_dtors_aux+0x16>
 80000d0:	4804      	ldr	r0, [pc, #16]	; (80000e4 <__do_global_dtors_aux+0x24>)
 80000d2:	e000      	b.n	80000d6 <__do_global_dtors_aux+0x16>
 80000d4:	bf00      	nop
 80000d6:	2301      	movs	r3, #1
 80000d8:	7023      	strb	r3, [r4, #0]
 80000da:	bd10      	pop	{r4, pc}
 80000dc:	200003c4 	.word	0x200003c4
 80000e0:	00000000 	.word	0x00000000
 80000e4:	08006574 	.word	0x08006574

080000e8 <frame_dummy>:
 80000e8:	4b04      	ldr	r3, [pc, #16]	; (80000fc <frame_dummy+0x14>)
 80000ea:	b510      	push	{r4, lr}
 80000ec:	2b00      	cmp	r3, #0
 80000ee:	d003      	beq.n	80000f8 <frame_dummy+0x10>
 80000f0:	4903      	ldr	r1, [pc, #12]	; (8000100 <frame_dummy+0x18>)
 80000f2:	4804      	ldr	r0, [pc, #16]	; (8000104 <frame_dummy+0x1c>)
 80000f4:	e000      	b.n	80000f8 <frame_dummy+0x10>
 80000f6:	bf00      	nop
 80000f8:	bd10      	pop	{r4, pc}
 80000fa:	46c0      	nop			; (mov r8, r8)
 80000fc:	00000000 	.word	0x00000000
 8000100:	200003c8 	.word	0x200003c8
 8000104:	08006574 	.word	0x08006574

08000108 <__gnu_thumb1_case_sqi>:
 8000108:	b402      	push	{r1}
 800010a:	4671      	mov	r1, lr
 800010c:	0849      	lsrs	r1, r1, #1
 800010e:	0049      	lsls	r1, r1, #1
 8000110:	5609      	ldrsb	r1, [r1, r0]
 8000112:	0049      	lsls	r1, r1, #1
 8000114:	448e      	add	lr, r1
 8000116:	bc02      	pop	{r1}
 8000118:	4770      	bx	lr
 800011a:	46c0      	nop			; (mov r8, r8)

0800011c <__gnu_thumb1_case_uqi>:
 800011c:	b402      	push	{r1}
 800011e:	4671      	mov	r1, lr
 8000120:	0849      	lsrs	r1, r1, #1
 8000122:	0049      	lsls	r1, r1, #1
 8000124:	5c09      	ldrb	r1, [r1, r0]
 8000126:	0049      	lsls	r1, r1, #1
 8000128:	448e      	add	lr, r1
 800012a:	bc02      	pop	{r1}
 800012c:	4770      	bx	lr
 800012e:	46c0      	nop			; (mov r8, r8)

08000130 <__udivsi3>:
 8000130:	2200      	movs	r2, #0
 8000132:	0843      	lsrs	r3, r0, #1
 8000134:	428b      	cmp	r3, r1
 8000136:	d374      	bcc.n	8000222 <__udivsi3+0xf2>
 8000138:	0903      	lsrs	r3, r0, #4
 800013a:	428b      	cmp	r3, r1
 800013c:	d35f      	bcc.n	80001fe <__udivsi3+0xce>
 800013e:	0a03      	lsrs	r3, r0, #8
 8000140:	428b      	cmp	r3, r1
 8000142:	d344      	bcc.n	80001ce <__udivsi3+0x9e>
 8000144:	0b03      	lsrs	r3, r0, #12
 8000146:	428b      	cmp	r3, r1
 8000148:	d328      	bcc.n	800019c <__udivsi3+0x6c>
 800014a:	0c03      	lsrs	r3, r0, #16
 800014c:	428b      	cmp	r3, r1
 800014e:	d30d      	bcc.n	800016c <__udivsi3+0x3c>
 8000150:	22ff      	movs	r2, #255	; 0xff
 8000152:	0209      	lsls	r1, r1, #8
 8000154:	ba12      	rev	r2, r2
 8000156:	0c03      	lsrs	r3, r0, #16
 8000158:	428b      	cmp	r3, r1
 800015a:	d302      	bcc.n	8000162 <__udivsi3+0x32>
 800015c:	1212      	asrs	r2, r2, #8
 800015e:	0209      	lsls	r1, r1, #8
 8000160:	d065      	beq.n	800022e <__udivsi3+0xfe>
 8000162:	0b03      	lsrs	r3, r0, #12
 8000164:	428b      	cmp	r3, r1
 8000166:	d319      	bcc.n	800019c <__udivsi3+0x6c>
 8000168:	e000      	b.n	800016c <__udivsi3+0x3c>
 800016a:	0a09      	lsrs	r1, r1, #8
 800016c:	0bc3      	lsrs	r3, r0, #15
 800016e:	428b      	cmp	r3, r1
 8000170:	d301      	bcc.n	8000176 <__udivsi3+0x46>
 8000172:	03cb      	lsls	r3, r1, #15
 8000174:	1ac0      	subs	r0, r0, r3
 8000176:	4152      	adcs	r2, r2
 8000178:	0b83      	lsrs	r3, r0, #14
 800017a:	428b      	cmp	r3, r1
 800017c:	d301      	bcc.n	8000182 <__udivsi3+0x52>
 800017e:	038b      	lsls	r3, r1, #14
 8000180:	1ac0      	subs	r0, r0, r3
 8000182:	4152      	adcs	r2, r2
 8000184:	0b43      	lsrs	r3, r0, #13
 8000186:	428b      	cmp	r3, r1
 8000188:	d301      	bcc.n	800018e <__udivsi3+0x5e>
 800018a:	034b      	lsls	r3, r1, #13
 800018c:	1ac0      	subs	r0, r0, r3
 800018e:	4152      	adcs	r2, r2
 8000190:	0b03      	lsrs	r3, r0, #12
 8000192:	428b      	cmp	r3, r1
 8000194:	d301      	bcc.n	800019a <__udivsi3+0x6a>
 8000196:	030b      	lsls	r3, r1, #12
 8000198:	1ac0      	subs	r0, r0, r3
 800019a:	4152      	adcs	r2, r2
 800019c:	0ac3      	lsrs	r3, r0, #11
 800019e:	428b      	cmp	r3, r1
 80001a0:	d301      	bcc.n	80001a6 <__udivsi3+0x76>
 80001a2:	02cb      	lsls	r3, r1, #11
 80001a4:	1ac0      	subs	r0, r0, r3
 80001a6:	4152      	adcs	r2, r2
 80001a8:	0a83      	lsrs	r3, r0, #10
 80001aa:	428b      	cmp	r3, r1
 80001ac:	d301      	bcc.n	80001b2 <__udivsi3+0x82>
 80001ae:	028b      	lsls	r3, r1, #10
 80001b0:	1ac0      	subs	r0, r0, r3
 80001b2:	4152      	adcs	r2, r2
 80001b4:	0a43      	lsrs	r3, r0, #9
 80001b6:	428b      	cmp	r3, r1
 80001b8:	d301      	bcc.n	80001be <__udivsi3+0x8e>
 80001ba:	024b      	lsls	r3, r1, #9
 80001bc:	1ac0      	subs	r0, r0, r3
 80001be:	4152      	adcs	r2, r2
 80001c0:	0a03      	lsrs	r3, r0, #8
 80001c2:	428b      	cmp	r3, r1
 80001c4:	d301      	bcc.n	80001ca <__udivsi3+0x9a>
 80001c6:	020b      	lsls	r3, r1, #8
 80001c8:	1ac0      	subs	r0, r0, r3
 80001ca:	4152      	adcs	r2, r2
 80001cc:	d2cd      	bcs.n	800016a <__udivsi3+0x3a>
 80001ce:	09c3      	lsrs	r3, r0, #7
 80001d0:	428b      	cmp	r3, r1
 80001d2:	d301      	bcc.n	80001d8 <__udivsi3+0xa8>
 80001d4:	01cb      	lsls	r3, r1, #7
 80001d6:	1ac0      	subs	r0, r0, r3
 80001d8:	4152      	adcs	r2, r2
 80001da:	0983      	lsrs	r3, r0, #6
 80001dc:	428b      	cmp	r3, r1
 80001de:	d301      	bcc.n	80001e4 <__udivsi3+0xb4>
 80001e0:	018b      	lsls	r3, r1, #6
 80001e2:	1ac0      	subs	r0, r0, r3
 80001e4:	4152      	adcs	r2, r2
 80001e6:	0943      	lsrs	r3, r0, #5
 80001e8:	428b      	cmp	r3, r1
 80001ea:	d301      	bcc.n	80001f0 <__udivsi3+0xc0>
 80001ec:	014b      	lsls	r3, r1, #5
 80001ee:	1ac0      	subs	r0, r0, r3
 80001f0:	4152      	adcs	r2, r2
 80001f2:	0903      	lsrs	r3, r0, #4
 80001f4:	428b      	cmp	r3, r1
 80001f6:	d301      	bcc.n	80001fc <__udivsi3+0xcc>
 80001f8:	010b      	lsls	r3, r1, #4
 80001fa:	1ac0      	subs	r0, r0, r3
 80001fc:	4152      	adcs	r2, r2
 80001fe:	08c3      	lsrs	r3, r0, #3
 8000200:	428b      	cmp	r3, r1
 8000202:	d301      	bcc.n	8000208 <__udivsi3+0xd8>
 8000204:	00cb      	lsls	r3, r1, #3
 8000206:	1ac0      	subs	r0, r0, r3
 8000208:	4152      	adcs	r2, r2
 800020a:	0883      	lsrs	r3, r0, #2
 800020c:	428b      	cmp	r3, r1
 800020e:	d301      	bcc.n	8000214 <__udivsi3+0xe4>
 8000210:	008b      	lsls	r3, r1, #2
 8000212:	1ac0      	subs	r0, r0, r3
 8000214:	4152      	adcs	r2, r2
 8000216:	0843      	lsrs	r3, r0, #1
 8000218:	428b      	cmp	r3, r1
 800021a:	d301      	bcc.n	8000220 <__udivsi3+0xf0>
 800021c:	004b      	lsls	r3, r1, #1
 800021e:	1ac0      	subs	r0, r0, r3
 8000220:	4152      	adcs	r2, r2
 8000222:	1a41      	subs	r1, r0, r1
 8000224:	d200      	bcs.n	8000228 <__udivsi3+0xf8>
 8000226:	4601      	mov	r1, r0
 8000228:	4152      	adcs	r2, r2
 800022a:	4610      	mov	r0, r2
 800022c:	4770      	bx	lr
 800022e:	e7ff      	b.n	8000230 <__udivsi3+0x100>
 8000230:	b501      	push	{r0, lr}
 8000232:	2000      	movs	r0, #0
 8000234:	f000 f8f0 	bl	8000418 <__aeabi_idiv0>
 8000238:	bd02      	pop	{r1, pc}
 800023a:	46c0      	nop			; (mov r8, r8)

0800023c <__aeabi_uidivmod>:
 800023c:	2900      	cmp	r1, #0
 800023e:	d0f7      	beq.n	8000230 <__udivsi3+0x100>
 8000240:	e776      	b.n	8000130 <__udivsi3>
 8000242:	4770      	bx	lr

08000244 <__divsi3>:
 8000244:	4603      	mov	r3, r0
 8000246:	430b      	orrs	r3, r1
 8000248:	d47f      	bmi.n	800034a <__divsi3+0x106>
 800024a:	2200      	movs	r2, #0
 800024c:	0843      	lsrs	r3, r0, #1
 800024e:	428b      	cmp	r3, r1
 8000250:	d374      	bcc.n	800033c <__divsi3+0xf8>
 8000252:	0903      	lsrs	r3, r0, #4
 8000254:	428b      	cmp	r3, r1
 8000256:	d35f      	bcc.n	8000318 <__divsi3+0xd4>
 8000258:	0a03      	lsrs	r3, r0, #8
 800025a:	428b      	cmp	r3, r1
 800025c:	d344      	bcc.n	80002e8 <__divsi3+0xa4>
 800025e:	0b03      	lsrs	r3, r0, #12
 8000260:	428b      	cmp	r3, r1
 8000262:	d328      	bcc.n	80002b6 <__divsi3+0x72>
 8000264:	0c03      	lsrs	r3, r0, #16
 8000266:	428b      	cmp	r3, r1
 8000268:	d30d      	bcc.n	8000286 <__divsi3+0x42>
 800026a:	22ff      	movs	r2, #255	; 0xff
 800026c:	0209      	lsls	r1, r1, #8
 800026e:	ba12      	rev	r2, r2
 8000270:	0c03      	lsrs	r3, r0, #16
 8000272:	428b      	cmp	r3, r1
 8000274:	d302      	bcc.n	800027c <__divsi3+0x38>
 8000276:	1212      	asrs	r2, r2, #8
 8000278:	0209      	lsls	r1, r1, #8
 800027a:	d065      	beq.n	8000348 <__divsi3+0x104>
 800027c:	0b03      	lsrs	r3, r0, #12
 800027e:	428b      	cmp	r3, r1
 8000280:	d319      	bcc.n	80002b6 <__divsi3+0x72>
 8000282:	e000      	b.n	8000286 <__divsi3+0x42>
 8000284:	0a09      	lsrs	r1, r1, #8
 8000286:	0bc3      	lsrs	r3, r0, #15
 8000288:	428b      	cmp	r3, r1
 800028a:	d301      	bcc.n	8000290 <__divsi3+0x4c>
 800028c:	03cb      	lsls	r3, r1, #15
 800028e:	1ac0      	subs	r0, r0, r3
 8000290:	4152      	adcs	r2, r2
 8000292:	0b83      	lsrs	r3, r0, #14
 8000294:	428b      	cmp	r3, r1
 8000296:	d301      	bcc.n	800029c <__divsi3+0x58>
 8000298:	038b      	lsls	r3, r1, #14
 800029a:	1ac0      	subs	r0, r0, r3
 800029c:	4152      	adcs	r2, r2
 800029e:	0b43      	lsrs	r3, r0, #13
 80002a0:	428b      	cmp	r3, r1
 80002a2:	d301      	bcc.n	80002a8 <__divsi3+0x64>
 80002a4:	034b      	lsls	r3, r1, #13
 80002a6:	1ac0      	subs	r0, r0, r3
 80002a8:	4152      	adcs	r2, r2
 80002aa:	0b03      	lsrs	r3, r0, #12
 80002ac:	428b      	cmp	r3, r1
 80002ae:	d301      	bcc.n	80002b4 <__divsi3+0x70>
 80002b0:	030b      	lsls	r3, r1, #12
 80002b2:	1ac0      	subs	r0, r0, r3
 80002b4:	4152      	adcs	r2, r2
 80002b6:	0ac3      	lsrs	r3, r0, #11
 80002b8:	428b      	cmp	r3, r1
 80002ba:	d301      	bcc.n	80002c0 <__divsi3+0x7c>
 80002bc:	02cb      	lsls	r3, r1, #11
 80002be:	1ac0      	subs	r0, r0, r3
 80002c0:	4152      	adcs	r2, r2
 80002c2:	0a83      	lsrs	r3, r0, #10
 80002c4:	428b      	cmp	r3, r1
 80002c6:	d301      	bcc.n	80002cc <__divsi3+0x88>
 80002c8:	028b      	lsls	r3, r1, #10
 80002ca:	1ac0      	subs	r0, r0, r3
 80002cc:	4152      	adcs	r2, r2
 80002ce:	0a43      	lsrs	r3, r0, #9
 80002d0:	428b      	cmp	r3, r1
 80002d2:	d301      	bcc.n	80002d8 <__divsi3+0x94>
 80002d4:	024b      	lsls	r3, r1, #9
 80002d6:	1ac0      	subs	r0, r0, r3
 80002d8:	4152      	adcs	r2, r2
 80002da:	0a03      	lsrs	r3, r0, #8
 80002dc:	428b      	cmp	r3, r1
 80002de:	d301      	bcc.n	80002e4 <__divsi3+0xa0>
 80002e0:	020b      	lsls	r3, r1, #8
 80002e2:	1ac0      	subs	r0, r0, r3
 80002e4:	4152      	adcs	r2, r2
 80002e6:	d2cd      	bcs.n	8000284 <__divsi3+0x40>
 80002e8:	09c3      	lsrs	r3, r0, #7
 80002ea:	428b      	cmp	r3, r1
 80002ec:	d301      	bcc.n	80002f2 <__divsi3+0xae>
 80002ee:	01cb      	lsls	r3, r1, #7
 80002f0:	1ac0      	subs	r0, r0, r3
 80002f2:	4152      	adcs	r2, r2
 80002f4:	0983      	lsrs	r3, r0, #6
 80002f6:	428b      	cmp	r3, r1
 80002f8:	d301      	bcc.n	80002fe <__divsi3+0xba>
 80002fa:	018b      	lsls	r3, r1, #6
 80002fc:	1ac0      	subs	r0, r0, r3
 80002fe:	4152      	adcs	r2, r2
 8000300:	0943      	lsrs	r3, r0, #5
 8000302:	428b      	cmp	r3, r1
 8000304:	d301      	bcc.n	800030a <__divsi3+0xc6>
 8000306:	014b      	lsls	r3, r1, #5
 8000308:	1ac0      	subs	r0, r0, r3
 800030a:	4152      	adcs	r2, r2
 800030c:	0903      	lsrs	r3, r0, #4
 800030e:	428b      	cmp	r3, r1
 8000310:	d301      	bcc.n	8000316 <__divsi3+0xd2>
 8000312:	010b      	lsls	r3, r1, #4
 8000314:	1ac0      	subs	r0, r0, r3
 8000316:	4152      	adcs	r2, r2
 8000318:	08c3      	lsrs	r3, r0, #3
 800031a:	428b      	cmp	r3, r1
 800031c:	d301      	bcc.n	8000322 <__divsi3+0xde>
 800031e:	00cb      	lsls	r3, r1, #3
 8000320:	1ac0      	subs	r0, r0, r3
 8000322:	4152      	adcs	r2, r2
 8000324:	0883      	lsrs	r3, r0, #2
 8000326:	428b      	cmp	r3, r1
 8000328:	d301      	bcc.n	800032e <__divsi3+0xea>
 800032a:	008b      	lsls	r3, r1, #2
 800032c:	1ac0      	subs	r0, r0, r3
 800032e:	4152      	adcs	r2, r2
 8000330:	0843      	lsrs	r3, r0, #1
 8000332:	428b      	cmp	r3, r1
 8000334:	d301      	bcc.n	800033a <__divsi3+0xf6>
 8000336:	004b      	lsls	r3, r1, #1
 8000338:	1ac0      	subs	r0, r0, r3
 800033a:	4152      	adcs	r2, r2
 800033c:	1a41      	subs	r1, r0, r1
 800033e:	d200      	bcs.n	8000342 <__divsi3+0xfe>
 8000340:	4601      	mov	r1, r0
 8000342:	4152      	adcs	r2, r2
 8000344:	4610      	mov	r0, r2
 8000346:	4770      	bx	lr
 8000348:	e05d      	b.n	8000406 <__divsi3+0x1c2>
 800034a:	0fca      	lsrs	r2, r1, #31
 800034c:	d000      	beq.n	8000350 <__divsi3+0x10c>
 800034e:	4249      	negs	r1, r1
 8000350:	1003      	asrs	r3, r0, #32
 8000352:	d300      	bcc.n	8000356 <__divsi3+0x112>
 8000354:	4240      	negs	r0, r0
 8000356:	4053      	eors	r3, r2
 8000358:	2200      	movs	r2, #0
 800035a:	469c      	mov	ip, r3
 800035c:	0903      	lsrs	r3, r0, #4
 800035e:	428b      	cmp	r3, r1
 8000360:	d32d      	bcc.n	80003be <__divsi3+0x17a>
 8000362:	0a03      	lsrs	r3, r0, #8
 8000364:	428b      	cmp	r3, r1
 8000366:	d312      	bcc.n	800038e <__divsi3+0x14a>
 8000368:	22fc      	movs	r2, #252	; 0xfc
 800036a:	0189      	lsls	r1, r1, #6
 800036c:	ba12      	rev	r2, r2
 800036e:	0a03      	lsrs	r3, r0, #8
 8000370:	428b      	cmp	r3, r1
 8000372:	d30c      	bcc.n	800038e <__divsi3+0x14a>
 8000374:	0189      	lsls	r1, r1, #6
 8000376:	1192      	asrs	r2, r2, #6
 8000378:	428b      	cmp	r3, r1
 800037a:	d308      	bcc.n	800038e <__divsi3+0x14a>
 800037c:	0189      	lsls	r1, r1, #6
 800037e:	1192      	asrs	r2, r2, #6
 8000380:	428b      	cmp	r3, r1
 8000382:	d304      	bcc.n	800038e <__divsi3+0x14a>
 8000384:	0189      	lsls	r1, r1, #6
 8000386:	d03a      	beq.n	80003fe <__divsi3+0x1ba>
 8000388:	1192      	asrs	r2, r2, #6
 800038a:	e000      	b.n	800038e <__divsi3+0x14a>
 800038c:	0989      	lsrs	r1, r1, #6
 800038e:	09c3      	lsrs	r3, r0, #7
 8000390:	428b      	cmp	r3, r1
 8000392:	d301      	bcc.n	8000398 <__divsi3+0x154>
 8000394:	01cb      	lsls	r3, r1, #7
 8000396:	1ac0      	subs	r0, r0, r3
 8000398:	4152      	adcs	r2, r2
 800039a:	0983      	lsrs	r3, r0, #6
 800039c:	428b      	cmp	r3, r1
 800039e:	d301      	bcc.n	80003a4 <__divsi3+0x160>
 80003a0:	018b      	lsls	r3, r1, #6
 80003a2:	1ac0      	subs	r0, r0, r3
 80003a4:	4152      	adcs	r2, r2
 80003a6:	0943      	lsrs	r3, r0, #5
 80003a8:	428b      	cmp	r3, r1
 80003aa:	d301      	bcc.n	80003b0 <__divsi3+0x16c>
 80003ac:	014b      	lsls	r3, r1, #5
 80003ae:	1ac0      	subs	r0, r0, r3
 80003b0:	4152      	adcs	r2, r2
 80003b2:	0903      	lsrs	r3, r0, #4
 80003b4:	428b      	cmp	r3, r1
 80003b6:	d301      	bcc.n	80003bc <__divsi3+0x178>
 80003b8:	010b      	lsls	r3, r1, #4
 80003ba:	1ac0      	subs	r0, r0, r3
 80003bc:	4152      	adcs	r2, r2
 80003be:	08c3      	lsrs	r3, r0, #3
 80003c0:	428b      	cmp	r3, r1
 80003c2:	d301      	bcc.n	80003c8 <__divsi3+0x184>
 80003c4:	00cb      	lsls	r3, r1, #3
 80003c6:	1ac0      	subs	r0, r0, r3
 80003c8:	4152      	adcs	r2, r2
 80003ca:	0883      	lsrs	r3, r0, #2
 80003cc:	428b      	cmp	r3, r1
 80003ce:	d301      	bcc.n	80003d4 <__divsi3+0x190>
 80003d0:	008b      	lsls	r3, r1, #2
 80003d2:	1ac0      	subs	r0, r0, r3
 80003d4:	4152      	adcs	r2, r2
 80003d6:	d2d9      	bcs.n	800038c <__divsi3+0x148>
 80003d8:	0843      	lsrs	r3, r0, #1
 80003da:	428b      	cmp	r3, r1
 80003dc:	d301      	bcc.n	80003e2 <__divsi3+0x19e>
 80003de:	004b      	lsls	r3, r1, #1
 80003e0:	1ac0      	subs	r0, r0, r3
 80003e2:	4152      	adcs	r2, r2
 80003e4:	1a41      	subs	r1, r0, r1
 80003e6:	d200      	bcs.n	80003ea <__divsi3+0x1a6>
 80003e8:	4601      	mov	r1, r0
 80003ea:	4663      	mov	r3, ip
 80003ec:	4152      	adcs	r2, r2
 80003ee:	105b      	asrs	r3, r3, #1
 80003f0:	4610      	mov	r0, r2
 80003f2:	d301      	bcc.n	80003f8 <__divsi3+0x1b4>
 80003f4:	4240      	negs	r0, r0
 80003f6:	2b00      	cmp	r3, #0
 80003f8:	d500      	bpl.n	80003fc <__divsi3+0x1b8>
 80003fa:	4249      	negs	r1, r1
 80003fc:	4770      	bx	lr
 80003fe:	4663      	mov	r3, ip
 8000400:	105b      	asrs	r3, r3, #1
 8000402:	d300      	bcc.n	8000406 <__divsi3+0x1c2>
 8000404:	4240      	negs	r0, r0
 8000406:	b501      	push	{r0, lr}
 8000408:	2000      	movs	r0, #0
 800040a:	f000 f805 	bl	8000418 <__aeabi_idiv0>
 800040e:	bd02      	pop	{r1, pc}

08000410 <__aeabi_idivmod>:
 8000410:	2900      	cmp	r1, #0
 8000412:	d0f8      	beq.n	8000406 <__divsi3+0x1c2>
 8000414:	e716      	b.n	8000244 <__divsi3>
 8000416:	4770      	bx	lr

08000418 <__aeabi_idiv0>:
 8000418:	4770      	bx	lr
 800041a:	46c0      	nop			; (mov r8, r8)

0800041c <__aeabi_fmul>:
 800041c:	0243      	lsls	r3, r0, #9
 800041e:	0a5b      	lsrs	r3, r3, #9
 8000420:	b5f0      	push	{r4, r5, r6, r7, lr}
 8000422:	464f      	mov	r7, r9
 8000424:	4646      	mov	r6, r8
 8000426:	4699      	mov	r9, r3
 8000428:	46d6      	mov	lr, sl
 800042a:	0fc3      	lsrs	r3, r0, #31
 800042c:	0045      	lsls	r5, r0, #1
 800042e:	4698      	mov	r8, r3
 8000430:	b5c0      	push	{r6, r7, lr}
 8000432:	464b      	mov	r3, r9
 8000434:	1c0f      	adds	r7, r1, #0
 8000436:	0e2d      	lsrs	r5, r5, #24
 8000438:	d100      	bne.n	800043c <__aeabi_fmul+0x20>
 800043a:	e0cb      	b.n	80005d4 <__aeabi_fmul+0x1b8>
 800043c:	2dff      	cmp	r5, #255	; 0xff
 800043e:	d100      	bne.n	8000442 <__aeabi_fmul+0x26>
 8000440:	e0cf      	b.n	80005e2 <__aeabi_fmul+0x1c6>
 8000442:	2280      	movs	r2, #128	; 0x80
 8000444:	00db      	lsls	r3, r3, #3
 8000446:	04d2      	lsls	r2, r2, #19
 8000448:	431a      	orrs	r2, r3
 800044a:	2300      	movs	r3, #0
 800044c:	4691      	mov	r9, r2
 800044e:	2600      	movs	r6, #0
 8000450:	469a      	mov	sl, r3
 8000452:	3d7f      	subs	r5, #127	; 0x7f
 8000454:	027c      	lsls	r4, r7, #9
 8000456:	007b      	lsls	r3, r7, #1
 8000458:	0a64      	lsrs	r4, r4, #9
 800045a:	0e1b      	lsrs	r3, r3, #24
 800045c:	0fff      	lsrs	r7, r7, #31
 800045e:	2b00      	cmp	r3, #0
 8000460:	d100      	bne.n	8000464 <__aeabi_fmul+0x48>
 8000462:	e0a9      	b.n	80005b8 <__aeabi_fmul+0x19c>
 8000464:	2bff      	cmp	r3, #255	; 0xff
 8000466:	d011      	beq.n	800048c <__aeabi_fmul+0x70>
 8000468:	2280      	movs	r2, #128	; 0x80
 800046a:	00e4      	lsls	r4, r4, #3
 800046c:	04d2      	lsls	r2, r2, #19
 800046e:	4314      	orrs	r4, r2
 8000470:	4642      	mov	r2, r8
 8000472:	3b7f      	subs	r3, #127	; 0x7f
 8000474:	195b      	adds	r3, r3, r5
 8000476:	407a      	eors	r2, r7
 8000478:	2000      	movs	r0, #0
 800047a:	b2d2      	uxtb	r2, r2
 800047c:	1c5d      	adds	r5, r3, #1
 800047e:	2e0a      	cmp	r6, #10
 8000480:	dd13      	ble.n	80004aa <__aeabi_fmul+0x8e>
 8000482:	003a      	movs	r2, r7
 8000484:	2e0b      	cmp	r6, #11
 8000486:	d047      	beq.n	8000518 <__aeabi_fmul+0xfc>
 8000488:	4647      	mov	r7, r8
 800048a:	e03f      	b.n	800050c <__aeabi_fmul+0xf0>
 800048c:	002b      	movs	r3, r5
 800048e:	33ff      	adds	r3, #255	; 0xff
 8000490:	2c00      	cmp	r4, #0
 8000492:	d11e      	bne.n	80004d2 <__aeabi_fmul+0xb6>
 8000494:	2202      	movs	r2, #2
 8000496:	4316      	orrs	r6, r2
 8000498:	4642      	mov	r2, r8
 800049a:	3501      	adds	r5, #1
 800049c:	407a      	eors	r2, r7
 800049e:	b2d2      	uxtb	r2, r2
 80004a0:	35ff      	adds	r5, #255	; 0xff
 80004a2:	2e0a      	cmp	r6, #10
 80004a4:	dd00      	ble.n	80004a8 <__aeabi_fmul+0x8c>
 80004a6:	e0e4      	b.n	8000672 <__aeabi_fmul+0x256>
 80004a8:	2002      	movs	r0, #2
 80004aa:	2e02      	cmp	r6, #2
 80004ac:	dc1c      	bgt.n	80004e8 <__aeabi_fmul+0xcc>
 80004ae:	3e01      	subs	r6, #1
 80004b0:	2e01      	cmp	r6, #1
 80004b2:	d842      	bhi.n	800053a <__aeabi_fmul+0x11e>
 80004b4:	2802      	cmp	r0, #2
 80004b6:	d03d      	beq.n	8000534 <__aeabi_fmul+0x118>
 80004b8:	2801      	cmp	r0, #1
 80004ba:	d166      	bne.n	800058a <__aeabi_fmul+0x16e>
 80004bc:	2000      	movs	r0, #0
 80004be:	2100      	movs	r1, #0
 80004c0:	05c0      	lsls	r0, r0, #23
 80004c2:	4308      	orrs	r0, r1
 80004c4:	07d2      	lsls	r2, r2, #31
 80004c6:	4310      	orrs	r0, r2
 80004c8:	bce0      	pop	{r5, r6, r7}
 80004ca:	46ba      	mov	sl, r7
 80004cc:	46b1      	mov	r9, r6
 80004ce:	46a8      	mov	r8, r5
 80004d0:	bdf0      	pop	{r4, r5, r6, r7, pc}
 80004d2:	2203      	movs	r2, #3
 80004d4:	4316      	orrs	r6, r2
 80004d6:	4642      	mov	r2, r8
 80004d8:	3501      	adds	r5, #1
 80004da:	407a      	eors	r2, r7
 80004dc:	b2d2      	uxtb	r2, r2
 80004de:	35ff      	adds	r5, #255	; 0xff
 80004e0:	2e0a      	cmp	r6, #10
 80004e2:	dd00      	ble.n	80004e6 <__aeabi_fmul+0xca>
 80004e4:	e0e4      	b.n	80006b0 <__aeabi_fmul+0x294>
 80004e6:	2003      	movs	r0, #3
 80004e8:	2101      	movs	r1, #1
 80004ea:	40b1      	lsls	r1, r6
 80004ec:	26a6      	movs	r6, #166	; 0xa6
 80004ee:	00f6      	lsls	r6, r6, #3
 80004f0:	4231      	tst	r1, r6
 80004f2:	d10a      	bne.n	800050a <__aeabi_fmul+0xee>
 80004f4:	2690      	movs	r6, #144	; 0x90
 80004f6:	00b6      	lsls	r6, r6, #2
 80004f8:	4231      	tst	r1, r6
 80004fa:	d116      	bne.n	800052a <__aeabi_fmul+0x10e>
 80004fc:	3eb9      	subs	r6, #185	; 0xb9
 80004fe:	3eff      	subs	r6, #255	; 0xff
 8000500:	420e      	tst	r6, r1
 8000502:	d01a      	beq.n	800053a <__aeabi_fmul+0x11e>
 8000504:	46a1      	mov	r9, r4
 8000506:	4682      	mov	sl, r0
 8000508:	e000      	b.n	800050c <__aeabi_fmul+0xf0>
 800050a:	0017      	movs	r7, r2
 800050c:	4653      	mov	r3, sl
 800050e:	003a      	movs	r2, r7
 8000510:	2b02      	cmp	r3, #2
 8000512:	d00f      	beq.n	8000534 <__aeabi_fmul+0x118>
 8000514:	464c      	mov	r4, r9
 8000516:	4650      	mov	r0, sl
 8000518:	2803      	cmp	r0, #3
 800051a:	d1cd      	bne.n	80004b8 <__aeabi_fmul+0x9c>
 800051c:	2180      	movs	r1, #128	; 0x80
 800051e:	03c9      	lsls	r1, r1, #15
 8000520:	4321      	orrs	r1, r4
 8000522:	0249      	lsls	r1, r1, #9
 8000524:	20ff      	movs	r0, #255	; 0xff
 8000526:	0a49      	lsrs	r1, r1, #9
 8000528:	e7ca      	b.n	80004c0 <__aeabi_fmul+0xa4>
 800052a:	2180      	movs	r1, #128	; 0x80
 800052c:	2200      	movs	r2, #0
 800052e:	20ff      	movs	r0, #255	; 0xff
 8000530:	03c9      	lsls	r1, r1, #15
 8000532:	e7c5      	b.n	80004c0 <__aeabi_fmul+0xa4>
 8000534:	20ff      	movs	r0, #255	; 0xff
 8000536:	2100      	movs	r1, #0
 8000538:	e7c2      	b.n	80004c0 <__aeabi_fmul+0xa4>
 800053a:	0c20      	lsrs	r0, r4, #16
 800053c:	4649      	mov	r1, r9
 800053e:	0424      	lsls	r4, r4, #16
 8000540:	0c24      	lsrs	r4, r4, #16
 8000542:	0027      	movs	r7, r4
 8000544:	0c0e      	lsrs	r6, r1, #16
 8000546:	0409      	lsls	r1, r1, #16
 8000548:	0c09      	lsrs	r1, r1, #16
 800054a:	4374      	muls	r4, r6
 800054c:	434f      	muls	r7, r1
 800054e:	4346      	muls	r6, r0
 8000550:	4348      	muls	r0, r1
 8000552:	0c39      	lsrs	r1, r7, #16
 8000554:	1900      	adds	r0, r0, r4
 8000556:	1809      	adds	r1, r1, r0
 8000558:	428c      	cmp	r4, r1
 800055a:	d903      	bls.n	8000564 <__aeabi_fmul+0x148>
 800055c:	2080      	movs	r0, #128	; 0x80
 800055e:	0240      	lsls	r0, r0, #9
 8000560:	4684      	mov	ip, r0
 8000562:	4466      	add	r6, ip
 8000564:	043f      	lsls	r7, r7, #16
 8000566:	0408      	lsls	r0, r1, #16
 8000568:	0c3f      	lsrs	r7, r7, #16
 800056a:	19c0      	adds	r0, r0, r7
 800056c:	0184      	lsls	r4, r0, #6
 800056e:	1e67      	subs	r7, r4, #1
 8000570:	41bc      	sbcs	r4, r7
 8000572:	0c09      	lsrs	r1, r1, #16
 8000574:	0e80      	lsrs	r0, r0, #26
 8000576:	1989      	adds	r1, r1, r6
 8000578:	4304      	orrs	r4, r0
 800057a:	0189      	lsls	r1, r1, #6
 800057c:	430c      	orrs	r4, r1
 800057e:	0109      	lsls	r1, r1, #4
 8000580:	d571      	bpl.n	8000666 <__aeabi_fmul+0x24a>
 8000582:	2301      	movs	r3, #1
 8000584:	0861      	lsrs	r1, r4, #1
 8000586:	401c      	ands	r4, r3
 8000588:	430c      	orrs	r4, r1
 800058a:	002b      	movs	r3, r5
 800058c:	337f      	adds	r3, #127	; 0x7f
 800058e:	2b00      	cmp	r3, #0
 8000590:	dd51      	ble.n	8000636 <__aeabi_fmul+0x21a>
 8000592:	0761      	lsls	r1, r4, #29
 8000594:	d004      	beq.n	80005a0 <__aeabi_fmul+0x184>
 8000596:	210f      	movs	r1, #15
 8000598:	4021      	ands	r1, r4
 800059a:	2904      	cmp	r1, #4
 800059c:	d000      	beq.n	80005a0 <__aeabi_fmul+0x184>
 800059e:	3404      	adds	r4, #4
 80005a0:	0121      	lsls	r1, r4, #4
 80005a2:	d503      	bpl.n	80005ac <__aeabi_fmul+0x190>
 80005a4:	4b43      	ldr	r3, [pc, #268]	; (80006b4 <__aeabi_fmul+0x298>)
 80005a6:	401c      	ands	r4, r3
 80005a8:	002b      	movs	r3, r5
 80005aa:	3380      	adds	r3, #128	; 0x80
 80005ac:	2bfe      	cmp	r3, #254	; 0xfe
 80005ae:	dcc1      	bgt.n	8000534 <__aeabi_fmul+0x118>
 80005b0:	01a1      	lsls	r1, r4, #6
 80005b2:	0a49      	lsrs	r1, r1, #9
 80005b4:	b2d8      	uxtb	r0, r3
 80005b6:	e783      	b.n	80004c0 <__aeabi_fmul+0xa4>
 80005b8:	2c00      	cmp	r4, #0
 80005ba:	d12c      	bne.n	8000616 <__aeabi_fmul+0x1fa>
 80005bc:	2301      	movs	r3, #1
 80005be:	4642      	mov	r2, r8
 80005c0:	431e      	orrs	r6, r3
 80005c2:	002b      	movs	r3, r5
 80005c4:	407a      	eors	r2, r7
 80005c6:	2001      	movs	r0, #1
 80005c8:	b2d2      	uxtb	r2, r2
 80005ca:	1c5d      	adds	r5, r3, #1
 80005cc:	2e0a      	cmp	r6, #10
 80005ce:	dd00      	ble.n	80005d2 <__aeabi_fmul+0x1b6>
 80005d0:	e757      	b.n	8000482 <__aeabi_fmul+0x66>
 80005d2:	e76a      	b.n	80004aa <__aeabi_fmul+0x8e>
 80005d4:	2b00      	cmp	r3, #0
 80005d6:	d110      	bne.n	80005fa <__aeabi_fmul+0x1de>
 80005d8:	2301      	movs	r3, #1
 80005da:	2604      	movs	r6, #4
 80005dc:	2500      	movs	r5, #0
 80005de:	469a      	mov	sl, r3
 80005e0:	e738      	b.n	8000454 <__aeabi_fmul+0x38>
 80005e2:	2b00      	cmp	r3, #0
 80005e4:	d104      	bne.n	80005f0 <__aeabi_fmul+0x1d4>
 80005e6:	2302      	movs	r3, #2
 80005e8:	2608      	movs	r6, #8
 80005ea:	25ff      	movs	r5, #255	; 0xff
 80005ec:	469a      	mov	sl, r3
 80005ee:	e731      	b.n	8000454 <__aeabi_fmul+0x38>
 80005f0:	2303      	movs	r3, #3
 80005f2:	260c      	movs	r6, #12
 80005f4:	25ff      	movs	r5, #255	; 0xff
 80005f6:	469a      	mov	sl, r3
 80005f8:	e72c      	b.n	8000454 <__aeabi_fmul+0x38>
 80005fa:	4648      	mov	r0, r9
 80005fc:	f000 f8f6 	bl	80007ec <__clzsi2>
 8000600:	464a      	mov	r2, r9
 8000602:	1f43      	subs	r3, r0, #5
 8000604:	2576      	movs	r5, #118	; 0x76
 8000606:	409a      	lsls	r2, r3
 8000608:	2300      	movs	r3, #0
 800060a:	426d      	negs	r5, r5
 800060c:	4691      	mov	r9, r2
 800060e:	2600      	movs	r6, #0
 8000610:	469a      	mov	sl, r3
 8000612:	1a2d      	subs	r5, r5, r0
 8000614:	e71e      	b.n	8000454 <__aeabi_fmul+0x38>
 8000616:	0020      	movs	r0, r4
 8000618:	f000 f8e8 	bl	80007ec <__clzsi2>
 800061c:	4642      	mov	r2, r8
 800061e:	1f43      	subs	r3, r0, #5
 8000620:	409c      	lsls	r4, r3
 8000622:	1a2b      	subs	r3, r5, r0
 8000624:	3b76      	subs	r3, #118	; 0x76
 8000626:	407a      	eors	r2, r7
 8000628:	2000      	movs	r0, #0
 800062a:	b2d2      	uxtb	r2, r2
 800062c:	1c5d      	adds	r5, r3, #1
 800062e:	2e0a      	cmp	r6, #10
 8000630:	dd00      	ble.n	8000634 <__aeabi_fmul+0x218>
 8000632:	e726      	b.n	8000482 <__aeabi_fmul+0x66>
 8000634:	e739      	b.n	80004aa <__aeabi_fmul+0x8e>
 8000636:	2101      	movs	r1, #1
 8000638:	1acb      	subs	r3, r1, r3
 800063a:	2b1b      	cmp	r3, #27
 800063c:	dd00      	ble.n	8000640 <__aeabi_fmul+0x224>
 800063e:	e73d      	b.n	80004bc <__aeabi_fmul+0xa0>
 8000640:	359e      	adds	r5, #158	; 0x9e
 8000642:	0021      	movs	r1, r4
 8000644:	40ac      	lsls	r4, r5
 8000646:	40d9      	lsrs	r1, r3
 8000648:	1e63      	subs	r3, r4, #1
 800064a:	419c      	sbcs	r4, r3
 800064c:	4321      	orrs	r1, r4
 800064e:	074b      	lsls	r3, r1, #29
 8000650:	d004      	beq.n	800065c <__aeabi_fmul+0x240>
 8000652:	230f      	movs	r3, #15
 8000654:	400b      	ands	r3, r1
 8000656:	2b04      	cmp	r3, #4
 8000658:	d000      	beq.n	800065c <__aeabi_fmul+0x240>
 800065a:	3104      	adds	r1, #4
 800065c:	014b      	lsls	r3, r1, #5
 800065e:	d504      	bpl.n	800066a <__aeabi_fmul+0x24e>
 8000660:	2001      	movs	r0, #1
 8000662:	2100      	movs	r1, #0
 8000664:	e72c      	b.n	80004c0 <__aeabi_fmul+0xa4>
 8000666:	001d      	movs	r5, r3
 8000668:	e78f      	b.n	800058a <__aeabi_fmul+0x16e>
 800066a:	0189      	lsls	r1, r1, #6
 800066c:	2000      	movs	r0, #0
 800066e:	0a49      	lsrs	r1, r1, #9
 8000670:	e726      	b.n	80004c0 <__aeabi_fmul+0xa4>
 8000672:	2302      	movs	r3, #2
 8000674:	2e0f      	cmp	r6, #15
 8000676:	d10c      	bne.n	8000692 <__aeabi_fmul+0x276>
 8000678:	2180      	movs	r1, #128	; 0x80
 800067a:	464b      	mov	r3, r9
 800067c:	03c9      	lsls	r1, r1, #15
 800067e:	420b      	tst	r3, r1
 8000680:	d00d      	beq.n	800069e <__aeabi_fmul+0x282>
 8000682:	420c      	tst	r4, r1
 8000684:	d10b      	bne.n	800069e <__aeabi_fmul+0x282>
 8000686:	4321      	orrs	r1, r4
 8000688:	0249      	lsls	r1, r1, #9
 800068a:	003a      	movs	r2, r7
 800068c:	20ff      	movs	r0, #255	; 0xff
 800068e:	0a49      	lsrs	r1, r1, #9
 8000690:	e716      	b.n	80004c0 <__aeabi_fmul+0xa4>
 8000692:	2e0b      	cmp	r6, #11
 8000694:	d000      	beq.n	8000698 <__aeabi_fmul+0x27c>
 8000696:	e6f7      	b.n	8000488 <__aeabi_fmul+0x6c>
 8000698:	46a1      	mov	r9, r4
 800069a:	469a      	mov	sl, r3
 800069c:	e736      	b.n	800050c <__aeabi_fmul+0xf0>
 800069e:	2180      	movs	r1, #128	; 0x80
 80006a0:	464b      	mov	r3, r9
 80006a2:	03c9      	lsls	r1, r1, #15
 80006a4:	4319      	orrs	r1, r3
 80006a6:	0249      	lsls	r1, r1, #9
 80006a8:	4642      	mov	r2, r8
 80006aa:	20ff      	movs	r0, #255	; 0xff
 80006ac:	0a49      	lsrs	r1, r1, #9
 80006ae:	e707      	b.n	80004c0 <__aeabi_fmul+0xa4>
 80006b0:	2303      	movs	r3, #3
 80006b2:	e7df      	b.n	8000674 <__aeabi_fmul+0x258>
 80006b4:	f7ffffff 	.word	0xf7ffffff

080006b8 <__aeabi_i2f>:
 80006b8:	b570      	push	{r4, r5, r6, lr}
 80006ba:	2800      	cmp	r0, #0
 80006bc:	d013      	beq.n	80006e6 <__aeabi_i2f+0x2e>
 80006be:	17c3      	asrs	r3, r0, #31
 80006c0:	18c5      	adds	r5, r0, r3
 80006c2:	405d      	eors	r5, r3
 80006c4:	0fc4      	lsrs	r4, r0, #31
 80006c6:	0028      	movs	r0, r5
 80006c8:	f000 f890 	bl	80007ec <__clzsi2>
 80006cc:	239e      	movs	r3, #158	; 0x9e
 80006ce:	0001      	movs	r1, r0
 80006d0:	1a1b      	subs	r3, r3, r0
 80006d2:	2b96      	cmp	r3, #150	; 0x96
 80006d4:	dc0f      	bgt.n	80006f6 <__aeabi_i2f+0x3e>
 80006d6:	2808      	cmp	r0, #8
 80006d8:	d031      	beq.n	800073e <__aeabi_i2f+0x86>
 80006da:	3908      	subs	r1, #8
 80006dc:	408d      	lsls	r5, r1
 80006de:	026d      	lsls	r5, r5, #9
 80006e0:	0a6d      	lsrs	r5, r5, #9
 80006e2:	b2d8      	uxtb	r0, r3
 80006e4:	e002      	b.n	80006ec <__aeabi_i2f+0x34>
 80006e6:	2400      	movs	r4, #0
 80006e8:	2000      	movs	r0, #0
 80006ea:	2500      	movs	r5, #0
 80006ec:	05c0      	lsls	r0, r0, #23
 80006ee:	4328      	orrs	r0, r5
 80006f0:	07e4      	lsls	r4, r4, #31
 80006f2:	4320      	orrs	r0, r4
 80006f4:	bd70      	pop	{r4, r5, r6, pc}
 80006f6:	2b99      	cmp	r3, #153	; 0x99
 80006f8:	dd0c      	ble.n	8000714 <__aeabi_i2f+0x5c>
 80006fa:	2205      	movs	r2, #5
 80006fc:	1a12      	subs	r2, r2, r0
 80006fe:	0028      	movs	r0, r5
 8000700:	40d0      	lsrs	r0, r2
 8000702:	0002      	movs	r2, r0
 8000704:	0008      	movs	r0, r1
 8000706:	301b      	adds	r0, #27
 8000708:	4085      	lsls	r5, r0
 800070a:	0028      	movs	r0, r5
 800070c:	1e45      	subs	r5, r0, #1
 800070e:	41a8      	sbcs	r0, r5
 8000710:	4302      	orrs	r2, r0
 8000712:	0015      	movs	r5, r2
 8000714:	2905      	cmp	r1, #5
 8000716:	dc16      	bgt.n	8000746 <__aeabi_i2f+0x8e>
 8000718:	002a      	movs	r2, r5
 800071a:	480f      	ldr	r0, [pc, #60]	; (8000758 <__aeabi_i2f+0xa0>)
 800071c:	4002      	ands	r2, r0
 800071e:	076e      	lsls	r6, r5, #29
 8000720:	d009      	beq.n	8000736 <__aeabi_i2f+0x7e>
 8000722:	260f      	movs	r6, #15
 8000724:	4035      	ands	r5, r6
 8000726:	2d04      	cmp	r5, #4
 8000728:	d005      	beq.n	8000736 <__aeabi_i2f+0x7e>
 800072a:	3204      	adds	r2, #4
 800072c:	0155      	lsls	r5, r2, #5
 800072e:	d502      	bpl.n	8000736 <__aeabi_i2f+0x7e>
 8000730:	239f      	movs	r3, #159	; 0x9f
 8000732:	4002      	ands	r2, r0
 8000734:	1a5b      	subs	r3, r3, r1
 8000736:	0192      	lsls	r2, r2, #6
 8000738:	0a55      	lsrs	r5, r2, #9
 800073a:	b2d8      	uxtb	r0, r3
 800073c:	e7d6      	b.n	80006ec <__aeabi_i2f+0x34>
 800073e:	026d      	lsls	r5, r5, #9
 8000740:	2096      	movs	r0, #150	; 0x96
 8000742:	0a6d      	lsrs	r5, r5, #9
 8000744:	e7d2      	b.n	80006ec <__aeabi_i2f+0x34>
 8000746:	1f4a      	subs	r2, r1, #5
 8000748:	4095      	lsls	r5, r2
 800074a:	002a      	movs	r2, r5
 800074c:	4802      	ldr	r0, [pc, #8]	; (8000758 <__aeabi_i2f+0xa0>)
 800074e:	4002      	ands	r2, r0
 8000750:	076e      	lsls	r6, r5, #29
 8000752:	d0f0      	beq.n	8000736 <__aeabi_i2f+0x7e>
 8000754:	e7e5      	b.n	8000722 <__aeabi_i2f+0x6a>
 8000756:	46c0      	nop			; (mov r8, r8)
 8000758:	fbffffff 	.word	0xfbffffff

0800075c <__aeabi_ui2f>:
 800075c:	b570      	push	{r4, r5, r6, lr}
 800075e:	1e04      	subs	r4, r0, #0
 8000760:	d00e      	beq.n	8000780 <__aeabi_ui2f+0x24>
 8000762:	f000 f843 	bl	80007ec <__clzsi2>
 8000766:	239e      	movs	r3, #158	; 0x9e
 8000768:	0001      	movs	r1, r0
 800076a:	1a1b      	subs	r3, r3, r0
 800076c:	2b96      	cmp	r3, #150	; 0x96
 800076e:	dc0c      	bgt.n	800078a <__aeabi_ui2f+0x2e>
 8000770:	2808      	cmp	r0, #8
 8000772:	d02c      	beq.n	80007ce <__aeabi_ui2f+0x72>
 8000774:	3908      	subs	r1, #8
 8000776:	408c      	lsls	r4, r1
 8000778:	0264      	lsls	r4, r4, #9
 800077a:	0a64      	lsrs	r4, r4, #9
 800077c:	b2d8      	uxtb	r0, r3
 800077e:	e001      	b.n	8000784 <__aeabi_ui2f+0x28>
 8000780:	2000      	movs	r0, #0
 8000782:	2400      	movs	r4, #0
 8000784:	05c0      	lsls	r0, r0, #23
 8000786:	4320      	orrs	r0, r4
 8000788:	bd70      	pop	{r4, r5, r6, pc}
 800078a:	2b99      	cmp	r3, #153	; 0x99
 800078c:	dd0a      	ble.n	80007a4 <__aeabi_ui2f+0x48>
 800078e:	0002      	movs	r2, r0
 8000790:	0020      	movs	r0, r4
 8000792:	321b      	adds	r2, #27
 8000794:	4090      	lsls	r0, r2
 8000796:	0002      	movs	r2, r0
 8000798:	1e50      	subs	r0, r2, #1
 800079a:	4182      	sbcs	r2, r0
 800079c:	2005      	movs	r0, #5
 800079e:	1a40      	subs	r0, r0, r1
 80007a0:	40c4      	lsrs	r4, r0
 80007a2:	4314      	orrs	r4, r2
 80007a4:	2905      	cmp	r1, #5
 80007a6:	dc16      	bgt.n	80007d6 <__aeabi_ui2f+0x7a>
 80007a8:	0022      	movs	r2, r4
 80007aa:	480f      	ldr	r0, [pc, #60]	; (80007e8 <__aeabi_ui2f+0x8c>)
 80007ac:	4002      	ands	r2, r0
 80007ae:	0765      	lsls	r5, r4, #29
 80007b0:	d009      	beq.n	80007c6 <__aeabi_ui2f+0x6a>
 80007b2:	250f      	movs	r5, #15
 80007b4:	402c      	ands	r4, r5
 80007b6:	2c04      	cmp	r4, #4
 80007b8:	d005      	beq.n	80007c6 <__aeabi_ui2f+0x6a>
 80007ba:	3204      	adds	r2, #4
 80007bc:	0154      	lsls	r4, r2, #5
 80007be:	d502      	bpl.n	80007c6 <__aeabi_ui2f+0x6a>
 80007c0:	239f      	movs	r3, #159	; 0x9f
 80007c2:	4002      	ands	r2, r0
 80007c4:	1a5b      	subs	r3, r3, r1
 80007c6:	0192      	lsls	r2, r2, #6
 80007c8:	0a54      	lsrs	r4, r2, #9
 80007ca:	b2d8      	uxtb	r0, r3
 80007cc:	e7da      	b.n	8000784 <__aeabi_ui2f+0x28>
 80007ce:	0264      	lsls	r4, r4, #9
 80007d0:	2096      	movs	r0, #150	; 0x96
 80007d2:	0a64      	lsrs	r4, r4, #9
 80007d4:	e7d6      	b.n	8000784 <__aeabi_ui2f+0x28>
 80007d6:	1f4a      	subs	r2, r1, #5
 80007d8:	4094      	lsls	r4, r2
 80007da:	0022      	movs	r2, r4
 80007dc:	4802      	ldr	r0, [pc, #8]	; (80007e8 <__aeabi_ui2f+0x8c>)
 80007de:	4002      	ands	r2, r0
 80007e0:	0765      	lsls	r5, r4, #29
 80007e2:	d0f0      	beq.n	80007c6 <__aeabi_ui2f+0x6a>
 80007e4:	e7e5      	b.n	80007b2 <__aeabi_ui2f+0x56>
 80007e6:	46c0      	nop			; (mov r8, r8)
 80007e8:	fbffffff 	.word	0xfbffffff

080007ec <__clzsi2>:
 80007ec:	211c      	movs	r1, #28
 80007ee:	2301      	movs	r3, #1
 80007f0:	041b      	lsls	r3, r3, #16
 80007f2:	4298      	cmp	r0, r3
 80007f4:	d301      	bcc.n	80007fa <__clzsi2+0xe>
 80007f6:	0c00      	lsrs	r0, r0, #16
 80007f8:	3910      	subs	r1, #16
 80007fa:	0a1b      	lsrs	r3, r3, #8
 80007fc:	4298      	cmp	r0, r3
 80007fe:	d301      	bcc.n	8000804 <__clzsi2+0x18>
 8000800:	0a00      	lsrs	r0, r0, #8
 8000802:	3908      	subs	r1, #8
 8000804:	091b      	lsrs	r3, r3, #4
 8000806:	4298      	cmp	r0, r3
 8000808:	d301      	bcc.n	800080e <__clzsi2+0x22>
 800080a:	0900      	lsrs	r0, r0, #4
 800080c:	3904      	subs	r1, #4
 800080e:	a202      	add	r2, pc, #8	; (adr r2, 8000818 <__clzsi2+0x2c>)
 8000810:	5c10      	ldrb	r0, [r2, r0]
 8000812:	1840      	adds	r0, r0, r1
 8000814:	4770      	bx	lr
 8000816:	46c0      	nop			; (mov r8, r8)
 8000818:	02020304 	.word	0x02020304
 800081c:	01010101 	.word	0x01010101
	...

08000828 <Reset_Handler>:

  .section .text.Reset_Handler
  .weak Reset_Handler
  .type Reset_Handler, %function
Reset_Handler:
  ldr   r0, =_estack
 8000828:	480d      	ldr	r0, [pc, #52]	; (8000860 <LoopForever+0x2>)
  mov   sp, r0          /* set stack pointer */
 800082a:	4685      	mov	sp, r0
  
/* Call the clock system initialization function.*/
  bl  SystemInit
 800082c:	f003 ff60 	bl	80046f0 <SystemInit>

/* Copy the data segment initializers from flash to SRAM */
  ldr r0, =_sdata
 8000830:	480c      	ldr	r0, [pc, #48]	; (8000864 <LoopForever+0x6>)
  ldr r1, =_edata
 8000832:	490d      	ldr	r1, [pc, #52]	; (8000868 <LoopForever+0xa>)
  ldr r2, =_sidata
 8000834:	4a0d      	ldr	r2, [pc, #52]	; (800086c <LoopForever+0xe>)
  movs r3, #0
 8000836:	2300      	movs	r3, #0
  b LoopCopyDataInit
 8000838:	e002      	b.n	8000840 <LoopCopyDataInit>

0800083a <CopyDataInit>:

CopyDataInit:
  ldr r4, [r2, r3]
 800083a:	58d4      	ldr	r4, [r2, r3]
  str r4, [r0, r3]
 800083c:	50c4      	str	r4, [r0, r3]
  adds r3, r3, #4
 800083e:	3304      	adds	r3, #4

08000840 <LoopCopyDataInit>:

LoopCopyDataInit:
  adds r4, r0, r3
 8000840:	18c4      	adds	r4, r0, r3
  cmp r4, r1
 8000842:	428c      	cmp	r4, r1
  bcc CopyDataInit
 8000844:	d3f9      	bcc.n	800083a <CopyDataInit>
  
/* Zero fill the bss segment. */
  ldr r2, =_sbss
 8000846:	4a0a      	ldr	r2, [pc, #40]	; (8000870 <LoopForever+0x12>)
  ldr r4, =_ebss
 8000848:	4c0a      	ldr	r4, [pc, #40]	; (8000874 <LoopForever+0x16>)
  movs r3, #0
 800084a:	2300      	movs	r3, #0
  b LoopFillZerobss
 800084c:	e001      	b.n	8000852 <LoopFillZerobss>

0800084e <FillZerobss>:

FillZerobss:
  str  r3, [r2]
 800084e:	6013      	str	r3, [r2, #0]
  adds r2, r2, #4
 8000850:	3204      	adds	r2, #4

08000852 <LoopFillZerobss>:

LoopFillZerobss:
  cmp r2, r4
 8000852:	42a2      	cmp	r2, r4
  bcc FillZerobss
 8000854:	d3fb      	bcc.n	800084e <FillZerobss>

/* Call static constructors */
  bl __libc_init_array
 8000856:	f005 fe5f 	bl	8006518 <__libc_init_array>
/* Call the application's entry point.*/
  bl main
 800085a:	f000 fe33 	bl	80014c4 <main>

0800085e <LoopForever>:

LoopForever:
    b LoopForever
 800085e:	e7fe      	b.n	800085e <LoopForever>
  ldr   r0, =_estack
 8000860:	20001000 	.word	0x20001000
  ldr r0, =_sdata
 8000864:	20000000 	.word	0x20000000
  ldr r1, =_edata
 8000868:	200003c4 	.word	0x200003c4
  ldr r2, =_sidata
 800086c:	08007164 	.word	0x08007164
  ldr r2, =_sbss
 8000870:	200003c4 	.word	0x200003c4
  ldr r4, =_ebss
 8000874:	200009e8 	.word	0x200009e8

08000878 <ADC1_IRQHandler>:
 * @retval : None
*/
    .section .text.Default_Handler,"ax",%progbits
Default_Handler:
Infinite_Loop:
  b Infinite_Loop
 8000878:	e7fe      	b.n	8000878 <ADC1_IRQHandler>
	...

0800087c <ASPEP_TXframeProcess>:
  * @param  bufferLength Size of the packet to be sent : Header + Data
  *
  * @return Returns an ASPEP response defined in aspep.h
  */
uint8_t ASPEP_TXframeProcess(ASPEP_Handle_t *pHandle, uint8_t dataType, void *txBuffer, uint16_t bufferLength)
{
 800087c:	b5f8      	push	{r3, r4, r5, r6, r7, lr}
 800087e:	000d      	movs	r5, r1
 8000880:	0011      	movs	r1, r2
 8000882:	0004      	movs	r4, r0
  uint32_t header = *headerPtr;
 8000884:	6808      	ldr	r0, [r1, #0]
{
 8000886:	001a      	movs	r2, r3
  crc = CRC4_Lookup8[crc ^ (uint8_t)(header         & 0xffU)];
 8000888:	b2c7      	uxtb	r7, r0
 800088a:	46bc      	mov	ip, r7
  crc = CRC4_Lookup8[crc ^ (uint8_t)((header >> 8U) & 0xffU)];
 800088c:	0103      	lsls	r3, r0, #4
 800088e:	0b1f      	lsrs	r7, r3, #12
 8000890:	4663      	mov	r3, ip
  crc = CRC4_Lookup8[crc ^ (uint8_t)(header         & 0xffU)];
 8000892:	4e2b      	ldr	r6, [pc, #172]	; (8000940 <ASPEP_TXframeProcess+0xc4>)
  crc = CRC4_Lookup8[crc ^ (uint8_t)((header >> 8U) & 0xffU)];
 8000894:	5cf3      	ldrb	r3, [r6, r3]
 8000896:	405f      	eors	r7, r3
 8000898:	b2ff      	uxtb	r7, r7
  crc = CRC4_Lookup8[crc ^ (uint8_t)((header >> 16U) & 0xffU)];
 800089a:	5df7      	ldrb	r7, [r6, r7]
 800089c:	0103      	lsls	r3, r0, #4
 800089e:	0d1b      	lsrs	r3, r3, #20
 80008a0:	405f      	eors	r7, r3
 80008a2:	b2ff      	uxtb	r7, r7
  crc = CRC4_Lookup4[crc ^ (uint8_t)((header >> 24U) & 0x0fU)];
 80008a4:	5df6      	ldrb	r6, [r6, r7]
 80008a6:	0103      	lsls	r3, r0, #4
 80008a8:	0f1b      	lsrs	r3, r3, #28
 80008aa:	4073      	eors	r3, r6
 80008ac:	4e25      	ldr	r6, [pc, #148]	; (8000944 <ASPEP_TXframeProcess+0xc8>)
  *headerPtr |= (uint32_t)crc << 28;
 80008ae:	5cf3      	ldrb	r3, [r6, r3]
 80008b0:	071b      	lsls	r3, r3, #28
 80008b2:	4303      	orrs	r3, r0
 80008b4:	600b      	str	r3, [r1, #0]
  \details Disables IRQ interrupts by setting the I-bit in the CPSR.
           Can only be executed in Privileged modes.
 */
__STATIC_FORCEINLINE void __disable_irq(void)
{
  __ASM volatile ("cpsid i" : : : "memory");
 80008b6:	b672      	cpsid	i
  {
#endif
    /* Insert CRC header in the packet to send */
    ASPEP_ComputeHeaderCRC((uint32_t *)txBuffer); //cstat !MISRAC2012-Rule-11.5
    __disable_irq(); /*TODO: Disable High frequency task is enough */
    if (NULL == pHandle->lockBuffer) /* Communication Ip free to send data*/
 80008b8:	6ca3      	ldr	r3, [r4, #72]	; 0x48
 80008ba:	2b00      	cmp	r3, #0
 80008bc:	d116      	bne.n	80008ec <ASPEP_TXframeProcess+0x70>
    {
      if (MCTL_ASYNC == dataType)
 80008be:	2003      	movs	r0, #3
 80008c0:	2d09      	cmp	r5, #9
 80008c2:	d108      	bne.n	80008d6 <ASPEP_TXframeProcess+0x5a>
      {
        /* In ASYNC, two flipflop buffers are used, the txBuffer points always to lastRequestedAsyncBuff->buffer */
        pHandle->lastRequestedAsyncBuff->state = readLock;
 80008c4:	6c23      	ldr	r3, [r4, #64]	; 0x40
 80008c6:	7198      	strb	r0, [r3, #6]
        pHandle->lockBuffer = (void *)pHandle->lastRequestedAsyncBuff;
 80008c8:	64a3      	str	r3, [r4, #72]	; 0x48
  __ASM volatile ("cpsie i" : : : "memory");
 80008ca:	b662      	cpsie	i
        pHandle->ctrlBuffer.state = readLock;
        pHandle->lockBuffer = (void *)&pHandle->ctrlBuffer;
      }
      /* Enable HF task It */
      __enable_irq(); /*TODO: Enable High frequency task is enough */
      pHandle->fASPEP_send(pHandle->HWIp, txBuffer, bufferLength);
 80008cc:	6da3      	ldr	r3, [r4, #88]	; 0x58
 80008ce:	6960      	ldr	r0, [r4, #20]
 80008d0:	4798      	blx	r3
  uint8_t result = ASPEP_OK;
 80008d2:	2000      	movs	r0, #0
 80008d4:	e01a      	b.n	800090c <ASPEP_TXframeProcess+0x90>
      else if (MCTL_SYNC == dataType)
 80008d6:	2d0a      	cmp	r5, #10
 80008d8:	d104      	bne.n	80008e4 <ASPEP_TXframeProcess+0x68>
        pHandle->syncBuffer.state = readLock;
 80008da:	0023      	movs	r3, r4
 80008dc:	332e      	adds	r3, #46	; 0x2e
 80008de:	7018      	strb	r0, [r3, #0]
        pHandle->lockBuffer = (void *)&pHandle->syncBuffer;
 80008e0:	3b06      	subs	r3, #6
 80008e2:	e7f1      	b.n	80008c8 <ASPEP_TXframeProcess+0x4c>
        pHandle->ctrlBuffer.state = readLock;
 80008e4:	1d63      	adds	r3, r4, #5
 80008e6:	77d8      	strb	r0, [r3, #31]
        pHandle->lockBuffer = (void *)&pHandle->ctrlBuffer;
 80008e8:	331b      	adds	r3, #27
 80008ea:	e7ed      	b.n	80008c8 <ASPEP_TXframeProcess+0x4c>
 80008ec:	b662      	cpsie	i
    }
    else /* HW resource busy, saving packet to sent it once resource will be freed*/
    {
      __enable_irq(); /*TODO: Enable High frequency task is enough */
      /* Lock buffer can be freed here */
      if (MCTL_ASYNC == dataType)
 80008ee:	2d09      	cmp	r5, #9
 80008f0:	d10d      	bne.n	800090e <ASPEP_TXframeProcess+0x92>
      {
        /* Check that the buffer received is the one expected - probably useless */
        if (txBuffer != (uint8_t *)pHandle->lastRequestedAsyncBuff->buffer)
 80008f2:	6c23      	ldr	r3, [r4, #64]	; 0x40
  uint8_t result = ASPEP_OK;
 80008f4:	2000      	movs	r0, #0
        if (txBuffer != (uint8_t *)pHandle->lastRequestedAsyncBuff->buffer)
 80008f6:	681d      	ldr	r5, [r3, #0]
 80008f8:	428d      	cmp	r5, r1
 80008fa:	d000      	beq.n	80008fe <ASPEP_TXframeProcess+0x82>
        {
          result = ASPEP_BUFFER_ERROR;
 80008fc:	3003      	adds	r0, #3
        }
        else
        {
          /* Nothing to do */
        }
        if (NULL == pHandle->asyncNextBuffer)
 80008fe:	6c61      	ldr	r1, [r4, #68]	; 0x44
 8000900:	2900      	cmp	r1, #0
 8000902:	d100      	bne.n	8000906 <ASPEP_TXframeProcess+0x8a>
        {
          /* Required to keep the right sending order */
          pHandle->asyncNextBuffer = pHandle->lastRequestedAsyncBuff;
 8000904:	6463      	str	r3, [r4, #68]	; 0x44
        }
        else
        {
          /* Nothing to do */
        }
        pHandle->lastRequestedAsyncBuff->state = pending;
 8000906:	2102      	movs	r1, #2
        pHandle->lastRequestedAsyncBuff->length = bufferLength;
 8000908:	809a      	strh	r2, [r3, #4]
        pHandle->lastRequestedAsyncBuff->state = pending;
 800090a:	7199      	strb	r1, [r3, #6]
    }
#ifdef NULL_PTR_CHECK_ASP
  }
#endif
  return (result);
}
 800090c:	bdf8      	pop	{r3, r4, r5, r6, r7, pc}
      else if (MCTL_SYNC == dataType)
 800090e:	2d0a      	cmp	r5, #10
 8000910:	d109      	bne.n	8000926 <ASPEP_TXframeProcess+0xaa>
        if (pHandle -> syncBuffer.state != writeLock)
 8000912:	0023      	movs	r3, r4
 8000914:	332e      	adds	r3, #46	; 0x2e
 8000916:	7819      	ldrb	r1, [r3, #0]
          result = ASPEP_BUFFER_ERROR;
 8000918:	2003      	movs	r0, #3
        if (pHandle -> syncBuffer.state != writeLock)
 800091a:	2901      	cmp	r1, #1
 800091c:	d1f6      	bne.n	800090c <ASPEP_TXframeProcess+0x90>
          pHandle->syncBuffer.state = pending;
 800091e:	3101      	adds	r1, #1
 8000920:	7019      	strb	r1, [r3, #0]
          pHandle->syncBuffer.length = bufferLength;
 8000922:	85a2      	strh	r2, [r4, #44]	; 0x2c
 8000924:	e7d5      	b.n	80008d2 <ASPEP_TXframeProcess+0x56>
  uint8_t result = ASPEP_OK;
 8000926:	2000      	movs	r0, #0
      else if(ASPEP_CTRL == dataType)
 8000928:	4285      	cmp	r5, r0
 800092a:	d1ef      	bne.n	800090c <ASPEP_TXframeProcess+0x90>
        if (pHandle->ctrlBuffer.state != available)
 800092c:	3405      	adds	r4, #5
 800092e:	7fe0      	ldrb	r0, [r4, #31]
 8000930:	2800      	cmp	r0, #0
 8000932:	d102      	bne.n	800093a <ASPEP_TXframeProcess+0xbe>
          pHandle->ctrlBuffer.state = pending;
 8000934:	2302      	movs	r3, #2
 8000936:	77e3      	strb	r3, [r4, #31]
 8000938:	e7e8      	b.n	800090c <ASPEP_TXframeProcess+0x90>
          result = ASPEP_BUFFER_ERROR;
 800093a:	2003      	movs	r0, #3
 800093c:	e7e6      	b.n	800090c <ASPEP_TXframeProcess+0x90>
 800093e:	46c0      	nop			; (mov r8, r8)
 8000940:	0800659c 	.word	0x0800659c
 8000944:	0800658c 	.word	0x0800658c

08000948 <ASPEP_CheckBeacon.constprop.0>:
  uint32_t packetHeader = *((uint32_t *)pHandle->rxHeader); //cstat !MISRAC2012-Rule-11.3
 8000948:	69c2      	ldr	r2, [r0, #28]
bool ASPEP_CheckBeacon (ASPEP_Handle_t *pHandle)
 800094a:	b5f0      	push	{r4, r5, r6, r7, lr}
  uint32_t packetHeader = *((uint32_t *)pHandle->rxHeader); //cstat !MISRAC2012-Rule-11.3
 800094c:	4694      	mov	ip, r2
  MasterCapabilities.RX_maxSize = pHandle->rxHeader[1] &0x3FU;                  /*Bits 8 to  13*/
 800094e:	223f      	movs	r2, #63	; 0x3f
 8000950:	7f41      	ldrb	r1, [r0, #29]
  MasterCapabilities.TXA_maxSize = (uint8_t)((packetHeader&0xFE00000U) >> 21);  /*Bits 21 to 27  */
 8000952:	4665      	mov	r5, ip
  MasterCapabilities.RX_maxSize = pHandle->rxHeader[1] &0x3FU;                  /*Bits 8 to  13*/
 8000954:	4011      	ands	r1, r2
  MasterCapabilities.TXS_maxSize = (uint8_t)((packetHeader&0x01FC000U)  >> 14); /*Bits 14 to 20 */
 8000956:	4662      	mov	r2, ip
  MasterCapabilities.DATA_CRC = pHandle->rxHeader[0] >> 7U ;                     /*Bit 7 */
 8000958:	7f04      	ldrb	r4, [r0, #28]
bool ASPEP_CheckBeacon (ASPEP_Handle_t *pHandle)
 800095a:	0003      	movs	r3, r0
  MasterCapabilities.TXS_maxSize = (uint8_t)((packetHeader&0x01FC000U)  >> 14); /*Bits 14 to 20 */
 800095c:	207f      	movs	r0, #127	; 0x7f
 800095e:	0b92      	lsrs	r2, r2, #14
  MasterCapabilities.TXA_maxSize = (uint8_t)((packetHeader&0xFE00000U) >> 21);  /*Bits 21 to 27  */
 8000960:	0d6d      	lsrs	r5, r5, #21
 8000962:	4005      	ands	r5, r0
  MasterCapabilities.TXS_maxSize = (uint8_t)((packetHeader&0x01FC000U)  >> 14); /*Bits 14 to 20 */
 8000964:	4002      	ands	r2, r0
  pHandle->Capabilities.DATA_CRC = MIN(pHandle->Capabilities.DATA_CRC ,MasterCapabilities.DATA_CRC);
 8000966:	0018      	movs	r0, r3
bool ASPEP_CheckBeacon (ASPEP_Handle_t *pHandle)
 8000968:	b087      	sub	sp, #28
  MasterCapabilities.TXA_maxSize = (uint8_t)((packetHeader&0xFE00000U) >> 21);  /*Bits 21 to 27  */
 800096a:	9503      	str	r5, [sp, #12]
  MasterCapabilities.TXS_maxSize = (uint8_t)((packetHeader&0x01FC000U)  >> 14); /*Bits 14 to 20 */
 800096c:	9202      	str	r2, [sp, #8]
  pHandle->Capabilities.DATA_CRC = MIN(pHandle->Capabilities.DATA_CRC ,MasterCapabilities.DATA_CRC);
 800096e:	306c      	adds	r0, #108	; 0x6c
 8000970:	7807      	ldrb	r7, [r0, #0]
  MasterCapabilities.DATA_CRC = pHandle->rxHeader[0] >> 7U ;                     /*Bit 7 */
 8000972:	09e4      	lsrs	r4, r4, #7
  pHandle->Capabilities.DATA_CRC = MIN(pHandle->Capabilities.DATA_CRC ,MasterCapabilities.DATA_CRC);
 8000974:	1c25      	adds	r5, r4, #0
 8000976:	42bc      	cmp	r4, r7
 8000978:	d900      	bls.n	800097c <ASPEP_CheckBeacon.constprop.0+0x34>
 800097a:	1c3d      	adds	r5, r7, #0
 800097c:	7005      	strb	r5, [r0, #0]
  pHandle->Capabilities.RX_maxSize = MIN(pHandle->Capabilities.RX_maxSize, MasterCapabilities.RX_maxSize);
 800097e:	001d      	movs	r5, r3
 8000980:	356d      	adds	r5, #109	; 0x6d
 8000982:	782e      	ldrb	r6, [r5, #0]
 8000984:	1c30      	adds	r0, r6, #0
 8000986:	428e      	cmp	r6, r1
 8000988:	d900      	bls.n	800098c <ASPEP_CheckBeacon.constprop.0+0x44>
 800098a:	1c08      	adds	r0, r1, #0
 800098c:	b2c6      	uxtb	r6, r0
 800098e:	7028      	strb	r0, [r5, #0]
  pHandle->Capabilities.TXS_maxSize = MIN(pHandle->Capabilities.TXS_maxSize, MasterCapabilities.TXS_maxSize);
 8000990:	0018      	movs	r0, r3
 8000992:	aa02      	add	r2, sp, #8
  pHandle->Capabilities.RX_maxSize = MIN(pHandle->Capabilities.RX_maxSize, MasterCapabilities.RX_maxSize);
 8000994:	9605      	str	r6, [sp, #20]
  pHandle->Capabilities.TXS_maxSize = MIN(pHandle->Capabilities.TXS_maxSize, MasterCapabilities.TXS_maxSize);
 8000996:	306e      	adds	r0, #110	; 0x6e
 8000998:	7815      	ldrb	r5, [r2, #0]
 800099a:	7806      	ldrb	r6, [r0, #0]
 800099c:	9a02      	ldr	r2, [sp, #8]
 800099e:	42b2      	cmp	r2, r6
 80009a0:	d900      	bls.n	80009a4 <ASPEP_CheckBeacon.constprop.0+0x5c>
 80009a2:	1c35      	adds	r5, r6, #0
 80009a4:	7005      	strb	r5, [r0, #0]
  pHandle->Capabilities.TXA_maxSize = MIN(pHandle->Capabilities.TXA_maxSize, MasterCapabilities.TXA_maxSize);
 80009a6:	0018      	movs	r0, r3
 80009a8:	306f      	adds	r0, #111	; 0x6f
 80009aa:	9001      	str	r0, [sp, #4]
 80009ac:	7805      	ldrb	r5, [r0, #0]
 80009ae:	9803      	ldr	r0, [sp, #12]
 80009b0:	aa02      	add	r2, sp, #8
 80009b2:	72d0      	strb	r0, [r2, #11]
 80009b4:	42a8      	cmp	r0, r5
 80009b6:	d900      	bls.n	80009ba <ASPEP_CheckBeacon.constprop.0+0x72>
 80009b8:	72d5      	strb	r5, [r2, #11]
 80009ba:	a802      	add	r0, sp, #8
 80009bc:	7ac0      	ldrb	r0, [r0, #11]
 80009be:	9a01      	ldr	r2, [sp, #4]
 80009c0:	7010      	strb	r0, [r2, #0]
    result = false;
 80009c2:	2000      	movs	r0, #0
  if ((MasterCapabilities.DATA_CRC != pHandle->Capabilities.DATA_CRC)
 80009c4:	42bc      	cmp	r4, r7
 80009c6:	d811      	bhi.n	80009ec <ASPEP_CheckBeacon.constprop.0+0xa4>
   || (MasterCapabilities.RX_maxSize > pHandle->Capabilities.RX_maxSize)
 80009c8:	9c05      	ldr	r4, [sp, #20]
 80009ca:	42a1      	cmp	r1, r4
 80009cc:	d80e      	bhi.n	80009ec <ASPEP_CheckBeacon.constprop.0+0xa4>
   || (pHandle->Capabilities.TXS_maxSize != MasterCapabilities.TXS_maxSize )
 80009ce:	9a02      	ldr	r2, [sp, #8]
 80009d0:	42b2      	cmp	r2, r6
 80009d2:	d80b      	bhi.n	80009ec <ASPEP_CheckBeacon.constprop.0+0xa4>
   || (pHandle->Capabilities.TXA_maxSize != MasterCapabilities.TXA_maxSize )
 80009d4:	9a03      	ldr	r2, [sp, #12]
 80009d6:	42aa      	cmp	r2, r5
 80009d8:	d808      	bhi.n	80009ec <ASPEP_CheckBeacon.constprop.0+0xa4>
  MasterCapabilities.version = (uint8_t)((packetHeader &0x70U)>> 4U);           /*Bits 4 to 6*/
 80009da:	4662      	mov	r2, ip
   || (MasterCapabilities.version != pHandle->Capabilities.version) )
 80009dc:	3370      	adds	r3, #112	; 0x70
 80009de:	7818      	ldrb	r0, [r3, #0]
  MasterCapabilities.version = (uint8_t)((packetHeader &0x70U)>> 4U);           /*Bits 4 to 6*/
 80009e0:	0652      	lsls	r2, r2, #25
   || (MasterCapabilities.version != pHandle->Capabilities.version) )
 80009e2:	0f52      	lsrs	r2, r2, #29
 80009e4:	1a80      	subs	r0, r0, r2
 80009e6:	4243      	negs	r3, r0
 80009e8:	4158      	adcs	r0, r3
 80009ea:	b2c0      	uxtb	r0, r0
}
 80009ec:	b007      	add	sp, #28
 80009ee:	bdf0      	pop	{r4, r5, r6, r7, pc}

080009f0 <ASPEP_start>:
{
 80009f0:	b510      	push	{r4, lr}
 80009f2:	0004      	movs	r4, r0
    pHandle->fASPEP_HWInit(pHandle->HWIp);
 80009f4:	6cc3      	ldr	r3, [r0, #76]	; 0x4c
 80009f6:	6940      	ldr	r0, [r0, #20]
 80009f8:	4798      	blx	r3
    pHandle->ASPEP_State = ASPEP_IDLE;
 80009fa:	0022      	movs	r2, r4
 80009fc:	2300      	movs	r3, #0
    pHandle->fASPEP_receive(pHandle->HWIp, pHandle->rxHeader, ASPEP_HEADER_SIZE);
 80009fe:	0021      	movs	r1, r4
    pHandle->ASPEP_State = ASPEP_IDLE;
 8000a00:	3264      	adds	r2, #100	; 0x64
 8000a02:	8013      	strh	r3, [r2, #0]
    pHandle->syncPacketCount = 0; /* Sync packet counter is reset only at startup*/
 8000a04:	3a04      	subs	r2, #4
 8000a06:	7013      	strb	r3, [r2, #0]
    pHandle->fASPEP_receive(pHandle->HWIp, pHandle->rxHeader, ASPEP_HEADER_SIZE);
 8000a08:	6d63      	ldr	r3, [r4, #84]	; 0x54
 8000a0a:	2204      	movs	r2, #4
 8000a0c:	6960      	ldr	r0, [r4, #20]
 8000a0e:	311c      	adds	r1, #28
 8000a10:	4798      	blx	r3
}
 8000a12:	bd10      	pop	{r4, pc}

08000a14 <ASPEP_sendBeacon>:
{
 8000a14:	b510      	push	{r4, lr}
             | (((uint32_t)capabilities->version) << 4U)
 8000a16:	790b      	ldrb	r3, [r1, #4]
             | (((uint32_t)capabilities->TXA_maxSize) << 21U));
 8000a18:	78ca      	ldrb	r2, [r1, #3]
             | (((uint32_t)capabilities->version) << 4U)
 8000a1a:	011b      	lsls	r3, r3, #4
             | (((uint32_t)capabilities->TXA_maxSize) << 21U));
 8000a1c:	0552      	lsls	r2, r2, #21
 8000a1e:	4313      	orrs	r3, r2
             | (((uint32_t)capabilities->DATA_CRC) << 7U)
 8000a20:	780a      	ldrb	r2, [r1, #0]
 8000a22:	01d2      	lsls	r2, r2, #7
             | (((uint32_t)capabilities->TXA_maxSize) << 21U));
 8000a24:	4313      	orrs	r3, r2
             | (((uint32_t)capabilities->RX_maxSize) << 8U)
 8000a26:	784a      	ldrb	r2, [r1, #1]
 8000a28:	0212      	lsls	r2, r2, #8
             | (((uint32_t)capabilities->TXA_maxSize) << 21U));
 8000a2a:	4313      	orrs	r3, r2
             | (((uint32_t)capabilities->TXS_maxSize) << 14U)
 8000a2c:	788a      	ldrb	r2, [r1, #2]
    (void)ASPEP_TXframeProcess(pHandle, ASPEP_CTRL, &pHandle->ctrlBuffer, ASPEP_CTRL_SIZE);
 8000a2e:	2100      	movs	r1, #0
             | (((uint32_t)capabilities->TXS_maxSize) << 14U)
 8000a30:	0392      	lsls	r2, r2, #14
             | (((uint32_t)capabilities->TXA_maxSize) << 21U));
 8000a32:	4313      	orrs	r3, r2
 8000a34:	2205      	movs	r2, #5
 8000a36:	4313      	orrs	r3, r2
    (void)ASPEP_TXframeProcess(pHandle, ASPEP_CTRL, &pHandle->ctrlBuffer, ASPEP_CTRL_SIZE);
 8000a38:	0002      	movs	r2, r0
    *packet = (BEACON
 8000a3a:	6203      	str	r3, [r0, #32]
    (void)ASPEP_TXframeProcess(pHandle, ASPEP_CTRL, &pHandle->ctrlBuffer, ASPEP_CTRL_SIZE);
 8000a3c:	3220      	adds	r2, #32
 8000a3e:	2304      	movs	r3, #4
 8000a40:	f7ff ff1c 	bl	800087c <ASPEP_TXframeProcess>
}
 8000a44:	bd10      	pop	{r4, pc}

08000a46 <ASPEP_sendPing>:
    uint8_t Nbit = pHandle->syncPacketCount & 0x1U; /* Keep only LSB */
 8000a46:	0003      	movs	r3, r0
{
 8000a48:	b570      	push	{r4, r5, r6, lr}
    uint8_t Nbit = pHandle->syncPacketCount & 0x1U; /* Keep only LSB */
 8000a4a:	3360      	adds	r3, #96	; 0x60
 8000a4c:	781c      	ldrb	r4, [r3, #0]
                   | (uint32_t)((uint32_t)Nbit << 6U)
 8000a4e:	2301      	movs	r3, #1
 8000a50:	401c      	ands	r4, r3
    uint8_t ipID = pHandle->liid & 0xFU;
 8000a52:	0003      	movs	r3, r0
                   | (uint32_t)((uint32_t)ipID << 8U)
 8000a54:	250f      	movs	r5, #15
    uint8_t ipID = pHandle->liid & 0xFU;
 8000a56:	3363      	adds	r3, #99	; 0x63
 8000a58:	781b      	ldrb	r3, [r3, #0]
                   | (uint32_t)(((uint32_t) packetNumber) << 12U);
 8000a5a:	0312      	lsls	r2, r2, #12
                   | (uint32_t)((uint32_t)ipID << 8U)
 8000a5c:	402b      	ands	r3, r5
 8000a5e:	021b      	lsls	r3, r3, #8
                   | (uint32_t)(((uint32_t) packetNumber) << 12U);
 8000a60:	4313      	orrs	r3, r2
    *packet = PING | (uint32_t)((uint32_t)cBit << 4U)
 8000a62:	010a      	lsls	r2, r1, #4
                   | (uint32_t)(((uint32_t) packetNumber) << 12U);
 8000a64:	4313      	orrs	r3, r2
                   | (uint32_t)((uint32_t)cBit << 5U)
 8000a66:	0149      	lsls	r1, r1, #5
                   | (uint32_t)((uint32_t)Nbit << 6U)
 8000a68:	01a2      	lsls	r2, r4, #6
                   | (uint32_t)(((uint32_t) packetNumber) << 12U);
 8000a6a:	430b      	orrs	r3, r1
 8000a6c:	4313      	orrs	r3, r2
 8000a6e:	2206      	movs	r2, #6
                   | (uint32_t)((uint32_t)Nbit << 7U)
 8000a70:	01e4      	lsls	r4, r4, #7
                   | (uint32_t)(((uint32_t) packetNumber) << 12U);
 8000a72:	4323      	orrs	r3, r4
 8000a74:	4313      	orrs	r3, r2
    (void)ASPEP_TXframeProcess(pHandle, ASPEP_CTRL, &pHandle->ctrlBuffer, ASPEP_CTRL_SIZE);
 8000a76:	0002      	movs	r2, r0
 8000a78:	2100      	movs	r1, #0
    *packet = PING | (uint32_t)((uint32_t)cBit << 4U)
 8000a7a:	6203      	str	r3, [r0, #32]
    (void)ASPEP_TXframeProcess(pHandle, ASPEP_CTRL, &pHandle->ctrlBuffer, ASPEP_CTRL_SIZE);
 8000a7c:	3220      	adds	r2, #32
 8000a7e:	2304      	movs	r3, #4
 8000a80:	f7ff fefc 	bl	800087c <ASPEP_TXframeProcess>
}
 8000a84:	bd70      	pop	{r4, r5, r6, pc}

08000a86 <ASPEP_getBuffer>:
{
 8000a86:	0003      	movs	r3, r0
 8000a88:	b510      	push	{r4, lr}
    if (MCTL_SYNC == syncAsync)
 8000a8a:	2a0a      	cmp	r2, #10
 8000a8c:	d10b      	bne.n	8000aa6 <ASPEP_getBuffer+0x20>
      if (pHandle->syncBuffer.state <= writeLock) /* Possible values are free or writeLock*/
 8000a8e:	0002      	movs	r2, r0
 8000a90:	322e      	adds	r2, #46	; 0x2e
 8000a92:	7814      	ldrb	r4, [r2, #0]
        result = false;
 8000a94:	2000      	movs	r0, #0
      if (pHandle->syncBuffer.state <= writeLock) /* Possible values are free or writeLock*/
 8000a96:	2c01      	cmp	r4, #1
 8000a98:	d804      	bhi.n	8000aa4 <ASPEP_getBuffer+0x1e>
        *buffer = &pHandle->syncBuffer.buffer[ASPEP_HEADER_SIZE];
 8000a9a:	6a9b      	ldr	r3, [r3, #40]	; 0x28
        pHandle->syncBuffer.state = writeLock;
 8000a9c:	3001      	adds	r0, #1
        *buffer = &pHandle->syncBuffer.buffer[ASPEP_HEADER_SIZE];
 8000a9e:	3304      	adds	r3, #4
 8000aa0:	600b      	str	r3, [r1, #0]
        pHandle->syncBuffer.state = writeLock;
 8000aa2:	7010      	strb	r0, [r2, #0]
}
 8000aa4:	bd10      	pop	{r4, pc}
      if ((pHandle->asyncBufferA.state > writeLock) && (pHandle->asyncBufferB.state > writeLock))
 8000aa6:	0002      	movs	r2, r0
 8000aa8:	3236      	adds	r2, #54	; 0x36
 8000aaa:	7810      	ldrb	r0, [r2, #0]
 8000aac:	2801      	cmp	r0, #1
 8000aae:	d90b      	bls.n	8000ac8 <ASPEP_getBuffer+0x42>
 8000ab0:	7a14      	ldrb	r4, [r2, #8]
 8000ab2:	3208      	adds	r2, #8
        result = false;
 8000ab4:	2000      	movs	r0, #0
      if ((pHandle->asyncBufferA.state > writeLock) && (pHandle->asyncBufferB.state > writeLock))
 8000ab6:	2c01      	cmp	r4, #1
 8000ab8:	d8f4      	bhi.n	8000aa4 <ASPEP_getBuffer+0x1e>
          pHandle->asyncBufferB.state = writeLock;
 8000aba:	2001      	movs	r0, #1
 8000abc:	7010      	strb	r0, [r2, #0]
          pHandle->lastRequestedAsyncBuff = &pHandle->asyncBufferB;
 8000abe:	001a      	movs	r2, r3
 8000ac0:	3238      	adds	r2, #56	; 0x38
 8000ac2:	641a      	str	r2, [r3, #64]	; 0x40
          *buffer = &pHandle->asyncBufferB.buffer[ASPEP_HEADER_SIZE];
 8000ac4:	6b9b      	ldr	r3, [r3, #56]	; 0x38
 8000ac6:	e005      	b.n	8000ad4 <ASPEP_getBuffer+0x4e>
          pHandle->asyncBufferA.state = writeLock;
 8000ac8:	2001      	movs	r0, #1
 8000aca:	7010      	strb	r0, [r2, #0]
          pHandle->lastRequestedAsyncBuff = &pHandle->asyncBufferA;
 8000acc:	001a      	movs	r2, r3
 8000ace:	3230      	adds	r2, #48	; 0x30
 8000ad0:	641a      	str	r2, [r3, #64]	; 0x40
          *buffer = &pHandle->asyncBufferA.buffer[ASPEP_HEADER_SIZE];
 8000ad2:	6b1b      	ldr	r3, [r3, #48]	; 0x30
          *buffer = &pHandle->asyncBufferB.buffer[ASPEP_HEADER_SIZE];
 8000ad4:	3304      	adds	r3, #4
 8000ad6:	600b      	str	r3, [r1, #0]
 8000ad8:	e7e4      	b.n	8000aa4 <ASPEP_getBuffer+0x1e>

08000ada <ASPEP_sendPacket>:
{
 8000ada:	b570      	push	{r4, r5, r6, lr}
 8000adc:	000e      	movs	r6, r1
 8000ade:	0019      	movs	r1, r3
    if (ASPEP_CONNECTED == pHandle-> ASPEP_State)
 8000ae0:	0003      	movs	r3, r0
{
 8000ae2:	0005      	movs	r5, r0
      result = ASPEP_NOT_CONNECTED;
 8000ae4:	2002      	movs	r0, #2
    if (ASPEP_CONNECTED == pHandle-> ASPEP_State)
 8000ae6:	3364      	adds	r3, #100	; 0x64
 8000ae8:	781b      	ldrb	r3, [r3, #0]
{
 8000aea:	0014      	movs	r4, r2
    if (ASPEP_CONNECTED == pHandle-> ASPEP_State)
 8000aec:	4283      	cmp	r3, r0
 8000aee:	d11c      	bne.n	8000b2a <ASPEP_sendPacket+0x50>
      tmpHeader = ((uint32_t)((uint32_t)txDataLengthTemp << (uint32_t)4) | (uint32_t)syncAsync);
 8000af0:	0123      	lsls	r3, r4, #4
 8000af2:	430b      	orrs	r3, r1
      *header = tmpHeader;
 8000af4:	1f32      	subs	r2, r6, #4
 8000af6:	6013      	str	r3, [r2, #0]
      if (1U == pHandle->Capabilities.DATA_CRC)
 8000af8:	002b      	movs	r3, r5
 8000afa:	336c      	adds	r3, #108	; 0x6c
 8000afc:	781b      	ldrb	r3, [r3, #0]
 8000afe:	2b01      	cmp	r3, #1
 8000b00:	d106      	bne.n	8000b10 <ASPEP_sendPacket+0x36>
        packet[txDataLengthTemp] = (uint8_t)0xCA; /* Dummy CRC */
 8000b02:	33c9      	adds	r3, #201	; 0xc9
 8000b04:	5533      	strb	r3, [r6, r4]
        packet[txDataLengthTemp + 1U] = (uint8_t)0xFE; /* Dummy CRC */
 8000b06:	1936      	adds	r6, r6, r4
 8000b08:	3334      	adds	r3, #52	; 0x34
        txDataLengthTemp += (uint16_t)ASPEP_DATACRC_SIZE;
 8000b0a:	1824      	adds	r4, r4, r0
        packet[txDataLengthTemp + 1U] = (uint8_t)0xFE; /* Dummy CRC */
 8000b0c:	7073      	strb	r3, [r6, #1]
        txDataLengthTemp += (uint16_t)ASPEP_DATACRC_SIZE;
 8000b0e:	b2a4      	uxth	r4, r4
      if (MCTL_SYNC == syncAsync)
 8000b10:	290a      	cmp	r1, #10
 8000b12:	d105      	bne.n	8000b20 <ASPEP_sendPacket+0x46>
        if (pSupHandle->MCP_PacketAvailable)
 8000b14:	7c2b      	ldrb	r3, [r5, #16]
          result = MCTL_SYNC_NOT_EXPECTED;
 8000b16:	2001      	movs	r0, #1
        if (pSupHandle->MCP_PacketAvailable)
 8000b18:	2b00      	cmp	r3, #0
 8000b1a:	d006      	beq.n	8000b2a <ASPEP_sendPacket+0x50>
          pSupHandle->MCP_PacketAvailable = false; /* CMD from controller is processed*/
 8000b1c:	2300      	movs	r3, #0
 8000b1e:	742b      	strb	r3, [r5, #16]
        result = ASPEP_TXframeProcess(pHandle, syncAsync, header, txDataLengthTemp + (uint16_t)ASPEP_HEADER_SIZE);
 8000b20:	3404      	adds	r4, #4
 8000b22:	0028      	movs	r0, r5
 8000b24:	b2a3      	uxth	r3, r4
 8000b26:	f7ff fea9 	bl	800087c <ASPEP_TXframeProcess>
}
 8000b2a:	bd70      	pop	{r4, r5, r6, pc}

08000b2c <ASPEP_HWDataTransmittedIT>:
  * Therefore, there is no need to protect this ISR against another higher priority ISR (HF Task).
  *
  * @param  *pHandle Handler of the current instance of the ASPEP component
  */
void ASPEP_HWDataTransmittedIT(ASPEP_Handle_t *pHandle)
{
 8000b2c:	b570      	push	{r4, r5, r6, lr}
  }
  else
  {
#endif
    /* First free previous readLock buffer */
    if (pHandle->ctrlBuffer.state == readLock)
 8000b2e:	1d45      	adds	r5, r0, #5
 8000b30:	7fea      	ldrb	r2, [r5, #31]
{
 8000b32:	0004      	movs	r4, r0
 8000b34:	2300      	movs	r3, #0
    if (pHandle->ctrlBuffer.state == readLock)
 8000b36:	2a03      	cmp	r2, #3
 8000b38:	d110      	bne.n	8000b5c <ASPEP_HWDataTransmittedIT+0x30>
    {
      pHandle->ctrlBuffer.state = available;
 8000b3a:	77eb      	strb	r3, [r5, #31]
    else /* if previous buffer was not ASPEP_CTRL, then the buffer locked is a MCTL_Buff_t */
    {
      MCTL_Buff_t *tempBuff = (MCTL_Buff_t *)pHandle->lockBuffer; //cstat !MISRAC2012-Rule-11.5
      tempBuff->state = available;
    }
    if (pHandle->syncBuffer.state == pending)
 8000b3c:	0026      	movs	r6, r4
 8000b3e:	362e      	adds	r6, #46	; 0x2e
 8000b40:	7833      	ldrb	r3, [r6, #0]
 8000b42:	2b02      	cmp	r3, #2
 8000b44:	d10d      	bne.n	8000b62 <ASPEP_HWDataTransmittedIT+0x36>
    {
      pHandle->lockBuffer = (void *)&pHandle->syncBuffer;
 8000b46:	0023      	movs	r3, r4
 8000b48:	3328      	adds	r3, #40	; 0x28
 8000b4a:	64a3      	str	r3, [r4, #72]	; 0x48
      pHandle->fASPEP_send(pHandle->HWIp, pHandle->syncBuffer.buffer, pHandle->syncBuffer.length);
 8000b4c:	8da2      	ldrh	r2, [r4, #44]	; 0x2c
 8000b4e:	6da3      	ldr	r3, [r4, #88]	; 0x58
 8000b50:	6aa1      	ldr	r1, [r4, #40]	; 0x28
 8000b52:	6960      	ldr	r0, [r4, #20]
 8000b54:	4798      	blx	r3
      pHandle->syncBuffer.state = readLock;
 8000b56:	2303      	movs	r3, #3
 8000b58:	7033      	strb	r3, [r6, #0]
      __enable_irq();
    }
#ifdef NULL_PTR_CHECK_ASP
  }
#endif
}
 8000b5a:	bd70      	pop	{r4, r5, r6, pc}
      tempBuff->state = available;
 8000b5c:	6c82      	ldr	r2, [r0, #72]	; 0x48
 8000b5e:	7193      	strb	r3, [r2, #6]
 8000b60:	e7ec      	b.n	8000b3c <ASPEP_HWDataTransmittedIT+0x10>
    else if (pHandle->ctrlBuffer.state == pending)
 8000b62:	7feb      	ldrb	r3, [r5, #31]
 8000b64:	2b02      	cmp	r3, #2
 8000b66:	d109      	bne.n	8000b7c <ASPEP_HWDataTransmittedIT+0x50>
      pHandle->lockBuffer = (void *)(&pHandle ->ctrlBuffer);
 8000b68:	0021      	movs	r1, r4
 8000b6a:	3120      	adds	r1, #32
      pHandle->fASPEP_send(pHandle ->HWIp, pHandle->ctrlBuffer.buffer, ASPEP_CTRL_SIZE);
 8000b6c:	6da3      	ldr	r3, [r4, #88]	; 0x58
 8000b6e:	2204      	movs	r2, #4
 8000b70:	6960      	ldr	r0, [r4, #20]
      pHandle->lockBuffer = (void *)(&pHandle ->ctrlBuffer);
 8000b72:	64a1      	str	r1, [r4, #72]	; 0x48
      pHandle->fASPEP_send(pHandle ->HWIp, pHandle->ctrlBuffer.buffer, ASPEP_CTRL_SIZE);
 8000b74:	4798      	blx	r3
      pHandle->ctrlBuffer.state = readLock;
 8000b76:	2303      	movs	r3, #3
 8000b78:	77eb      	strb	r3, [r5, #31]
 8000b7a:	e7ee      	b.n	8000b5a <ASPEP_HWDataTransmittedIT+0x2e>
  __ASM volatile ("cpsid i" : : : "memory");
 8000b7c:	b672      	cpsid	i
      if (pHandle->asyncNextBuffer != NULL)
 8000b7e:	6c63      	ldr	r3, [r4, #68]	; 0x44
        pHandle->lockBuffer = (void *)pHandle->asyncNextBuffer;
 8000b80:	64a3      	str	r3, [r4, #72]	; 0x48
      if (pHandle->asyncNextBuffer != NULL)
 8000b82:	2b00      	cmp	r3, #0
 8000b84:	d015      	beq.n	8000bb2 <ASPEP_HWDataTransmittedIT+0x86>
        pHandle->asyncNextBuffer->state = readLock;
 8000b86:	2203      	movs	r2, #3
 8000b88:	719a      	strb	r2, [r3, #6]
        pHandle->fASPEP_send(pHandle ->HWIp, pHandle->asyncNextBuffer->buffer, pHandle->asyncNextBuffer->length);
 8000b8a:	6819      	ldr	r1, [r3, #0]
 8000b8c:	889a      	ldrh	r2, [r3, #4]
 8000b8e:	6da5      	ldr	r5, [r4, #88]	; 0x58
 8000b90:	6960      	ldr	r0, [r4, #20]
 8000b92:	47a8      	blx	r5
        if ((pHandle->asyncBufferA.state == pending) || (pHandle->asyncBufferB.state == pending))
 8000b94:	0023      	movs	r3, r4
 8000b96:	3336      	adds	r3, #54	; 0x36
 8000b98:	781b      	ldrb	r3, [r3, #0]
 8000b9a:	2b02      	cmp	r3, #2
 8000b9c:	d004      	beq.n	8000ba8 <ASPEP_HWDataTransmittedIT+0x7c>
 8000b9e:	0023      	movs	r3, r4
 8000ba0:	333e      	adds	r3, #62	; 0x3e
 8000ba2:	781b      	ldrb	r3, [r3, #0]
 8000ba4:	2b02      	cmp	r3, #2
 8000ba6:	d106      	bne.n	8000bb6 <ASPEP_HWDataTransmittedIT+0x8a>
          uint32_t temp = (uint32_t)&pHandle->asyncBufferA + (uint32_t)&pHandle->asyncBufferB
 8000ba8:	6c62      	ldr	r2, [r4, #68]	; 0x44
 8000baa:	0063      	lsls	r3, r4, #1
 8000bac:	3368      	adds	r3, #104	; 0x68
 8000bae:	1a9b      	subs	r3, r3, r2
          pHandle->asyncNextBuffer = NULL;
 8000bb0:	6463      	str	r3, [r4, #68]	; 0x44
  __ASM volatile ("cpsie i" : : : "memory");
 8000bb2:	b662      	cpsie	i
}
 8000bb4:	e7d1      	b.n	8000b5a <ASPEP_HWDataTransmittedIT+0x2e>
          pHandle->asyncNextBuffer = NULL;
 8000bb6:	2300      	movs	r3, #0
 8000bb8:	e7fa      	b.n	8000bb0 <ASPEP_HWDataTransmittedIT+0x84>

08000bba <ASPEP_RXframeProcess>:
  * @param  *packetLength Length of the packet to be processed
  *
  * @return Returns the buffer of data transmitted by the MCP controller device
  */
uint8_t *ASPEP_RXframeProcess(MCTL_Handle_t *pSupHandle, uint16_t *packetLength)
{
 8000bba:	b5f8      	push	{r3, r4, r5, r6, r7, lr}
    uint32_t packetHeader = *((uint32_t *)pHandle->rxHeader); //cstat !MISRAC2012-Rule-11.3
    uint16_t packetNumber;
#if VALID_CRC_DATA
    bool validCRCData = true;
#endif
    *packetLength = 0;
 8000bbc:	2700      	movs	r7, #0
{
 8000bbe:	000b      	movs	r3, r1
    uint32_t packetHeader = *((uint32_t *)pHandle->rxHeader); //cstat !MISRAC2012-Rule-11.3
 8000bc0:	69c2      	ldr	r2, [r0, #28]
    *packetLength = 0;
 8000bc2:	800f      	strh	r7, [r1, #0]
    if (pHandle->NewPacketAvailable)
 8000bc4:	0001      	movs	r1, r0
 8000bc6:	3161      	adds	r1, #97	; 0x61
 8000bc8:	780d      	ldrb	r5, [r1, #0]
{
 8000bca:	0004      	movs	r4, r0
    if (pHandle->NewPacketAvailable)
 8000bcc:	42bd      	cmp	r5, r7
 8000bce:	d100      	bne.n	8000bd2 <ASPEP_RXframeProcess+0x18>
 8000bd0:	e06e      	b.n	8000cb0 <ASPEP_RXframeProcess+0xf6>
    {
      pHandle->NewPacketAvailable = false; /* Consumes new packet*/
      switch (pHandle->ASPEP_State)
 8000bd2:	0006      	movs	r6, r0
      pHandle->NewPacketAvailable = false; /* Consumes new packet*/
 8000bd4:	700f      	strb	r7, [r1, #0]
      switch (pHandle->ASPEP_State)
 8000bd6:	3664      	adds	r6, #100	; 0x64
 8000bd8:	7831      	ldrb	r1, [r6, #0]
 8000bda:	2901      	cmp	r1, #1
 8000bdc:	d036      	beq.n	8000c4c <ASPEP_RXframeProcess+0x92>
 8000bde:	2902      	cmp	r1, #2
 8000be0:	d046      	beq.n	8000c70 <ASPEP_RXframeProcess+0xb6>
 8000be2:	42b9      	cmp	r1, r7
 8000be4:	d121      	bne.n	8000c2a <ASPEP_RXframeProcess+0x70>
      {
        case ASPEP_IDLE:
        {
          if (BEACON == pHandle->rxPacketType)
 8000be6:	6e83      	ldr	r3, [r0, #104]	; 0x68
 8000be8:	2b05      	cmp	r3, #5
 8000bea:	d126      	bne.n	8000c3a <ASPEP_RXframeProcess+0x80>
          {
            if (ASPEP_CheckBeacon(pHandle) == true)
 8000bec:	f7ff feac 	bl	8000948 <ASPEP_CheckBeacon.constprop.0>
 8000bf0:	42b8      	cmp	r0, r7
 8000bf2:	d014      	beq.n	8000c1e <ASPEP_RXframeProcess+0x64>
            {
              /* Controller capabilities match performer capabilities.*/
              pSupHandle->txSyncMaxPayload = (pHandle->Capabilities.TXS_maxSize + (uint16_t)1U) * (uint16_t)32U;
 8000bf4:	0023      	movs	r3, r4
 8000bf6:	336e      	adds	r3, #110	; 0x6e
 8000bf8:	781b      	ldrb	r3, [r3, #0]
              pSupHandle->txAsyncMaxPayload = (pHandle->Capabilities.TXA_maxSize) * (uint16_t)64U;
              pHandle->maxRXPayload = (pHandle->Capabilities.RX_maxSize + (uint16_t)1U) * (uint16_t)32U;
 8000bfa:	0022      	movs	r2, r4
              pSupHandle->txSyncMaxPayload = (pHandle->Capabilities.TXS_maxSize + (uint16_t)1U) * (uint16_t)32U;
 8000bfc:	3301      	adds	r3, #1
 8000bfe:	015b      	lsls	r3, r3, #5
 8000c00:	81a3      	strh	r3, [r4, #12]
              pSupHandle->txAsyncMaxPayload = (pHandle->Capabilities.TXA_maxSize) * (uint16_t)64U;
 8000c02:	0023      	movs	r3, r4
 8000c04:	336f      	adds	r3, #111	; 0x6f
 8000c06:	781b      	ldrb	r3, [r3, #0]
              pHandle->maxRXPayload = (pHandle->Capabilities.RX_maxSize + (uint16_t)1U) * (uint16_t)32U;
 8000c08:	325e      	adds	r2, #94	; 0x5e
              pSupHandle->txAsyncMaxPayload = (pHandle->Capabilities.TXA_maxSize) * (uint16_t)64U;
 8000c0a:	019b      	lsls	r3, r3, #6
 8000c0c:	81e3      	strh	r3, [r4, #14]
              pHandle->maxRXPayload = (pHandle->Capabilities.RX_maxSize + (uint16_t)1U) * (uint16_t)32U;
 8000c0e:	0023      	movs	r3, r4
 8000c10:	336d      	adds	r3, #109	; 0x6d
 8000c12:	781b      	ldrb	r3, [r3, #0]
 8000c14:	3301      	adds	r3, #1
 8000c16:	015b      	lsls	r3, r3, #5
 8000c18:	8013      	strh	r3, [r2, #0]
              pHandle->ASPEP_State = ASPEP_CONFIGURED;
 8000c1a:	2301      	movs	r3, #1
 8000c1c:	7033      	strb	r3, [r6, #0]
            else
            {
              /* Nothing to do, controller has to send back new beacon with matching capabilities */
            }
            /* Beacon Packet must be answered*/
            ASPEP_sendBeacon(pHandle, &pHandle->Capabilities);
 8000c1e:	0021      	movs	r1, r4
 8000c20:	0020      	movs	r0, r4
 8000c22:	316c      	adds	r1, #108	; 0x6c
 8000c24:	f7ff fef6 	bl	8000a14 <ASPEP_sendBeacon>
  uint8_t *result = NULL; //cstat !MISRAC2012-Rule-8.13
 8000c28:	2700      	movs	r7, #0

        default:
          break;
      }
      /* The valid received packet is now safely consumes, we are ready to receive a new packet */
      pHandle->fASPEP_receive(pHandle->HWIp, pHandle->rxHeader, ASPEP_HEADER_SIZE);
 8000c2a:	0021      	movs	r1, r4
 8000c2c:	2204      	movs	r2, #4
 8000c2e:	6d63      	ldr	r3, [r4, #84]	; 0x54
 8000c30:	6960      	ldr	r0, [r4, #20]
 8000c32:	311c      	adds	r1, #28
 8000c34:	4798      	blx	r3
    }
#ifdef NULL_PTR_CHECK_ASP
  }
#endif
  return (result);
}
 8000c36:	0038      	movs	r0, r7
 8000c38:	bdf8      	pop	{r3, r4, r5, r6, r7, pc}
          else if (PING == pHandle->rxPacketType)
 8000c3a:	2b06      	cmp	r3, #6
 8000c3c:	d1f5      	bne.n	8000c2a <ASPEP_RXframeProcess+0x70>
            ASPEP_sendPing(pHandle, ASPEP_PING_RESET, packetNumber);
 8000c3e:	0039      	movs	r1, r7
            packetNumber = (uint16_t)((packetHeader & 0x0FFFF000U) >> (uint16_t)12U);
 8000c40:	0b12      	lsrs	r2, r2, #12
            ASPEP_sendPing(pHandle, ASPEP_PING_RESET, packetNumber);
 8000c42:	b292      	uxth	r2, r2
            ASPEP_sendPing(pHandle, ASPEP_PING_CFG, packetNumber);
 8000c44:	0020      	movs	r0, r4
 8000c46:	f7ff fefe 	bl	8000a46 <ASPEP_sendPing>
 8000c4a:	e7ee      	b.n	8000c2a <ASPEP_RXframeProcess+0x70>
          if (BEACON == pHandle->rxPacketType)
 8000c4c:	6e83      	ldr	r3, [r0, #104]	; 0x68
 8000c4e:	2b05      	cmp	r3, #5
 8000c50:	d105      	bne.n	8000c5e <ASPEP_RXframeProcess+0xa4>
            if (ASPEP_CheckBeacon(pHandle) == false)
 8000c52:	f7ff fe79 	bl	8000948 <ASPEP_CheckBeacon.constprop.0>
 8000c56:	2800      	cmp	r0, #0
 8000c58:	d1e1      	bne.n	8000c1e <ASPEP_RXframeProcess+0x64>
              pHandle->ASPEP_State = ASPEP_IDLE;
 8000c5a:	7030      	strb	r0, [r6, #0]
 8000c5c:	e7df      	b.n	8000c1e <ASPEP_RXframeProcess+0x64>
          else if (PING == pHandle->rxPacketType)
 8000c5e:	2b06      	cmp	r3, #6
 8000c60:	d1e3      	bne.n	8000c2a <ASPEP_RXframeProcess+0x70>
            packetNumber = (uint16_t)((packetHeader & 0x0FFFF000U) >> (uint16_t)12U);
 8000c62:	0b12      	lsrs	r2, r2, #12
            ASPEP_sendPing(pHandle, ASPEP_PING_CFG, packetNumber);
 8000c64:	b292      	uxth	r2, r2
 8000c66:	f7ff feee 	bl	8000a46 <ASPEP_sendPing>
            pHandle->ASPEP_State = ASPEP_CONNECTED;
 8000c6a:	2302      	movs	r3, #2
 8000c6c:	7033      	strb	r3, [r6, #0]
 8000c6e:	e7dc      	b.n	8000c2a <ASPEP_RXframeProcess+0x70>
          if (BEACON == pHandle->rxPacketType)
 8000c70:	6e82      	ldr	r2, [r0, #104]	; 0x68
 8000c72:	2a05      	cmp	r2, #5
 8000c74:	d108      	bne.n	8000c88 <ASPEP_RXframeProcess+0xce>
            if (ASPEP_CheckBeacon(pHandle) == false)
 8000c76:	f7ff fe67 	bl	8000948 <ASPEP_CheckBeacon.constprop.0>
            ASPEP_sendBeacon(pHandle, &pHandle->Capabilities);
 8000c7a:	0021      	movs	r1, r4
 8000c7c:	7030      	strb	r0, [r6, #0]
 8000c7e:	316c      	adds	r1, #108	; 0x6c
 8000c80:	0020      	movs	r0, r4
 8000c82:	f7ff fec7 	bl	8000a14 <ASPEP_sendBeacon>
 8000c86:	e7d0      	b.n	8000c2a <ASPEP_RXframeProcess+0x70>
          else if (PING == pHandle->rxPacketType)
 8000c88:	2a06      	cmp	r2, #6
 8000c8a:	d102      	bne.n	8000c92 <ASPEP_RXframeProcess+0xd8>
            ASPEP_sendPing(pHandle, ASPEP_PING_CFG, packetNumber);
 8000c8c:	2101      	movs	r1, #1
 8000c8e:	7f42      	ldrb	r2, [r0, #29]
 8000c90:	e7d8      	b.n	8000c44 <ASPEP_RXframeProcess+0x8a>
          else if (DATA_PACKET == pHandle->rxPacketType)
 8000c92:	2a09      	cmp	r2, #9
 8000c94:	d1c9      	bne.n	8000c2a <ASPEP_RXframeProcess+0x70>
              pHandle->syncPacketCount++; /* this counter is incremented at each valid data packet received from controller */
 8000c96:	0001      	movs	r1, r0
 8000c98:	3160      	adds	r1, #96	; 0x60
 8000c9a:	780a      	ldrb	r2, [r1, #0]
 8000c9c:	3201      	adds	r2, #1
 8000c9e:	700a      	strb	r2, [r1, #0]
              pSupHandle->MCP_PacketAvailable = true; /* Will be consumed in ASPEP_sendPacket */
 8000ca0:	2201      	movs	r2, #1
 8000ca2:	7402      	strb	r2, [r0, #16]
              *packetLength = pHandle->rxLength;
 8000ca4:	0002      	movs	r2, r0
 8000ca6:	325c      	adds	r2, #92	; 0x5c
 8000ca8:	8812      	ldrh	r2, [r2, #0]
              result = pHandle->rxBuffer;
 8000caa:	6987      	ldr	r7, [r0, #24]
              *packetLength = pHandle->rxLength;
 8000cac:	801a      	strh	r2, [r3, #0]
              result = pHandle->rxBuffer;
 8000cae:	e7bc      	b.n	8000c2a <ASPEP_RXframeProcess+0x70>
    else if (pHandle->badPacketFlag > ASPEP_OK)
 8000cb0:	0006      	movs	r6, r0
 8000cb2:	3662      	adds	r6, #98	; 0x62
 8000cb4:	7833      	ldrb	r3, [r6, #0]
  uint8_t *result = NULL; //cstat !MISRAC2012-Rule-8.13
 8000cb6:	002f      	movs	r7, r5
    else if (pHandle->badPacketFlag > ASPEP_OK)
 8000cb8:	2b00      	cmp	r3, #0
 8000cba:	d0bc      	beq.n	8000c36 <ASPEP_RXframeProcess+0x7c>
  *packet = NACK | (uint32_t)(((uint32_t) errorInfo) << 8U) | (uint32_t)(((uint32_t) errorInfo) << 16U);
 8000cbc:	021a      	lsls	r2, r3, #8
 8000cbe:	041b      	lsls	r3, r3, #16
 8000cc0:	431a      	orrs	r2, r3
 8000cc2:	230f      	movs	r3, #15
 8000cc4:	4313      	orrs	r3, r2
  (void)ASPEP_TXframeProcess(pHandle, ASPEP_CTRL, &pHandle->ctrlBuffer, ASPEP_CTRL_SIZE);
 8000cc6:	0002      	movs	r2, r0
 8000cc8:	0029      	movs	r1, r5
  *packet = NACK | (uint32_t)(((uint32_t) errorInfo) << 8U) | (uint32_t)(((uint32_t) errorInfo) << 16U);
 8000cca:	6203      	str	r3, [r0, #32]
  (void)ASPEP_TXframeProcess(pHandle, ASPEP_CTRL, &pHandle->ctrlBuffer, ASPEP_CTRL_SIZE);
 8000ccc:	3220      	adds	r2, #32
 8000cce:	2304      	movs	r3, #4
 8000cd0:	f7ff fdd4 	bl	800087c <ASPEP_TXframeProcess>
      pHandle->badPacketFlag = ASPEP_OK;
 8000cd4:	7035      	strb	r5, [r6, #0]
      pHandle->fASPEP_HWSync(pHandle->HWIp);
 8000cd6:	6d23      	ldr	r3, [r4, #80]	; 0x50
 8000cd8:	6960      	ldr	r0, [r4, #20]
 8000cda:	4798      	blx	r3
 8000cdc:	e7ab      	b.n	8000c36 <ASPEP_RXframeProcess+0x7c>
	...

08000ce0 <ASPEP_HWDataReceivedIT>:
  * If the packet received contains an error in the header, the HW IP will be re-synchronised first, and DMA will be configured after.
  *
  * @param  *pHandle Handler of the current instance of the ASPEP component
  */
void ASPEP_HWDataReceivedIT(ASPEP_Handle_t *pHandle)
{
 8000ce0:	b570      	push	{r4, r5, r6, lr}
    /* Nothing to do */
  }
  else
  {
#endif
    switch (pHandle->ASPEP_TL_State)
 8000ce2:	0004      	movs	r4, r0
 8000ce4:	3465      	adds	r4, #101	; 0x65
 8000ce6:	7823      	ldrb	r3, [r4, #0]
 8000ce8:	2b00      	cmp	r3, #0
 8000cea:	d002      	beq.n	8000cf2 <ASPEP_HWDataReceivedIT+0x12>
 8000cec:	2b01      	cmp	r3, #1
 8000cee:	d03e      	beq.n	8000d6e <ASPEP_HWDataReceivedIT+0x8e>
        break;
    }
#ifdef NULL_PTR_CHECK_ASP
  }
#endif
}
 8000cf0:	bd70      	pop	{r4, r5, r6, pc}
        if (ASPEP_CheckHeaderCRC(*(uint32_t *)pHandle->rxHeader) == true) //cstat !MISRAC2012-Rule-11.3
 8000cf2:	69c2      	ldr	r2, [r0, #28]
  crc = CRC4_Lookup8[crc ^ (uint8_t)(header         & 0xffU)];
 8000cf4:	4b20      	ldr	r3, [pc, #128]	; (8000d78 <ASPEP_HWDataReceivedIT+0x98>)
 8000cf6:	b2d1      	uxtb	r1, r2
  crc = CRC4_Lookup8[crc ^ (uint8_t)((header >> 8U) & 0xffU)];
 8000cf8:	5c59      	ldrb	r1, [r3, r1]
 8000cfa:	0a15      	lsrs	r5, r2, #8
 8000cfc:	4069      	eors	r1, r5
 8000cfe:	b2c9      	uxtb	r1, r1
  crc = CRC4_Lookup8[crc ^ (uint8_t)((header >> 16U) & 0xffU)];
 8000d00:	5c59      	ldrb	r1, [r3, r1]
 8000d02:	0c15      	lsrs	r5, r2, #16
 8000d04:	4069      	eors	r1, r5
 8000d06:	b2c9      	uxtb	r1, r1
  crc = CRC4_Lookup8[crc ^ (uint8_t)((header >> 24U) & 0xffU)];
 8000d08:	5c59      	ldrb	r1, [r3, r1]
 8000d0a:	0e12      	lsrs	r2, r2, #24
 8000d0c:	404a      	eors	r2, r1
        if (ASPEP_CheckHeaderCRC(*(uint32_t *)pHandle->rxHeader) == true) //cstat !MISRAC2012-Rule-11.3
 8000d0e:	5c9b      	ldrb	r3, [r3, r2]
 8000d10:	2b00      	cmp	r3, #0
 8000d12:	d129      	bne.n	8000d68 <ASPEP_HWDataReceivedIT+0x88>
          pHandle->rxPacketType = (ASPEP_packetType)(((uint32_t)pHandle->rxHeader[0]) & ID_MASK);
 8000d14:	220f      	movs	r2, #15
 8000d16:	7f03      	ldrb	r3, [r0, #28]
 8000d18:	4013      	ands	r3, r2
 8000d1a:	6683      	str	r3, [r0, #104]	; 0x68
          switch (pHandle->rxPacketType)
 8000d1c:	2b06      	cmp	r3, #6
 8000d1e:	d804      	bhi.n	8000d2a <ASPEP_HWDataReceivedIT+0x4a>
 8000d20:	2b04      	cmp	r3, #4
 8000d22:	d91f      	bls.n	8000d64 <ASPEP_HWDataReceivedIT+0x84>
              pHandle->NewPacketAvailable = true;
 8000d24:	3061      	adds	r0, #97	; 0x61
              pHandle->badPacketFlag = ASPEP_BAD_PACKET_TYPE;
 8000d26:	2301      	movs	r3, #1
 8000d28:	e01a      	b.n	8000d60 <ASPEP_HWDataReceivedIT+0x80>
 8000d2a:	2b09      	cmp	r3, #9
 8000d2c:	d11a      	bne.n	8000d64 <ASPEP_HWDataReceivedIT+0x84>
              pHandle->rxLength = (uint16_t)((*((uint16_t *)pHandle->rxHeader) & 0x1FFF0U) >> (uint16_t)4);
 8000d2e:	0003      	movs	r3, r0
 8000d30:	8b82      	ldrh	r2, [r0, #28]
 8000d32:	335c      	adds	r3, #92	; 0x5c
 8000d34:	0912      	lsrs	r2, r2, #4
 8000d36:	801a      	strh	r2, [r3, #0]
              if (0U == pHandle->rxLength) /* data packet with length 0 is a valid packet */
 8000d38:	d0f4      	beq.n	8000d24 <ASPEP_HWDataReceivedIT+0x44>
              else if (pHandle->rxLength <= pHandle->maxRXPayload)
 8000d3a:	0003      	movs	r3, r0
 8000d3c:	335e      	adds	r3, #94	; 0x5e
 8000d3e:	881b      	ldrh	r3, [r3, #0]
 8000d40:	4293      	cmp	r3, r2
 8000d42:	d30b      	bcc.n	8000d5c <ASPEP_HWDataReceivedIT+0x7c>
                                        (pHandle->rxLength + ((uint16_t)ASPEP_DATACRC_SIZE * (uint16_t)pHandle->Capabilities.DATA_CRC)));
 8000d44:	0003      	movs	r3, r0
 8000d46:	336c      	adds	r3, #108	; 0x6c
                pHandle->fASPEP_receive(pHandle->HWIp, pHandle->rxBuffer,  /* need to read + 2 bytes CRC*/
 8000d48:	781b      	ldrb	r3, [r3, #0]
 8000d4a:	6981      	ldr	r1, [r0, #24]
 8000d4c:	005b      	lsls	r3, r3, #1
 8000d4e:	18d2      	adds	r2, r2, r3
 8000d50:	6d43      	ldr	r3, [r0, #84]	; 0x54
 8000d52:	6940      	ldr	r0, [r0, #20]
 8000d54:	4798      	blx	r3
                pHandle->ASPEP_TL_State = WAITING_PAYLOAD;
 8000d56:	2301      	movs	r3, #1
 8000d58:	7023      	strb	r3, [r4, #0]
 8000d5a:	e7c9      	b.n	8000cf0 <ASPEP_HWDataReceivedIT+0x10>
                pHandle->badPacketFlag = ASPEP_BAD_PACKET_SIZE;
 8000d5c:	2302      	movs	r3, #2
 8000d5e:	3062      	adds	r0, #98	; 0x62
        pHandle->NewPacketAvailable = true;
 8000d60:	7003      	strb	r3, [r0, #0]
}
 8000d62:	e7c5      	b.n	8000cf0 <ASPEP_HWDataReceivedIT+0x10>
              pHandle->badPacketFlag = ASPEP_BAD_PACKET_TYPE;
 8000d64:	3062      	adds	r0, #98	; 0x62
 8000d66:	e7de      	b.n	8000d26 <ASPEP_HWDataReceivedIT+0x46>
          pHandle->badPacketFlag = ASPEP_BAD_CRC_HEADER;
 8000d68:	2304      	movs	r3, #4
 8000d6a:	3062      	adds	r0, #98	; 0x62
 8000d6c:	e7f8      	b.n	8000d60 <ASPEP_HWDataReceivedIT+0x80>
        pHandle->ASPEP_TL_State = WAITING_PACKET;
 8000d6e:	2200      	movs	r2, #0
        pHandle->NewPacketAvailable = true;
 8000d70:	3061      	adds	r0, #97	; 0x61
        pHandle->ASPEP_TL_State = WAITING_PACKET;
 8000d72:	7022      	strb	r2, [r4, #0]
        pHandle->NewPacketAvailable = true;
 8000d74:	e7f4      	b.n	8000d60 <ASPEP_HWDataReceivedIT+0x80>
 8000d76:	46c0      	nop			; (mov r8, r8)
 8000d78:	0800659c 	.word	0x0800659c

08000d7c <ASPEP_HWDMAReset>:
  {
#endif
    /* We must reset the RX state machine to be sure to not be in Waiting packet state */
    /* Otherwise the arrival of a new packet will trigger a NewPacketAvailable despite */
    /* the fact that bytes have been lost because of overrun (debugger paused for instance) */
    pHandle->ASPEP_TL_State = WAITING_PACKET;
 8000d7c:	0003      	movs	r3, r0
 8000d7e:	2200      	movs	r2, #0
    pHandle->fASPEP_receive(pHandle->HWIp, pHandle->rxHeader, ASPEP_HEADER_SIZE);
 8000d80:	0001      	movs	r1, r0
{
 8000d82:	b510      	push	{r4, lr}
    pHandle->ASPEP_TL_State = WAITING_PACKET;
 8000d84:	3365      	adds	r3, #101	; 0x65
 8000d86:	701a      	strb	r2, [r3, #0]
    pHandle->fASPEP_receive(pHandle->HWIp, pHandle->rxHeader, ASPEP_HEADER_SIZE);
 8000d88:	6d43      	ldr	r3, [r0, #84]	; 0x54
 8000d8a:	311c      	adds	r1, #28
 8000d8c:	6940      	ldr	r0, [r0, #20]
 8000d8e:	3204      	adds	r2, #4
 8000d90:	4798      	blx	r3
#ifdef NULL_PTR_CHECK_ASP
  }
#endif
}
 8000d92:	bd10      	pop	{r4, pc}

08000d94 <HALL_Init_Electrical_Angle>:
  *         way the position of the rotor (+/- 30). Electrical angle is then
  *         initialized.
  * @param  pHandle: handler of the current instance of the hall_speed_pos_fdbk component
  */
static void HALL_Init_Electrical_Angle(HALL_Handle_t *pHandle)
{
 8000d94:	0003      	movs	r3, r0
 8000d96:	b5f0      	push	{r4, r5, r6, r7, lr}
    /* Nothing to do */
  }
  else
  {
#endif
    if (DEGREES_120 == pHandle->SensorPlacement)
 8000d98:	1c5f      	adds	r7, r3, #1
 8000d9a:	7fff      	ldrb	r7, [r7, #31]
    {
      pHandle->HallState  = (uint8_t)((LL_GPIO_IsInputPinSet(pHandle->H3Port, pHandle->H3Pin) << 2U)
                                      | (LL_GPIO_IsInputPinSet(pHandle->H2Port, pHandle->H2Pin) << 1U)
 8000d9c:	6b82      	ldr	r2, [r0, #56]	; 0x38
 8000d9e:	6bc4      	ldr	r4, [r0, #60]	; 0x3c
      pHandle->HallState  = (uint8_t)((LL_GPIO_IsInputPinSet(pHandle->H3Port, pHandle->H3Pin) << 2U)
 8000da0:	6c01      	ldr	r1, [r0, #64]	; 0x40
 8000da2:	6c46      	ldr	r6, [r0, #68]	; 0x44
                                      | LL_GPIO_IsInputPinSet(pHandle->H1Port, pHandle->H1Pin));
 8000da4:	6b5d      	ldr	r5, [r3, #52]	; 0x34
 8000da6:	6b00      	ldr	r0, [r0, #48]	; 0x30
    if (DEGREES_120 == pHandle->SensorPlacement)
 8000da8:	2f00      	cmp	r7, #0
 8000daa:	d11e      	bne.n	8000dea <HALL_Init_Electrical_Angle+0x56>
  *         @arg @ref LL_GPIO_PIN_ALL
  * @retval State of bit (1 or 0).
  */
__STATIC_INLINE uint32_t LL_GPIO_IsInputPinSet(GPIO_TypeDef *GPIOx, uint32_t PinMask)
{
  return (READ_BIT(GPIOx->IDR, PinMask) == (PinMask));
 8000dac:	6909      	ldr	r1, [r1, #16]
 8000dae:	6912      	ldr	r2, [r2, #16]
 8000db0:	4031      	ands	r1, r6
 8000db2:	4022      	ands	r2, r4
 8000db4:	1b89      	subs	r1, r1, r6
 8000db6:	1b12      	subs	r2, r2, r4
 8000db8:	424e      	negs	r6, r1
 8000dba:	4171      	adcs	r1, r6
 8000dbc:	4254      	negs	r4, r2
 8000dbe:	4162      	adcs	r2, r4
 8000dc0:	6900      	ldr	r0, [r0, #16]
                                      | (LL_GPIO_IsInputPinSet(pHandle->H2Port, pHandle->H2Pin) << 1U)
 8000dc2:	0052      	lsls	r2, r2, #1
 8000dc4:	4028      	ands	r0, r5
      pHandle->HallState  = (uint8_t)((LL_GPIO_IsInputPinSet(pHandle->H3Port, pHandle->H3Pin) << 2U)
 8000dc6:	0089      	lsls	r1, r1, #2
 8000dc8:	1b40      	subs	r0, r0, r5
                                      | (LL_GPIO_IsInputPinSet(pHandle->H2Port, pHandle->H2Pin) << 1U)
 8000dca:	4311      	orrs	r1, r2
 8000dcc:	4242      	negs	r2, r0
 8000dce:	4150      	adcs	r0, r2
      pHandle->HallState  = (uint8_t)((LL_GPIO_IsInputPinSet(pHandle->H3Port, pHandle->H3Pin) << 2U)
 8000dd0:	4308      	orrs	r0, r1
 8000dd2:	001a      	movs	r2, r3
 8000dd4:	32aa      	adds	r2, #170	; 0xaa
 8000dd6:	7010      	strb	r0, [r2, #0]
      pHandle->HallState  = (uint8_t)(((LL_GPIO_IsInputPinSet(pHandle->H2Port, pHandle->H2Pin) ^ 1U) << 2U)
                                      | (LL_GPIO_IsInputPinSet(pHandle->H3Port, pHandle->H3Pin) << 1U)
                                      | LL_GPIO_IsInputPinSet(pHandle->H1Port, pHandle->H1Pin));
    }

    switch (pHandle->HallState)
 8000dd8:	3801      	subs	r0, #1
 8000dda:	2805      	cmp	r0, #5
 8000ddc:	d830      	bhi.n	8000e40 <HALL_Init_Electrical_Angle+0xac>
 8000dde:	8c5a      	ldrh	r2, [r3, #34]	; 0x22
 8000de0:	f7ff f99c 	bl	800011c <__gnu_thumb1_case_uqi>
 8000de4:	2c262824 	.word	0x2c262824
 8000de8:	2a19      	.short	0x2a19
 8000dea:	6912      	ldr	r2, [r2, #16]
 8000dec:	6909      	ldr	r1, [r1, #16]
 8000dee:	6900      	ldr	r0, [r0, #16]
 8000df0:	4031      	ands	r1, r6
 8000df2:	4028      	ands	r0, r5
 8000df4:	1b89      	subs	r1, r1, r6
 8000df6:	424e      	negs	r6, r1
 8000df8:	4171      	adcs	r1, r6
 8000dfa:	1b40      	subs	r0, r0, r5
 8000dfc:	4245      	negs	r5, r0
 8000dfe:	4168      	adcs	r0, r5
 8000e00:	4022      	ands	r2, r4
                                      | (LL_GPIO_IsInputPinSet(pHandle->H3Port, pHandle->H3Pin) << 1U)
 8000e02:	0049      	lsls	r1, r1, #1
 8000e04:	1b12      	subs	r2, r2, r4
      pHandle->HallState  = (uint8_t)(((LL_GPIO_IsInputPinSet(pHandle->H2Port, pHandle->H2Pin) ^ 1U) << 2U)
 8000e06:	4308      	orrs	r0, r1
 8000e08:	4251      	negs	r1, r2
 8000e0a:	414a      	adcs	r2, r1
 8000e0c:	2104      	movs	r1, #4
 8000e0e:	0092      	lsls	r2, r2, #2
 8000e10:	404a      	eors	r2, r1
 8000e12:	4310      	orrs	r0, r2
 8000e14:	e7dd      	b.n	8000dd2 <HALL_Init_Electrical_Angle+0x3e>
    {
      case STATE_5:
      {
        pHandle->_Super.hElAngle = (int16_t)(pHandle->PhaseShift + (S16_60_PHASE_SHIFT / 2));
 8000e16:	490d      	ldr	r1, [pc, #52]	; (8000e4c <HALL_Init_Electrical_Angle+0xb8>)
        break;
      }

      case STATE_1:
      {
        pHandle->_Super.hElAngle = (int16_t)(pHandle->PhaseShift + S16_60_PHASE_SHIFT + (S16_60_PHASE_SHIFT / 2));
 8000e18:	1852      	adds	r2, r2, r1
 8000e1a:	809a      	strh	r2, [r3, #4]
    }
    /* Reset incremental value */
    pHandle->IncrementElAngle = 0;

    /* Initialize the measured angle */
    pHandle->MeasuredElAngle = pHandle->_Super.hElAngle;
 8000e1c:	001a      	movs	r2, r3
 8000e1e:	8899      	ldrh	r1, [r3, #4]
 8000e20:	32ae      	adds	r2, #174	; 0xae
 8000e22:	8011      	strh	r1, [r2, #0]
    pHandle->IncrementElAngle = 0;
 8000e24:	2200      	movs	r2, #0
 8000e26:	33b0      	adds	r3, #176	; 0xb0
 8000e28:	601a      	str	r2, [r3, #0]
    pHandle->CompSpeed = 0;

#ifdef NULL_PTR_CHECK_HALL_SPD_POS_FDB
  }
#endif
}
 8000e2a:	bdf0      	pop	{r4, r5, r6, r7, pc}
        pHandle->_Super.hElAngle = (int16_t)(pHandle->PhaseShift + S16_60_PHASE_SHIFT + (S16_60_PHASE_SHIFT / 2));
 8000e2c:	4908      	ldr	r1, [pc, #32]	; (8000e50 <HALL_Init_Electrical_Angle+0xbc>)
 8000e2e:	e7f3      	b.n	8000e18 <HALL_Init_Electrical_Angle+0x84>
        pHandle->_Super.hElAngle = (int16_t)(pHandle->PhaseShift + S16_120_PHASE_SHIFT + (S16_60_PHASE_SHIFT / 2));
 8000e30:	4908      	ldr	r1, [pc, #32]	; (8000e54 <HALL_Init_Electrical_Angle+0xc0>)
 8000e32:	e7f1      	b.n	8000e18 <HALL_Init_Electrical_Angle+0x84>
        pHandle->_Super.hElAngle = (int16_t)(pHandle->PhaseShift - S16_120_PHASE_SHIFT - (S16_60_PHASE_SHIFT / 2));
 8000e34:	4908      	ldr	r1, [pc, #32]	; (8000e58 <HALL_Init_Electrical_Angle+0xc4>)
 8000e36:	e7ef      	b.n	8000e18 <HALL_Init_Electrical_Angle+0x84>
        pHandle->_Super.hElAngle = (int16_t)(pHandle->PhaseShift - S16_60_PHASE_SHIFT - (S16_60_PHASE_SHIFT / 2));
 8000e38:	4908      	ldr	r1, [pc, #32]	; (8000e5c <HALL_Init_Electrical_Angle+0xc8>)
 8000e3a:	e7ed      	b.n	8000e18 <HALL_Init_Electrical_Angle+0x84>
        pHandle->_Super.hElAngle = (int16_t)(pHandle->PhaseShift - (S16_60_PHASE_SHIFT / 2));
 8000e3c:	4908      	ldr	r1, [pc, #32]	; (8000e60 <HALL_Init_Electrical_Angle+0xcc>)
 8000e3e:	e7eb      	b.n	8000e18 <HALL_Init_Electrical_Angle+0x84>
        pHandle->SensorIsReliable = false;
 8000e40:	001a      	movs	r2, r3
 8000e42:	2100      	movs	r1, #0
 8000e44:	324c      	adds	r2, #76	; 0x4c
 8000e46:	7011      	strb	r1, [r2, #0]
        break;
 8000e48:	e7e8      	b.n	8000e1c <HALL_Init_Electrical_Angle+0x88>
 8000e4a:	46c0      	nop			; (mov r8, r8)
 8000e4c:	00001555 	.word	0x00001555
 8000e50:	00003fff 	.word	0x00003fff
 8000e54:	00006aaa 	.word	0x00006aaa
 8000e58:	ffff9556 	.word	0xffff9556
 8000e5c:	ffffc001 	.word	0xffffc001
 8000e60:	ffffeaab 	.word	0xffffeaab

08000e64 <HALL_Init>:
{
 8000e64:	b5f0      	push	{r4, r5, r6, r7, lr}
    uint16_t hMinReliableElSpeedUnit = pHandle->_Super.hMinReliableMecSpeedUnit * pHandle->_Super.bElToMecRatio;
 8000e66:	7842      	ldrb	r2, [r0, #1]
    hMaxReliableElSpeedUnit *= 2U;
 8000e68:	8a83      	ldrh	r3, [r0, #20]
{
 8000e6a:	b085      	sub	sp, #20
    hMaxReliableElSpeedUnit *= 2U;
 8000e6c:	4353      	muls	r3, r2
 8000e6e:	005b      	lsls	r3, r3, #1
 8000e70:	b29b      	uxth	r3, r3
    uint16_t hMinReliableElSpeedUnit = pHandle->_Super.hMinReliableMecSpeedUnit * pHandle->_Super.bElToMecRatio;
 8000e72:	8ac1      	ldrh	r1, [r0, #22]
    hMaxReliableElSpeedUnit *= 2U;
 8000e74:	9300      	str	r3, [sp, #0]
    pHandle->OvfFreq = (uint16_t)(pHandle->TIMClockFreq / 65536U);
 8000e76:	0003      	movs	r3, r0
    uint16_t hMinReliableElSpeedUnit = pHandle->_Super.hMinReliableMecSpeedUnit * pHandle->_Super.bElToMecRatio;
 8000e78:	4351      	muls	r1, r2
    pHandle->OvfFreq = (uint16_t)(pHandle->TIMClockFreq / 65536U);
 8000e7a:	6a87      	ldr	r7, [r0, #40]	; 0x28
 8000e7c:	33c6      	adds	r3, #198	; 0xc6
 8000e7e:	0c3e      	lsrs	r6, r7, #16
    uint16_t hMinReliableElSpeedUnit = pHandle->_Super.hMinReliableMecSpeedUnit * pHandle->_Super.bElToMecRatio;
 8000e80:	b289      	uxth	r1, r1
    TIM_TypeDef *TIMx = pHandle->TIMx;
 8000e82:	6ac5      	ldr	r5, [r0, #44]	; 0x2c
{
 8000e84:	0004      	movs	r4, r0
    pHandle->OvfFreq = (uint16_t)(pHandle->TIMClockFreq / 65536U);
 8000e86:	801e      	strh	r6, [r3, #0]
      pHandle->HallTimeout = 150U;
 8000e88:	2096      	movs	r0, #150	; 0x96
    if (0U == hMinReliableElSpeedUnit)
 8000e8a:	2903      	cmp	r1, #3
 8000e8c:	d906      	bls.n	8000e9c <HALL_Init+0x38>
      pHandle->HallTimeout = (1000U * (uint16_t)SPEED_UNIT) / (6U * hMinReliableElSpeedUnit);
 8000e8e:	088b      	lsrs	r3, r1, #2
 8000e90:	2106      	movs	r1, #6
 8000e92:	4839      	ldr	r0, [pc, #228]	; (8000f78 <HALL_Init+0x114>)
 8000e94:	4359      	muls	r1, r3
 8000e96:	f7ff f94b 	bl	8000130 <__udivsi3>
 8000e9a:	b280      	uxth	r0, r0
 8000e9c:	0023      	movs	r3, r4
    pHandle->HALLMaxRatio = (pHandle->HallTimeout * pHandle->OvfFreq) / 1000U ;
 8000e9e:	21fa      	movs	r1, #250	; 0xfa
 8000ea0:	33c4      	adds	r3, #196	; 0xc4
 8000ea2:	8018      	strh	r0, [r3, #0]
 8000ea4:	0089      	lsls	r1, r1, #2
 8000ea6:	4370      	muls	r0, r6
 8000ea8:	f7ff f942 	bl	8000130 <__udivsi3>
 8000eac:	0023      	movs	r3, r4
 8000eae:	33b4      	adds	r3, #180	; 0xb4
 8000eb0:	8018      	strh	r0, [r3, #0]
    pHandle->MaxPeriod = pHandle->HALLMaxRatio * 65536UL;
 8000eb2:	b283      	uxth	r3, r0
 8000eb4:	9302      	str	r3, [sp, #8]
 8000eb6:	0026      	movs	r6, r4
    pHandle->SatSpeed = hMaxReliableElSpeedUnit;
 8000eb8:	0023      	movs	r3, r4
 8000eba:	9a00      	ldr	r2, [sp, #0]
 8000ebc:	33b6      	adds	r3, #182	; 0xb6
    pHandle->MaxPeriod = pHandle->HALLMaxRatio * 65536UL;
 8000ebe:	0400      	lsls	r0, r0, #16
 8000ec0:	36bc      	adds	r6, #188	; 0xbc
 8000ec2:	6030      	str	r0, [r6, #0]
    pHandle->PseudoFreqConv = ((pHandle->TIMClockFreq / 6U) / pHandle->_Super.hMeasurementFrequency)
 8000ec4:	2106      	movs	r1, #6
    pHandle->SatSpeed = hMaxReliableElSpeedUnit;
 8000ec6:	801a      	strh	r2, [r3, #0]
    pHandle->PseudoFreqConv = ((pHandle->TIMClockFreq / 6U) / pHandle->_Super.hMeasurementFrequency)
 8000ec8:	0038      	movs	r0, r7
 8000eca:	f7ff f931 	bl	8000130 <__udivsi3>
 8000ece:	8b63      	ldrh	r3, [r4, #26]
 8000ed0:	0007      	movs	r7, r0
 8000ed2:	9301      	str	r3, [sp, #4]
 8000ed4:	0023      	movs	r3, r4
 8000ed6:	9901      	ldr	r1, [sp, #4]
 8000ed8:	33b8      	adds	r3, #184	; 0xb8
 8000eda:	9303      	str	r3, [sp, #12]
 8000edc:	f7ff f928 	bl	8000130 <__udivsi3>
                              * pHandle->_Super.DPPConvFactor;
 8000ee0:	69e3      	ldr	r3, [r4, #28]
    pHandle->PseudoFreqConv = ((pHandle->TIMClockFreq / 6U) / pHandle->_Super.hMeasurementFrequency)
 8000ee2:	9a03      	ldr	r2, [sp, #12]
                              * pHandle->_Super.DPPConvFactor;
 8000ee4:	4343      	muls	r3, r0
      pHandle->MinPeriod = ((uint32_t)SPEED_UNIT * (pHandle->TIMClockFreq / 6UL));
 8000ee6:	200a      	movs	r0, #10
    pHandle->PseudoFreqConv = ((pHandle->TIMClockFreq / 6U) / pHandle->_Super.hMeasurementFrequency)
 8000ee8:	6013      	str	r3, [r2, #0]
    if (0U == hMaxReliableElSpeedUnit)
 8000eea:	9b00      	ldr	r3, [sp, #0]
      pHandle->MinPeriod = ((uint32_t)SPEED_UNIT * (pHandle->TIMClockFreq / 6UL));
 8000eec:	4378      	muls	r0, r7
    if (0U == hMaxReliableElSpeedUnit)
 8000eee:	2b00      	cmp	r3, #0
 8000ef0:	d002      	beq.n	8000ef8 <HALL_Init+0x94>
      pHandle->MinPeriod = (((uint32_t)SPEED_UNIT * (pHandle->TIMClockFreq / 6UL)) / hMaxReliableElSpeedUnit);
 8000ef2:	0019      	movs	r1, r3
 8000ef4:	f7ff f91c 	bl	8000130 <__udivsi3>
 8000ef8:	0023      	movs	r3, r4
 8000efa:	33c0      	adds	r3, #192	; 0xc0
 8000efc:	6018      	str	r0, [r3, #0]
    pHandle->PWMNbrPSamplingFreq = ((pHandle->_Super.hMeasurementFrequency * pHandle->PWMFreqScaling) /
 8000efe:	7a98      	ldrb	r0, [r3, #10]
 8000f00:	9b01      	ldr	r3, [sp, #4]
                                    pHandle->SpeedSamplingFreqHz) - 1U;
 8000f02:	8ca1      	ldrh	r1, [r4, #36]	; 0x24
    pHandle->PWMNbrPSamplingFreq = ((pHandle->_Super.hMeasurementFrequency * pHandle->PWMFreqScaling) /
 8000f04:	4343      	muls	r3, r0
 8000f06:	0018      	movs	r0, r3
 8000f08:	f7ff f99c 	bl	8000244 <__divsi3>
 8000f0c:	0023      	movs	r3, r4
                                    pHandle->SpeedSamplingFreqHz) - 1U;
 8000f0e:	3801      	subs	r0, #1
    pHandle->PWMNbrPSamplingFreq = ((pHandle->_Super.hMeasurementFrequency * pHandle->PWMFreqScaling) /
 8000f10:	33c8      	adds	r3, #200	; 0xc8
    pHandle->SensorIsReliable = true;
 8000f12:	0022      	movs	r2, r4
    pHandle->PWMNbrPSamplingFreq = ((pHandle->_Super.hMeasurementFrequency * pHandle->PWMFreqScaling) /
 8000f14:	8018      	strh	r0, [r3, #0]
    pHandle->SensorIsReliable = true;
 8000f16:	2301      	movs	r3, #1
  */
__STATIC_INLINE void LL_TIM_IC_SetFilter(TIM_TypeDef *TIMx, uint32_t Channel, uint32_t ICFilter)
{
  uint8_t iChannel = TIM_GET_CHANNEL_INDEX(Channel);
  __IO uint32_t *pReg = (__IO uint32_t *)((uint32_t)((uint32_t)(&TIMx->CCMR1) + OFFSET_TAB_CCMRx[iChannel]));
  MODIFY_REG(*pReg, ((TIM_CCMR1_IC1F) << SHIFT_TAB_ICxx[iChannel]), (ICFilter >> 16U) << SHIFT_TAB_ICxx[iChannel]);
 8000f18:	20f0      	movs	r0, #240	; 0xf0
 8000f1a:	324c      	adds	r2, #76	; 0x4c
 8000f1c:	7013      	strb	r3, [r2, #0]
    LL_TIM_IC_SetFilter(TIMx, LL_TIM_CHANNEL_CH1, (uint32_t)(pHandle->ICx_Filter) << 20U);
 8000f1e:	6ca2      	ldr	r2, [r4, #72]	; 0x48
 8000f20:	69a9      	ldr	r1, [r5, #24]
 8000f22:	0512      	lsls	r2, r2, #20
 8000f24:	4381      	bics	r1, r0
 8000f26:	0c12      	lsrs	r2, r2, #16
 8000f28:	430a      	orrs	r2, r1
    WRITE_REG(TIMx->SR, 0);
 8000f2a:	2100      	movs	r1, #0
 8000f2c:	61aa      	str	r2, [r5, #24]
  WRITE_REG(TIMx->PSC, Prescaler);
 8000f2e:	9a02      	ldr	r2, [sp, #8]
  MODIFY_REG(TIMx->CR1, TIM_CR1_URS, UpdateSource);
 8000f30:	38ec      	subs	r0, #236	; 0xec
  WRITE_REG(TIMx->PSC, Prescaler);
 8000f32:	62aa      	str	r2, [r5, #40]	; 0x28
  * @param  TIMx Timer instance
  * @retval None
  */
__STATIC_INLINE void LL_TIM_GenerateEvent_UPDATE(TIM_TypeDef *TIMx)
{
  SET_BIT(TIMx->EGR, TIM_EGR_UG);
 8000f34:	696a      	ldr	r2, [r5, #20]
 8000f36:	431a      	orrs	r2, r3
 8000f38:	616a      	str	r2, [r5, #20]
 8000f3a:	6129      	str	r1, [r5, #16]
  MODIFY_REG(TIMx->CR1, TIM_CR1_URS, UpdateSource);
 8000f3c:	682a      	ldr	r2, [r5, #0]
 8000f3e:	4302      	orrs	r2, r0
 8000f40:	602a      	str	r2, [r5, #0]
  SET_BIT(TIMx->DIER, TIM_DIER_CC1IE);
 8000f42:	2202      	movs	r2, #2
 8000f44:	68e8      	ldr	r0, [r5, #12]
 8000f46:	4302      	orrs	r2, r0
 8000f48:	60ea      	str	r2, [r5, #12]
  SET_BIT(TIMx->DIER, TIM_DIER_UIE);
 8000f4a:	68ea      	ldr	r2, [r5, #12]
 8000f4c:	431a      	orrs	r2, r3
 8000f4e:	60ea      	str	r2, [r5, #12]
  WRITE_REG(TIMx->CNT, Counter);
 8000f50:	6269      	str	r1, [r5, #36]	; 0x24
  SET_BIT(TIMx->CCER, Channels);
 8000f52:	6a2a      	ldr	r2, [r5, #32]
 8000f54:	431a      	orrs	r2, r3
 8000f56:	622a      	str	r2, [r5, #32]
  SET_BIT(TIMx->CR1, TIM_CR1_CEN);
 8000f58:	682a      	ldr	r2, [r5, #0]
 8000f5a:	4313      	orrs	r3, r2
 8000f5c:	602b      	str	r3, [r5, #0]
    bSpeedBufferSize = pHandle->SpeedBufferSize;
 8000f5e:	1de3      	adds	r3, r4, #7
 8000f60:	7fdb      	ldrb	r3, [r3, #31]
 8000f62:	009b      	lsls	r3, r3, #2
 8000f64:	18e3      	adds	r3, r4, r3
    for (bIndex = 0u; bIndex < bSpeedBufferSize; bIndex++)
 8000f66:	429c      	cmp	r4, r3
 8000f68:	d101      	bne.n	8000f6e <HALL_Init+0x10a>
}
 8000f6a:	b005      	add	sp, #20
 8000f6c:	bdf0      	pop	{r4, r5, r6, r7, pc}
      pHandle->SensorPeriod[bIndex]  = (int32_t)pHandle->MaxPeriod;
 8000f6e:	6832      	ldr	r2, [r6, #0]
 8000f70:	3404      	adds	r4, #4
 8000f72:	6522      	str	r2, [r4, #80]	; 0x50
    for (bIndex = 0u; bIndex < bSpeedBufferSize; bIndex++)
 8000f74:	e7f7      	b.n	8000f66 <HALL_Init+0x102>
 8000f76:	46c0      	nop			; (mov r8, r8)
 8000f78:	00002710 	.word	0x00002710

08000f7c <HALL_Clear>:
{
 8000f7c:	b570      	push	{r4, r5, r6, lr}
  CLEAR_BIT(TIMx->DIER, TIM_DIER_CC1IE);
 8000f7e:	2402      	movs	r4, #2
    TIM_TypeDef *TIMx = pHandle->TIMx;
 8000f80:	6ac2      	ldr	r2, [r0, #44]	; 0x2c
    pHandle->RatioDec = false;
 8000f82:	0001      	movs	r1, r0
 8000f84:	68d3      	ldr	r3, [r2, #12]
    pHandle->SensorIsReliable = true;
 8000f86:	0005      	movs	r5, r0
 8000f88:	43a3      	bics	r3, r4
 8000f8a:	60d3      	str	r3, [r2, #12]
    pHandle->RatioDec = false;
 8000f8c:	2300      	movs	r3, #0
 8000f8e:	314d      	adds	r1, #77	; 0x4d
 8000f90:	700b      	strb	r3, [r1, #0]
    pHandle->RatioInc = false;
 8000f92:	704b      	strb	r3, [r1, #1]
    pHandle->SensorIsReliable = true;
 8000f94:	2101      	movs	r1, #1
 8000f96:	354c      	adds	r5, #76	; 0x4c
 8000f98:	7029      	strb	r1, [r5, #0]
    pHandle->_Super.hMecAccelUnitP = 0;
 8000f9a:	8243      	strh	r3, [r0, #18]
    pHandle->FirstCapt = 0U;
 8000f9c:	70eb      	strb	r3, [r5, #3]
    pHandle->BufferFilled = 0U;
 8000f9e:	712b      	strb	r3, [r5, #4]
    pHandle->OVFCounter = 0U;
 8000fa0:	716b      	strb	r3, [r5, #5]
    pHandle->CompSpeed = 0;
 8000fa2:	3566      	adds	r5, #102	; 0x66
 8000fa4:	802b      	strh	r3, [r5, #0]
    pHandle->Direction = POSITIVE;
 8000fa6:	3d0c      	subs	r5, #12
 8000fa8:	7029      	strb	r1, [r5, #0]
    pHandle->SpeedFIFOIdx = 0U;
 8000faa:	3d0a      	subs	r5, #10
 8000fac:	702b      	strb	r3, [r5, #0]
    pHandle->_Super.bSpeedErrorNumber = 0;
 8000fae:	7003      	strb	r3, [r0, #0]
    LL_TIM_SetPrescaler(TIMx, pHandle->HALLMaxRatio);
 8000fb0:	3518      	adds	r5, #24
 8000fb2:	882d      	ldrh	r5, [r5, #0]
  WRITE_REG(TIMx->PSC, Prescaler);
 8000fb4:	6295      	str	r5, [r2, #40]	; 0x28
  WRITE_REG(TIMx->CNT, Counter);
 8000fb6:	6253      	str	r3, [r2, #36]	; 0x24
  SET_BIT(TIMx->CR1, TIM_CR1_CEN);
 8000fb8:	6813      	ldr	r3, [r2, #0]
 8000fba:	4319      	orrs	r1, r3
 8000fbc:	6011      	str	r1, [r2, #0]
  SET_BIT(TIMx->DIER, TIM_DIER_CC1IE);
 8000fbe:	68d3      	ldr	r3, [r2, #12]
 8000fc0:	431c      	orrs	r4, r3
 8000fc2:	60d4      	str	r4, [r2, #12]
    HALL_Init_Electrical_Angle(pHandle);
 8000fc4:	f7ff fee6 	bl	8000d94 <HALL_Init_Electrical_Angle>
}
 8000fc8:	bd70      	pop	{r4, r5, r6, pc}
	...

08000fcc <HALL_CalcElAngle>:
{
 8000fcc:	b5f7      	push	{r0, r1, r2, r4, r5, r6, r7, lr}
    if (pHandle->_Super.hElSpeedDpp != HALL_MAX_PSEUDO_SPEED)
 8000fce:	4a1d      	ldr	r2, [pc, #116]	; (8001044 <HALL_CalcElAngle+0x78>)
 8000fd0:	230e      	movs	r3, #14
 8000fd2:	5ec7      	ldrsh	r7, [r0, r3]
        pHandle->_Super.hElAngle += pHandle->_Super.hElSpeedDpp + pHandle->CompSpeed - (pHandle->IncrementElAngle - S16_60_PHASE_SHIFT) - 1;
 8000fd4:	8883      	ldrh	r3, [r0, #4]
    if (pHandle->_Super.hElSpeedDpp != HALL_MAX_PSEUDO_SPEED)
 8000fd6:	4297      	cmp	r7, r2
 8000fd8:	d02d      	beq.n	8001036 <HALL_CalcElAngle+0x6a>
      pHandle->IncrementElAngle += pHandle->_Super.hElSpeedDpp + pHandle->CompSpeed;
 8000fda:	0002      	movs	r2, r0
 8000fdc:	0004      	movs	r4, r0
 8000fde:	32b2      	adds	r2, #178	; 0xb2
 8000fe0:	8812      	ldrh	r2, [r2, #0]
 8000fe2:	34b0      	adds	r4, #176	; 0xb0
 8000fe4:	b2be      	uxth	r6, r7
 8000fe6:	8825      	ldrh	r5, [r4, #0]
 8000fe8:	18b2      	adds	r2, r6, r2
 8000fea:	b292      	uxth	r2, r2
 8000fec:	18a9      	adds	r1, r5, r2
 8000fee:	9201      	str	r2, [sp, #4]
      pHandle->PrevRotorFreq = pHandle->_Super.hElSpeedDpp;
 8000ff0:	22a4      	movs	r2, #164	; 0xa4
 8000ff2:	4694      	mov	ip, r2
 8000ff4:	4484      	add	ip, r0
 8000ff6:	4662      	mov	r2, ip
      pHandle->IncrementElAngle += pHandle->_Super.hElSpeedDpp + pHandle->CompSpeed;
 8000ff8:	b209      	sxth	r1, r1
 8000ffa:	8021      	strh	r1, [r4, #0]
      pHandle->PrevRotorFreq = pHandle->_Super.hElSpeedDpp;
 8000ffc:	8017      	strh	r7, [r2, #0]
      if (pHandle->IncrementElAngle >= S16_60_PHASE_SHIFT)
 8000ffe:	4f12      	ldr	r7, [pc, #72]	; (8001048 <HALL_CalcElAngle+0x7c>)
 8001000:	42b9      	cmp	r1, r7
 8001002:	dd07      	ble.n	8001014 <HALL_CalcElAngle+0x48>
        pHandle->_Super.hElAngle += pHandle->_Super.hElSpeedDpp + pHandle->CompSpeed - (pHandle->IncrementElAngle - S16_60_PHASE_SHIFT) - 1;
 8001004:	19db      	adds	r3, r3, r7
 8001006:	1b5b      	subs	r3, r3, r5
 8001008:	8083      	strh	r3, [r0, #4]
        pHandle->IncrementElAngle = S16_60_PHASE_SHIFT;
 800100a:	4b10      	ldr	r3, [pc, #64]	; (800104c <HALL_CalcElAngle+0x80>)
        pHandle->IncrementElAngle = -S16_60_PHASE_SHIFT;
 800100c:	8023      	strh	r3, [r4, #0]
  return (retValue);
 800100e:	2304      	movs	r3, #4
 8001010:	5ec0      	ldrsh	r0, [r0, r3]
}
 8001012:	bdfe      	pop	{r1, r2, r3, r4, r5, r6, r7, pc}
      else if (pHandle->IncrementElAngle <= -S16_60_PHASE_SHIFT)
 8001014:	4f0e      	ldr	r7, [pc, #56]	; (8001050 <HALL_CalcElAngle+0x84>)
 8001016:	42b9      	cmp	r1, r7
 8001018:	da04      	bge.n	8001024 <HALL_CalcElAngle+0x58>
        pHandle->_Super.hElAngle += pHandle->_Super.hElSpeedDpp + pHandle->CompSpeed - (pHandle->IncrementElAngle + S16_60_PHASE_SHIFT) + 1;
 800101a:	19db      	adds	r3, r3, r7
 800101c:	1b5b      	subs	r3, r3, r5
 800101e:	8083      	strh	r3, [r0, #4]
        pHandle->IncrementElAngle = -S16_60_PHASE_SHIFT;
 8001020:	4b0c      	ldr	r3, [pc, #48]	; (8001054 <HALL_CalcElAngle+0x88>)
 8001022:	e7f3      	b.n	800100c <HALL_CalcElAngle+0x40>
        pHandle->MeasuredElAngle += pHandle->_Super.hElSpeedDpp;
 8001024:	0004      	movs	r4, r0
 8001026:	34ae      	adds	r4, #174	; 0xae
 8001028:	8821      	ldrh	r1, [r4, #0]
        pHandle->_Super.hElAngle += pHandle->_Super.hElSpeedDpp + pHandle->CompSpeed;
 800102a:	9a01      	ldr	r2, [sp, #4]
        pHandle->MeasuredElAngle += pHandle->_Super.hElSpeedDpp;
 800102c:	1871      	adds	r1, r6, r1
        pHandle->_Super.hElAngle += pHandle->_Super.hElSpeedDpp + pHandle->CompSpeed;
 800102e:	18d2      	adds	r2, r2, r3
        pHandle->MeasuredElAngle += pHandle->_Super.hElSpeedDpp;
 8001030:	8021      	strh	r1, [r4, #0]
        pHandle->_Super.hElAngle += pHandle->_Super.hElSpeedDpp + pHandle->CompSpeed;
 8001032:	8082      	strh	r2, [r0, #4]
 8001034:	e7eb      	b.n	800100e <HALL_CalcElAngle+0x42>
      pHandle->_Super.hElAngle += pHandle->PrevRotorFreq;
 8001036:	0002      	movs	r2, r0
 8001038:	32a4      	adds	r2, #164	; 0xa4
 800103a:	8812      	ldrh	r2, [r2, #0]
 800103c:	189b      	adds	r3, r3, r2
 800103e:	8083      	strh	r3, [r0, #4]
 8001040:	e7e5      	b.n	800100e <HALL_CalcElAngle+0x42>
 8001042:	46c0      	nop			; (mov r8, r8)
 8001044:	00007fff 	.word	0x00007fff
 8001048:	00002aa9 	.word	0x00002aa9
 800104c:	00002aaa 	.word	0x00002aaa
 8001050:	ffffd557 	.word	0xffffd557
 8001054:	ffffd556 	.word	0xffffd556

08001058 <HALL_CalcAvrgMecSpeedUnit>:
    if (pHandle->SensorIsReliable)
 8001058:	0002      	movs	r2, r0
{
 800105a:	b570      	push	{r4, r5, r6, lr}
    if (pHandle->SensorIsReliable)
 800105c:	324c      	adds	r2, #76	; 0x4c
{
 800105e:	0004      	movs	r4, r0
    TIM_TypeDef *TIMx = pHandle->TIMx;
 8001060:	6ac3      	ldr	r3, [r0, #44]	; 0x2c
    if (pHandle->SensorIsReliable)
 8001062:	7810      	ldrb	r0, [r2, #0]
{
 8001064:	000e      	movs	r6, r1
    if (pHandle->SensorIsReliable)
 8001066:	2800      	cmp	r0, #0
 8001068:	d03f      	beq.n	80010ea <HALL_CalcAvrgMecSpeedUnit+0x92>
      if (LL_TIM_GetPrescaler(TIMx) >= pHandle->HALLMaxRatio)
 800106a:	3268      	adds	r2, #104	; 0x68
  return (uint32_t)(READ_REG(TIMx->PSC));
 800106c:	6a9b      	ldr	r3, [r3, #40]	; 0x28
 800106e:	8812      	ldrh	r2, [r2, #0]
 8001070:	429a      	cmp	r2, r3
 8001072:	d80a      	bhi.n	800108a <HALL_CalcAvrgMecSpeedUnit+0x32>
        pHandle->_Super.hElSpeedDpp = 0;
 8001074:	2500      	movs	r5, #0
 8001076:	81e5      	strh	r5, [r4, #14]
      bReliability = SPD_IsMecSpeedReliable(&pHandle->_Super, hMecSpeedUnit);
 8001078:	0031      	movs	r1, r6
 800107a:	0020      	movs	r0, r4
        *hMecSpeedUnit = 0;
 800107c:	8035      	strh	r5, [r6, #0]
      bReliability = SPD_IsMecSpeedReliable(&pHandle->_Super, hMecSpeedUnit);
 800107e:	f005 f966 	bl	800634e <SPD_IsMecSpeedReliable>
    pHandle->_Super.hAvrMecSpeedUnit = *hMecSpeedUnit;
 8001082:	2200      	movs	r2, #0
 8001084:	5eb3      	ldrsh	r3, [r6, r2]
 8001086:	81a3      	strh	r3, [r4, #12]
}
 8001088:	bd70      	pop	{r4, r5, r6, pc}
        pHandle->_Super.hElSpeedDpp =  pHandle->AvrElSpeedDpp;
 800108a:	0023      	movs	r3, r4
 800108c:	33a8      	adds	r3, #168	; 0xa8
 800108e:	2500      	movs	r5, #0
 8001090:	5f5d      	ldrsh	r5, [r3, r5]
 8001092:	81e5      	strh	r5, [r4, #14]
        if (0 ==  pHandle->AvrElSpeedDpp)
 8001094:	2d00      	cmp	r5, #0
 8001096:	d0ef      	beq.n	8001078 <HALL_CalcAvrgMecSpeedUnit+0x20>
          if (pHandle->AvrElSpeedDpp != HALL_MAX_PSEUDO_SPEED)
 8001098:	4b16      	ldr	r3, [pc, #88]	; (80010f4 <HALL_CalcAvrgMecSpeedUnit+0x9c>)
 800109a:	429d      	cmp	r5, r3
 800109c:	d020      	beq.n	80010e0 <HALL_CalcAvrgMecSpeedUnit+0x88>
            if (true == pHandle->HallMtpa)
 800109e:	0023      	movs	r3, r4
 80010a0:	2000      	movs	r0, #0
 80010a2:	33cb      	adds	r3, #203	; 0xcb
 80010a4:	781b      	ldrb	r3, [r3, #0]
 80010a6:	4283      	cmp	r3, r0
 80010a8:	d10c      	bne.n	80010c4 <HALL_CalcAvrgMecSpeedUnit+0x6c>
              pHandle->DeltaAngle = pHandle->MeasuredElAngle - pHandle->_Super.hElAngle;
 80010aa:	0023      	movs	r3, r4
 80010ac:	33ae      	adds	r3, #174	; 0xae
 80010ae:	8818      	ldrh	r0, [r3, #0]
 80010b0:	88a3      	ldrh	r3, [r4, #4]
 80010b2:	1ac0      	subs	r0, r0, r3
 80010b4:	0023      	movs	r3, r4
 80010b6:	b200      	sxth	r0, r0
 80010b8:	33ac      	adds	r3, #172	; 0xac
              pHandle->CompSpeed = (int16_t)((int32_t)(pHandle->DeltaAngle) / (int32_t)(pHandle->PWMNbrPSamplingFreq));
 80010ba:	8b99      	ldrh	r1, [r3, #28]
              pHandle->DeltaAngle = pHandle->MeasuredElAngle - pHandle->_Super.hElAngle;
 80010bc:	8018      	strh	r0, [r3, #0]
              pHandle->CompSpeed = (int16_t)((int32_t)(pHandle->DeltaAngle) / (int32_t)(pHandle->PWMNbrPSamplingFreq));
 80010be:	f7ff f8c1 	bl	8000244 <__divsi3>
 80010c2:	b200      	sxth	r0, r0
              pHandle->CompSpeed = 0;
 80010c4:	0023      	movs	r3, r4
 80010c6:	33b2      	adds	r3, #178	; 0xb2
 80010c8:	8018      	strh	r0, [r3, #0]
                        * (int32_t)SPEED_UNIT )
 80010ca:	200a      	movs	r0, #10
            *hMecSpeedUnit = (int16_t)((pHandle->AvrElSpeedDpp * (int32_t)pHandle->_Super.hMeasurementFrequency
 80010cc:	8b63      	ldrh	r3, [r4, #26]
                        / ((int32_t)(pHandle->_Super.DPPConvFactor) * (int32_t)(pHandle->_Super.bElToMecRatio)) );
 80010ce:	69e1      	ldr	r1, [r4, #28]
            *hMecSpeedUnit = (int16_t)((pHandle->AvrElSpeedDpp * (int32_t)pHandle->_Super.hMeasurementFrequency
 80010d0:	436b      	muls	r3, r5
                        * (int32_t)SPEED_UNIT )
 80010d2:	4358      	muls	r0, r3
                        / ((int32_t)(pHandle->_Super.DPPConvFactor) * (int32_t)(pHandle->_Super.bElToMecRatio)) );
 80010d4:	7863      	ldrb	r3, [r4, #1]
 80010d6:	4359      	muls	r1, r3
 80010d8:	f7ff f8b4 	bl	8000244 <__divsi3>
            *hMecSpeedUnit = (int16_t)((pHandle->AvrElSpeedDpp * (int32_t)pHandle->_Super.hMeasurementFrequency
 80010dc:	b205      	sxth	r5, r0
 80010de:	e7cb      	b.n	8001078 <HALL_CalcAvrgMecSpeedUnit+0x20>
            *hMecSpeedUnit = (int16_t)pHandle->SatSpeed;
 80010e0:	0023      	movs	r3, r4
 80010e2:	33b6      	adds	r3, #182	; 0xb6
 80010e4:	2500      	movs	r5, #0
 80010e6:	5f5d      	ldrsh	r5, [r3, r5]
 80010e8:	e7c6      	b.n	8001078 <HALL_CalcAvrgMecSpeedUnit+0x20>
      pHandle->_Super.bSpeedErrorNumber = pHandle->_Super.bMaximumSpeedErrorsNumber;
 80010ea:	78e3      	ldrb	r3, [r4, #3]
      pHandle->_Super.hElSpeedDpp = 0;
 80010ec:	81e0      	strh	r0, [r4, #14]
      pHandle->_Super.bSpeedErrorNumber = pHandle->_Super.bMaximumSpeedErrorsNumber;
 80010ee:	7023      	strb	r3, [r4, #0]
      *hMecSpeedUnit = 0;
 80010f0:	8008      	strh	r0, [r1, #0]
 80010f2:	e7c6      	b.n	8001082 <HALL_CalcAvrgMecSpeedUnit+0x2a>
 80010f4:	00007fff 	.word	0x00007fff

080010f8 <HALL_TIMx_CC_IRQHandler>:
  if (pHandle->SensorIsReliable)
 80010f8:	0002      	movs	r2, r0
{
 80010fa:	b5f0      	push	{r4, r5, r6, r7, lr}
  if (pHandle->SensorIsReliable)
 80010fc:	324c      	adds	r2, #76	; 0x4c
 80010fe:	7812      	ldrb	r2, [r2, #0]
{
 8001100:	0003      	movs	r3, r0
 8001102:	b085      	sub	sp, #20
  if (pHandle->SensorIsReliable)
 8001104:	2a00      	cmp	r2, #0
 8001106:	d100      	bne.n	800110a <HALL_TIMx_CC_IRQHandler+0x12>
 8001108:	e07e      	b.n	8001208 <HALL_TIMx_CC_IRQHandler+0x110>
    PrevDirection = pHandle->Direction;
 800110a:	0001      	movs	r1, r0
    bPrevHallState = pHandle->HallState;
 800110c:	0002      	movs	r2, r0
    PrevDirection = pHandle->Direction;
 800110e:	31a6      	adds	r1, #166	; 0xa6
 8001110:	7809      	ldrb	r1, [r1, #0]
    bPrevHallState = pHandle->HallState;
 8001112:	32aa      	adds	r2, #170	; 0xaa
    PrevDirection = pHandle->Direction;
 8001114:	b249      	sxtb	r1, r1
    bPrevHallState = pHandle->HallState;
 8001116:	7812      	ldrb	r2, [r2, #0]
                                      | (LL_GPIO_IsInputPinSet(pHandle->H2Port, pHandle->H2Pin) << 1U)
 8001118:	6b87      	ldr	r7, [r0, #56]	; 0x38
    PrevDirection = pHandle->Direction;
 800111a:	9102      	str	r1, [sp, #8]
      pHandle->HallState  = (uint8_t)((LL_GPIO_IsInputPinSet(pHandle->H3Port, pHandle->H3Pin) << 2U)
 800111c:	6c06      	ldr	r6, [r0, #64]	; 0x40
                                      | (LL_GPIO_IsInputPinSet(pHandle->H2Port, pHandle->H2Pin) << 1U)
 800111e:	6bc1      	ldr	r1, [r0, #60]	; 0x3c
      pHandle->HallState  = (uint8_t)((LL_GPIO_IsInputPinSet(pHandle->H3Port, pHandle->H3Pin) << 2U)
 8001120:	6c45      	ldr	r5, [r0, #68]	; 0x44
                                      | LL_GPIO_IsInputPinSet(pHandle->H1Port, pHandle->H1Pin));
 8001122:	6b00      	ldr	r0, [r0, #48]	; 0x30
 8001124:	6b5c      	ldr	r4, [r3, #52]	; 0x34
 8001126:	9001      	str	r0, [sp, #4]
    if (DEGREES_120 == pHandle->SensorPlacement)
 8001128:	1c58      	adds	r0, r3, #1
 800112a:	7fc0      	ldrb	r0, [r0, #31]
 800112c:	2800      	cmp	r0, #0
 800112e:	d123      	bne.n	8001178 <HALL_TIMx_CC_IRQHandler+0x80>
 8001130:	6936      	ldr	r6, [r6, #16]
 8001132:	9801      	ldr	r0, [sp, #4]
 8001134:	693f      	ldr	r7, [r7, #16]
 8001136:	402e      	ands	r6, r5
 8001138:	400f      	ands	r7, r1
 800113a:	6900      	ldr	r0, [r0, #16]
 800113c:	1a7f      	subs	r7, r7, r1
 800113e:	1b76      	subs	r6, r6, r5
 8001140:	4275      	negs	r5, r6
 8001142:	416e      	adcs	r6, r5
 8001144:	4279      	negs	r1, r7
 8001146:	414f      	adcs	r7, r1
 8001148:	4020      	ands	r0, r4
 800114a:	1b00      	subs	r0, r0, r4
 800114c:	4241      	negs	r1, r0
 800114e:	4148      	adcs	r0, r1
      pHandle->HallState  = (uint8_t)((LL_GPIO_IsInputPinSet(pHandle->H3Port, pHandle->H3Pin) << 2U)
 8001150:	00b6      	lsls	r6, r6, #2
                                      | (LL_GPIO_IsInputPinSet(pHandle->H2Port, pHandle->H2Pin) << 1U)
 8001152:	007f      	lsls	r7, r7, #1
 8001154:	4337      	orrs	r7, r6
      pHandle->HallState  = (uint8_t)((LL_GPIO_IsInputPinSet(pHandle->H3Port, pHandle->H3Pin) << 2U)
 8001156:	4338      	orrs	r0, r7
 8001158:	0019      	movs	r1, r3
 800115a:	001d      	movs	r5, r3
 800115c:	31aa      	adds	r1, #170	; 0xaa
  TIM_TypeDef *TIMx = pHandle->TIMx;
 800115e:	6adc      	ldr	r4, [r3, #44]	; 0x2c
 8001160:	7008      	strb	r0, [r1, #0]
    switch (pHandle->HallState)
 8001162:	3801      	subs	r0, #1
 8001164:	35a6      	adds	r5, #166	; 0xa6
 8001166:	3104      	adds	r1, #4
 8001168:	2805      	cmp	r0, #5
 800116a:	d900      	bls.n	800116e <HALL_TIMx_CC_IRQHandler+0x76>
 800116c:	e081      	b.n	8001272 <HALL_TIMx_CC_IRQHandler+0x17a>
 800116e:	f7fe ffd5 	bl	800011c <__gnu_thumb1_case_uqi>
 8001172:	624e      	.short	0x624e
 8001174:	6d1a7859 	.word	0x6d1a7859
 8001178:	9801      	ldr	r0, [sp, #4]
 800117a:	693f      	ldr	r7, [r7, #16]
 800117c:	6936      	ldr	r6, [r6, #16]
 800117e:	6900      	ldr	r0, [r0, #16]
 8001180:	400f      	ands	r7, r1
 8001182:	402e      	ands	r6, r5
 8001184:	4020      	ands	r0, r4
 8001186:	1a7f      	subs	r7, r7, r1
 8001188:	1b76      	subs	r6, r6, r5
 800118a:	4279      	negs	r1, r7
 800118c:	414f      	adcs	r7, r1
 800118e:	4275      	negs	r5, r6
 8001190:	416e      	adcs	r6, r5
 8001192:	1b00      	subs	r0, r0, r4
 8001194:	4244      	negs	r4, r0
 8001196:	4160      	adcs	r0, r4
      pHandle->HallState  = (uint8_t)(((LL_GPIO_IsInputPinSet(pHandle->H2Port, pHandle->H2Pin) ^ 1U) << 2U)
 8001198:	2104      	movs	r1, #4
                                      | (LL_GPIO_IsInputPinSet(pHandle->H3Port, pHandle->H3Pin) << 1U)
 800119a:	0076      	lsls	r6, r6, #1
      pHandle->HallState  = (uint8_t)(((LL_GPIO_IsInputPinSet(pHandle->H2Port, pHandle->H2Pin) ^ 1U) << 2U)
 800119c:	00bf      	lsls	r7, r7, #2
 800119e:	4330      	orrs	r0, r6
 80011a0:	4079      	eors	r1, r7
 80011a2:	4308      	orrs	r0, r1
 80011a4:	e7d8      	b.n	8001158 <HALL_TIMx_CC_IRQHandler+0x60>
        if (STATE_4 == bPrevHallState)
 80011a6:	2a04      	cmp	r2, #4
 80011a8:	d103      	bne.n	80011b2 <HALL_TIMx_CC_IRQHandler+0xba>
          pHandle->Direction = POSITIVE;
 80011aa:	3a03      	subs	r2, #3
          pHandle->Direction = NEGATIVE;
 80011ac:	702a      	strb	r2, [r5, #0]
          pHandle->MeasuredElAngle = (int16_t)(pHandle->PhaseShift);
 80011ae:	8c5a      	ldrh	r2, [r3, #34]	; 0x22
 80011b0:	e006      	b.n	80011c0 <HALL_TIMx_CC_IRQHandler+0xc8>
        else if (STATE_1 == bPrevHallState)
 80011b2:	2a01      	cmp	r2, #1
 80011b4:	d105      	bne.n	80011c2 <HALL_TIMx_CC_IRQHandler+0xca>
          pHandle->Direction = NEGATIVE;
 80011b6:	32fe      	adds	r2, #254	; 0xfe
          pHandle->Direction = POSITIVE;
 80011b8:	702a      	strb	r2, [r5, #0]
          pHandle->MeasuredElAngle = pHandle->PhaseShift + S16_60_PHASE_SHIFT;
 80011ba:	8c5a      	ldrh	r2, [r3, #34]	; 0x22
 80011bc:	487a      	ldr	r0, [pc, #488]	; (80013a8 <HALL_TIMx_CC_IRQHandler+0x2b0>)
          pHandle->MeasuredElAngle = (int16_t)(pHandle->PhaseShift - S16_60_PHASE_SHIFT);
 80011be:	1812      	adds	r2, r2, r0
          pHandle->MeasuredElAngle = (int16_t)(pHandle->PhaseShift);
 80011c0:	800a      	strh	r2, [r1, #0]
    if (pHandle->Direction != PrevDirection)
 80011c2:	2200      	movs	r2, #0
 80011c4:	9802      	ldr	r0, [sp, #8]
 80011c6:	56aa      	ldrsb	r2, [r5, r2]
 80011c8:	9201      	str	r2, [sp, #4]
 80011ca:	4282      	cmp	r2, r0
 80011cc:	d005      	beq.n	80011da <HALL_TIMx_CC_IRQHandler+0xe2>
      pHandle->BufferFilled = 0U ;
 80011ce:	001a      	movs	r2, r3
 80011d0:	2000      	movs	r0, #0
 80011d2:	3250      	adds	r2, #80	; 0x50
 80011d4:	7010      	strb	r0, [r2, #0]
      pHandle->SpeedFIFOIdx = 0U;
 80011d6:	324c      	adds	r2, #76	; 0x4c
 80011d8:	7010      	strb	r0, [r2, #0]
      pHandle->_Super.hElAngle = pHandle->MeasuredElAngle;
 80011da:	2200      	movs	r2, #0
 80011dc:	5e89      	ldrsh	r1, [r1, r2]
    if (true == pHandle->HallMtpa)
 80011de:	001a      	movs	r2, r3
 80011e0:	32cb      	adds	r2, #203	; 0xcb
 80011e2:	7812      	ldrb	r2, [r2, #0]
 80011e4:	2a00      	cmp	r2, #0
 80011e6:	d000      	beq.n	80011ea <HALL_TIMx_CC_IRQHandler+0xf2>
      pHandle->_Super.hElAngle = pHandle->MeasuredElAngle;
 80011e8:	8099      	strh	r1, [r3, #4]
    pHandle->IncrementElAngle = pHandle->_Super.hElAngle - pHandle->MeasuredElAngle;
 80011ea:	889a      	ldrh	r2, [r3, #4]
 80011ec:	1a52      	subs	r2, r2, r1
 80011ee:	0019      	movs	r1, r3
 80011f0:	31b0      	adds	r1, #176	; 0xb0
 80011f2:	800a      	strh	r2, [r1, #0]
    if (0U == pHandle->FirstCapt)
 80011f4:	001a      	movs	r2, r3
 80011f6:	324f      	adds	r2, #79	; 0x4f
 80011f8:	7811      	ldrb	r1, [r2, #0]
 80011fa:	2900      	cmp	r1, #0
 80011fc:	d13e      	bne.n	800127c <HALL_TIMx_CC_IRQHandler+0x184>
      pHandle->FirstCapt++;
 80011fe:	7813      	ldrb	r3, [r2, #0]
 8001200:	3301      	adds	r3, #1
 8001202:	b2db      	uxtb	r3, r3
 8001204:	7013      	strb	r3, [r2, #0]
  return (uint32_t)(READ_REG(TIMx->CCR1));
 8001206:	6b63      	ldr	r3, [r4, #52]	; 0x34
}
 8001208:	2000      	movs	r0, #0
 800120a:	b005      	add	sp, #20
 800120c:	bdf0      	pop	{r4, r5, r6, r7, pc}
        if (STATE_5 == bPrevHallState)
 800120e:	2a05      	cmp	r2, #5
 8001210:	d101      	bne.n	8001216 <HALL_TIMx_CC_IRQHandler+0x11e>
          pHandle->Direction = POSITIVE;
 8001212:	3a04      	subs	r2, #4
 8001214:	e7d0      	b.n	80011b8 <HALL_TIMx_CC_IRQHandler+0xc0>
        else if (STATE_3 == bPrevHallState)
 8001216:	2a03      	cmp	r2, #3
 8001218:	d1d3      	bne.n	80011c2 <HALL_TIMx_CC_IRQHandler+0xca>
          pHandle->Direction = NEGATIVE;
 800121a:	32fc      	adds	r2, #252	; 0xfc
          pHandle->Direction = POSITIVE;
 800121c:	702a      	strb	r2, [r5, #0]
          pHandle->MeasuredElAngle = (int16_t)(pHandle->PhaseShift + S16_120_PHASE_SHIFT);
 800121e:	8c5a      	ldrh	r2, [r3, #34]	; 0x22
 8001220:	4862      	ldr	r0, [pc, #392]	; (80013ac <HALL_TIMx_CC_IRQHandler+0x2b4>)
 8001222:	e7cc      	b.n	80011be <HALL_TIMx_CC_IRQHandler+0xc6>
        if (STATE_1 == bPrevHallState)
 8001224:	2a01      	cmp	r2, #1
 8001226:	d0f9      	beq.n	800121c <HALL_TIMx_CC_IRQHandler+0x124>
        else if (STATE_2 == bPrevHallState)
 8001228:	2a02      	cmp	r2, #2
 800122a:	d1ca      	bne.n	80011c2 <HALL_TIMx_CC_IRQHandler+0xca>
          pHandle->Direction = NEGATIVE;
 800122c:	32fd      	adds	r2, #253	; 0xfd
          pHandle->Direction = POSITIVE;
 800122e:	702a      	strb	r2, [r5, #0]
          pHandle->MeasuredElAngle = (int16_t)(pHandle->PhaseShift + S16_120_PHASE_SHIFT + S16_60_PHASE_SHIFT);
 8001230:	8c5a      	ldrh	r2, [r3, #34]	; 0x22
 8001232:	485f      	ldr	r0, [pc, #380]	; (80013b0 <HALL_TIMx_CC_IRQHandler+0x2b8>)
 8001234:	e7c3      	b.n	80011be <HALL_TIMx_CC_IRQHandler+0xc6>
        if (STATE_3 == bPrevHallState)
 8001236:	2a03      	cmp	r2, #3
 8001238:	d101      	bne.n	800123e <HALL_TIMx_CC_IRQHandler+0x146>
          pHandle->Direction = POSITIVE;
 800123a:	3a02      	subs	r2, #2
 800123c:	e7f7      	b.n	800122e <HALL_TIMx_CC_IRQHandler+0x136>
        else if (STATE_6 == bPrevHallState)
 800123e:	2a06      	cmp	r2, #6
 8001240:	d1bf      	bne.n	80011c2 <HALL_TIMx_CC_IRQHandler+0xca>
          pHandle->Direction = NEGATIVE;
 8001242:	32f9      	adds	r2, #249	; 0xf9
          pHandle->Direction = POSITIVE;
 8001244:	702a      	strb	r2, [r5, #0]
          pHandle->MeasuredElAngle = (int16_t)(pHandle->PhaseShift - S16_120_PHASE_SHIFT);
 8001246:	8c5a      	ldrh	r2, [r3, #34]	; 0x22
 8001248:	485a      	ldr	r0, [pc, #360]	; (80013b4 <HALL_TIMx_CC_IRQHandler+0x2bc>)
 800124a:	e7b8      	b.n	80011be <HALL_TIMx_CC_IRQHandler+0xc6>
        if (STATE_2 == bPrevHallState)
 800124c:	2a02      	cmp	r2, #2
 800124e:	d101      	bne.n	8001254 <HALL_TIMx_CC_IRQHandler+0x15c>
          pHandle->Direction = POSITIVE;
 8001250:	3a01      	subs	r2, #1
 8001252:	e7f7      	b.n	8001244 <HALL_TIMx_CC_IRQHandler+0x14c>
        else if (STATE_4 == bPrevHallState)
 8001254:	2a04      	cmp	r2, #4
 8001256:	d1b4      	bne.n	80011c2 <HALL_TIMx_CC_IRQHandler+0xca>
          pHandle->Direction = NEGATIVE;
 8001258:	32fb      	adds	r2, #251	; 0xfb
          pHandle->Direction = POSITIVE;
 800125a:	702a      	strb	r2, [r5, #0]
          pHandle->MeasuredElAngle = (int16_t)(pHandle->PhaseShift - S16_60_PHASE_SHIFT);
 800125c:	8c5a      	ldrh	r2, [r3, #34]	; 0x22
 800125e:	4856      	ldr	r0, [pc, #344]	; (80013b8 <HALL_TIMx_CC_IRQHandler+0x2c0>)
 8001260:	e7ad      	b.n	80011be <HALL_TIMx_CC_IRQHandler+0xc6>
        if (STATE_6 == bPrevHallState)
 8001262:	2a06      	cmp	r2, #6
 8001264:	d101      	bne.n	800126a <HALL_TIMx_CC_IRQHandler+0x172>
          pHandle->Direction = POSITIVE;
 8001266:	3a05      	subs	r2, #5
 8001268:	e7f7      	b.n	800125a <HALL_TIMx_CC_IRQHandler+0x162>
        else if (STATE_5 == bPrevHallState)
 800126a:	2a05      	cmp	r2, #5
 800126c:	d1a9      	bne.n	80011c2 <HALL_TIMx_CC_IRQHandler+0xca>
          pHandle->Direction = NEGATIVE;
 800126e:	32fa      	adds	r2, #250	; 0xfa
 8001270:	e79c      	b.n	80011ac <HALL_TIMx_CC_IRQHandler+0xb4>
        pHandle->SensorIsReliable = false;
 8001272:	001a      	movs	r2, r3
 8001274:	2000      	movs	r0, #0
 8001276:	324c      	adds	r2, #76	; 0x4c
 8001278:	7010      	strb	r0, [r2, #0]
        break;
 800127a:	e7a2      	b.n	80011c2 <HALL_TIMx_CC_IRQHandler+0xca>
      if (pHandle->BufferFilled < pHandle->SpeedBufferSize)
 800127c:	0019      	movs	r1, r3
 800127e:	1dd8      	adds	r0, r3, #7
 8001280:	3150      	adds	r1, #80	; 0x50
 8001282:	780a      	ldrb	r2, [r1, #0]
 8001284:	7fc5      	ldrb	r5, [r0, #31]
 8001286:	42aa      	cmp	r2, r5
 8001288:	d203      	bcs.n	8001292 <HALL_TIMx_CC_IRQHandler+0x19a>
        pHandle->BufferFilled++;
 800128a:	780a      	ldrb	r2, [r1, #0]
 800128c:	3201      	adds	r2, #1
 800128e:	b2d2      	uxtb	r2, r2
 8001290:	700a      	strb	r2, [r1, #0]
      wCaptBuf += ((uint32_t)pHandle->OVFCounter) * 0x10000UL;
 8001292:	0019      	movs	r1, r3
 8001294:	3151      	adds	r1, #81	; 0x51
 8001296:	9102      	str	r1, [sp, #8]
 8001298:	6b66      	ldr	r6, [r4, #52]	; 0x34
  return (uint32_t)(READ_REG(TIMx->PSC));
 800129a:	6aa2      	ldr	r2, [r4, #40]	; 0x28
 800129c:	7809      	ldrb	r1, [r1, #0]
 800129e:	b2b0      	uxth	r0, r6
 80012a0:	0409      	lsls	r1, r1, #16
 80012a2:	1840      	adds	r0, r0, r1
      if (pHandle->OVFCounter != 0U)
 80012a4:	9902      	ldr	r1, [sp, #8]
      hPrscBuf = (uint16_t)LL_TIM_GetPrescaler(TIMx);
 80012a6:	b292      	uxth	r2, r2
      if (pHandle->OVFCounter != 0U)
 80012a8:	7809      	ldrb	r1, [r1, #0]
 80012aa:	b2cf      	uxtb	r7, r1
 80012ac:	46bc      	mov	ip, r7
 80012ae:	2900      	cmp	r1, #0
 80012b0:	d055      	beq.n	800135e <HALL_TIMx_CC_IRQHandler+0x266>
        hAux = hPrscBuf + 1U;
 80012b2:	3201      	adds	r2, #1
        wCaptBuf *= hAux;
 80012b4:	b291      	uxth	r1, r2
        if (pHandle->RatioInc)
 80012b6:	001a      	movs	r2, r3
 80012b8:	324e      	adds	r2, #78	; 0x4e
        wCaptBuf *= hAux;
 80012ba:	4341      	muls	r1, r0
        if (pHandle->RatioInc)
 80012bc:	7810      	ldrb	r0, [r2, #0]
 80012be:	2800      	cmp	r0, #0
 80012c0:	d042      	beq.n	8001348 <HALL_TIMx_CC_IRQHandler+0x250>
          pHandle->RatioInc = false;  /* Previous capture caused overflow */
 80012c2:	2000      	movs	r0, #0
            pHandle->RatioInc = true;   /* new prsc value updated at next capture only */
 80012c4:	7010      	strb	r0, [r2, #0]
      if (wCaptBuf < pHandle->MinPeriod)
 80012c6:	001a      	movs	r2, r3
 80012c8:	32c0      	adds	r2, #192	; 0xc0
 80012ca:	6812      	ldr	r2, [r2, #0]
 80012cc:	428a      	cmp	r2, r1
 80012ce:	d837      	bhi.n	8001340 <HALL_TIMx_CC_IRQHandler+0x248>
        pHandle->ElPeriodSum -= pHandle->SensorPeriod[pHandle->SpeedFIFOIdx]; /* value we gonna removed from the accumulator */
 80012d0:	229c      	movs	r2, #156	; 0x9c
 80012d2:	4694      	mov	ip, r2
 80012d4:	449c      	add	ip, r3
 80012d6:	4662      	mov	r2, ip
 80012d8:	001c      	movs	r4, r3
 80012da:	7817      	ldrb	r7, [r2, #0]
 80012dc:	34a0      	adds	r4, #160	; 0xa0
 80012de:	00ba      	lsls	r2, r7, #2
 80012e0:	189a      	adds	r2, r3, r2
 80012e2:	6826      	ldr	r6, [r4, #0]
 80012e4:	6d50      	ldr	r0, [r2, #84]	; 0x54
 80012e6:	1a30      	subs	r0, r6, r0
 80012e8:	9003      	str	r0, [sp, #12]
        if (wCaptBuf >= pHandle->MaxPeriod)
 80012ea:	0018      	movs	r0, r3
 80012ec:	30bc      	adds	r0, #188	; 0xbc
 80012ee:	6806      	ldr	r6, [r0, #0]
          pHandle->SensorPeriod[pHandle->SpeedFIFOIdx] *= pHandle->Direction;
 80012f0:	9801      	ldr	r0, [sp, #4]
 80012f2:	4348      	muls	r0, r1
        if (wCaptBuf >= pHandle->MaxPeriod)
 80012f4:	428e      	cmp	r6, r1
 80012f6:	d801      	bhi.n	80012fc <HALL_TIMx_CC_IRQHandler+0x204>
          pHandle->SensorPeriod[pHandle->SpeedFIFOIdx] = (int32_t)pHandle->MaxPeriod * pHandle->Direction;
 80012f8:	9801      	ldr	r0, [sp, #4]
 80012fa:	4370      	muls	r0, r6
 80012fc:	6550      	str	r0, [r2, #84]	; 0x54
          pHandle->ElPeriodSum += pHandle->SensorPeriod[pHandle->SpeedFIFOIdx];
 80012fe:	9a03      	ldr	r2, [sp, #12]
        pHandle->SpeedFIFOIdx++;
 8001300:	3701      	adds	r7, #1
          pHandle->ElPeriodSum += pHandle->SensorPeriod[pHandle->SpeedFIFOIdx];
 8001302:	1810      	adds	r0, r2, r0
        pHandle->SpeedFIFOIdx++;
 8001304:	b2ff      	uxtb	r7, r7
          pHandle->ElPeriodSum += pHandle->SensorPeriod[pHandle->SpeedFIFOIdx];
 8001306:	6020      	str	r0, [r4, #0]
        if (pHandle->SpeedFIFOIdx == pHandle->SpeedBufferSize)
 8001308:	42bd      	cmp	r5, r7
 800130a:	d100      	bne.n	800130e <HALL_TIMx_CC_IRQHandler+0x216>
          pHandle->SpeedFIFOIdx = 0U;
 800130c:	2700      	movs	r7, #0
 800130e:	4662      	mov	r2, ip
 8001310:	7017      	strb	r7, [r2, #0]
        if (pHandle->SensorIsReliable)
 8001312:	001a      	movs	r2, r3
 8001314:	001c      	movs	r4, r3
 8001316:	324c      	adds	r2, #76	; 0x4c
 8001318:	7812      	ldrb	r2, [r2, #0]
 800131a:	34a8      	adds	r4, #168	; 0xa8
 800131c:	2a00      	cmp	r2, #0
 800131e:	d041      	beq.n	80013a4 <HALL_TIMx_CC_IRQHandler+0x2ac>
          if ((pHandle->BufferFilled < pHandle->SpeedBufferSize) && (wCaptBuf != 0U))
 8001320:	001a      	movs	r2, r3
 8001322:	3250      	adds	r2, #80	; 0x50
 8001324:	7812      	ldrb	r2, [r2, #0]
            uint32_t tempReg = (pHandle->PseudoFreqConv / wCaptBuf) * (uint32_t)pHandle->Direction;
 8001326:	33b8      	adds	r3, #184	; 0xb8
 8001328:	681e      	ldr	r6, [r3, #0]
          if ((pHandle->BufferFilled < pHandle->SpeedBufferSize) && (wCaptBuf != 0U))
 800132a:	4295      	cmp	r5, r2
 800132c:	d932      	bls.n	8001394 <HALL_TIMx_CC_IRQHandler+0x29c>
 800132e:	2900      	cmp	r1, #0
 8001330:	d030      	beq.n	8001394 <HALL_TIMx_CC_IRQHandler+0x29c>
            uint32_t tempReg = (pHandle->PseudoFreqConv / wCaptBuf) * (uint32_t)pHandle->Direction;
 8001332:	0030      	movs	r0, r6
 8001334:	f7fe fefc 	bl	8000130 <__udivsi3>
 8001338:	9b01      	ldr	r3, [sp, #4]
 800133a:	4343      	muls	r3, r0
 800133c:	0018      	movs	r0, r3
            pHandle->AvrElSpeedDpp = (int16_t)((int32_t)pHandle->PseudoFreqConv /
 800133e:	8020      	strh	r0, [r4, #0]
      pHandle->OVFCounter = 0U;
 8001340:	2300      	movs	r3, #0
 8001342:	9a02      	ldr	r2, [sp, #8]
 8001344:	7013      	strb	r3, [r2, #0]
 8001346:	e75f      	b.n	8001208 <HALL_TIMx_CC_IRQHandler+0x110>
          if (LL_TIM_GetPrescaler(TIMx) < pHandle->HALLMaxRatio) /* Avoid OVF w/ very low freq */
 8001348:	001e      	movs	r6, r3
 800134a:	36b4      	adds	r6, #180	; 0xb4
 800134c:	6aa0      	ldr	r0, [r4, #40]	; 0x28
 800134e:	8836      	ldrh	r6, [r6, #0]
 8001350:	4286      	cmp	r6, r0
 8001352:	d9b8      	bls.n	80012c6 <HALL_TIMx_CC_IRQHandler+0x1ce>
 8001354:	6aa0      	ldr	r0, [r4, #40]	; 0x28
            LL_TIM_SetPrescaler(TIMx, LL_TIM_GetPrescaler(TIMx) + 1U); /* To avoid OVF during speed decrease */
 8001356:	3001      	adds	r0, #1
  WRITE_REG(TIMx->PSC, Prescaler);
 8001358:	62a0      	str	r0, [r4, #40]	; 0x28
            pHandle->RatioInc = true;   /* new prsc value updated at next capture only */
 800135a:	2001      	movs	r0, #1
 800135c:	e7b2      	b.n	80012c4 <HALL_TIMx_CC_IRQHandler+0x1cc>
        if (pHandle->RatioDec) /* and don't decrease it again */
 800135e:	001f      	movs	r7, r3
 8001360:	374d      	adds	r7, #77	; 0x4d
 8001362:	7839      	ldrb	r1, [r7, #0]
 8001364:	2900      	cmp	r1, #0
 8001366:	d005      	beq.n	8001374 <HALL_TIMx_CC_IRQHandler+0x27c>
          hAux = hPrscBuf + 2U;
 8001368:	3202      	adds	r2, #2
          wCaptBuf *= hAux;
 800136a:	b291      	uxth	r1, r2
          pHandle->RatioDec = false;
 800136c:	4662      	mov	r2, ip
          wCaptBuf *= hAux;
 800136e:	4341      	muls	r1, r0
              pHandle->RatioDec = true;
 8001370:	703a      	strb	r2, [r7, #0]
 8001372:	e7a8      	b.n	80012c6 <HALL_TIMx_CC_IRQHandler+0x1ce>
          uint16_t hAux = hPrscBuf + 1U;
 8001374:	3201      	adds	r2, #1
          wCaptBuf *= hAux;
 8001376:	b291      	uxth	r1, r2
          if (hHighSpeedCapture < LOW_RES_THRESHOLD) /* If capture range correct */
 8001378:	22aa      	movs	r2, #170	; 0xaa
 800137a:	b2b6      	uxth	r6, r6
          wCaptBuf *= hAux;
 800137c:	4341      	muls	r1, r0
          if (hHighSpeedCapture < LOW_RES_THRESHOLD) /* If capture range correct */
 800137e:	01d2      	lsls	r2, r2, #7
 8001380:	4296      	cmp	r6, r2
 8001382:	d2a0      	bcs.n	80012c6 <HALL_TIMx_CC_IRQHandler+0x1ce>
  return (uint32_t)(READ_REG(TIMx->PSC));
 8001384:	6aa2      	ldr	r2, [r4, #40]	; 0x28
            if (LL_TIM_GetPrescaler(TIMx) > 0U) /* or prescaler cannot be further reduced */
 8001386:	2a00      	cmp	r2, #0
 8001388:	d09d      	beq.n	80012c6 <HALL_TIMx_CC_IRQHandler+0x1ce>
 800138a:	6aa2      	ldr	r2, [r4, #40]	; 0x28
              LL_TIM_SetPrescaler(TIMx, LL_TIM_GetPrescaler(TIMx) - 1U); /* Increase accuracy by decreasing prsc */
 800138c:	3a01      	subs	r2, #1
  WRITE_REG(TIMx->PSC, Prescaler);
 800138e:	62a2      	str	r2, [r4, #40]	; 0x28
              pHandle->RatioDec = true;
 8001390:	2201      	movs	r2, #1
 8001392:	e7ed      	b.n	8001370 <HALL_TIMx_CC_IRQHandler+0x278>
                                               (pHandle->ElPeriodSum / (int32_t)pHandle->SpeedBufferSize)); /* Average value */
 8001394:	0029      	movs	r1, r5
 8001396:	f7fe ff55 	bl	8000244 <__divsi3>
 800139a:	0001      	movs	r1, r0
            pHandle->AvrElSpeedDpp = (int16_t)((int32_t)pHandle->PseudoFreqConv /
 800139c:	0030      	movs	r0, r6
 800139e:	f7fe ff51 	bl	8000244 <__divsi3>
 80013a2:	e7cc      	b.n	800133e <HALL_TIMx_CC_IRQHandler+0x246>
          pHandle->AvrElSpeedDpp = 0;
 80013a4:	8022      	strh	r2, [r4, #0]
 80013a6:	e7cb      	b.n	8001340 <HALL_TIMx_CC_IRQHandler+0x248>
 80013a8:	00002aaa 	.word	0x00002aaa
 80013ac:	00005555 	.word	0x00005555
 80013b0:	00007fff 	.word	0x00007fff
 80013b4:	ffffaaab 	.word	0xffffaaab
 80013b8:	ffffd556 	.word	0xffffd556

080013bc <HALL_TIMx_UP_IRQHandler>:
  if (pHandle->SensorIsReliable)
 80013bc:	0003      	movs	r3, r0
{
 80013be:	b570      	push	{r4, r5, r6, lr}
  if (pHandle->SensorIsReliable)
 80013c0:	334c      	adds	r3, #76	; 0x4c
 80013c2:	781b      	ldrb	r3, [r3, #0]
{
 80013c4:	0004      	movs	r4, r0
  TIM_TypeDef *TIMx = pHandle->TIMx;
 80013c6:	6ac2      	ldr	r2, [r0, #44]	; 0x2c
  if (pHandle->SensorIsReliable)
 80013c8:	2b00      	cmp	r3, #0
 80013ca:	d035      	beq.n	8001438 <HALL_TIMx_UP_IRQHandler+0x7c>
    pHandle->OVFCounter++;
 80013cc:	0005      	movs	r5, r0
    hMaxTimerOverflow = (uint16_t)(((uint32_t)pHandle->HallTimeout * pHandle->OvfFreq)
 80013ce:	0001      	movs	r1, r0
    pHandle->OVFCounter++;
 80013d0:	3551      	adds	r5, #81	; 0x51
 80013d2:	782b      	ldrb	r3, [r5, #0]
    hMaxTimerOverflow = (uint16_t)(((uint32_t)pHandle->HallTimeout * pHandle->OvfFreq)
 80013d4:	31c6      	adds	r1, #198	; 0xc6
    pHandle->OVFCounter++;
 80013d6:	3301      	adds	r3, #1
 80013d8:	b2db      	uxtb	r3, r3
 80013da:	702b      	strb	r3, [r5, #0]
  return (uint32_t)(READ_REG(TIMx->PSC));
 80013dc:	6a93      	ldr	r3, [r2, #40]	; 0x28
    hMaxTimerOverflow = (uint16_t)(((uint32_t)pHandle->HallTimeout * pHandle->OvfFreq)
 80013de:	0002      	movs	r2, r0
 80013e0:	8808      	ldrh	r0, [r1, #0]
                                 / ((LL_TIM_GetPrescaler(TIMx) + 1U) * 1000U));
 80013e2:	21fa      	movs	r1, #250	; 0xfa
    hMaxTimerOverflow = (uint16_t)(((uint32_t)pHandle->HallTimeout * pHandle->OvfFreq)
 80013e4:	32c4      	adds	r2, #196	; 0xc4
 80013e6:	8812      	ldrh	r2, [r2, #0]
                                 / ((LL_TIM_GetPrescaler(TIMx) + 1U) * 1000U));
 80013e8:	3301      	adds	r3, #1
 80013ea:	0089      	lsls	r1, r1, #2
    hMaxTimerOverflow = (uint16_t)(((uint32_t)pHandle->HallTimeout * pHandle->OvfFreq)
 80013ec:	4350      	muls	r0, r2
                                 / ((LL_TIM_GetPrescaler(TIMx) + 1U) * 1000U));
 80013ee:	4359      	muls	r1, r3
 80013f0:	f7fe fe9e 	bl	8000130 <__udivsi3>
    if (pHandle->OVFCounter >= hMaxTimerOverflow)
 80013f4:	782e      	ldrb	r6, [r5, #0]
 80013f6:	b280      	uxth	r0, r0
 80013f8:	b2f6      	uxtb	r6, r6
 80013fa:	4286      	cmp	r6, r0
 80013fc:	d31c      	bcc.n	8001438 <HALL_TIMx_UP_IRQHandler+0x7c>
      pHandle->_Super.hElSpeedDpp = 0;
 80013fe:	2600      	movs	r6, #0
      HALL_Init_Electrical_Angle(pHandle);
 8001400:	0020      	movs	r0, r4
      pHandle->_Super.hElSpeedDpp = 0;
 8001402:	81e6      	strh	r6, [r4, #14]
      HALL_Init_Electrical_Angle(pHandle);
 8001404:	f7ff fcc6 	bl	8000d94 <HALL_Init_Electrical_Angle>
      pHandle->FirstCapt = 0U;
 8001408:	0023      	movs	r3, r4
 800140a:	0022      	movs	r2, r4
 800140c:	334f      	adds	r3, #79	; 0x4f
      pHandle->OVFCounter = 0U;
 800140e:	702e      	strb	r6, [r5, #0]
      pHandle->FirstCapt = 0U;
 8001410:	701e      	strb	r6, [r3, #0]
      for (bIndex = 0U; bIndex < pHandle->SpeedBufferSize; bIndex++)
 8001412:	1de3      	adds	r3, r4, #7
 8001414:	7fdb      	ldrb	r3, [r3, #31]
        pHandle->SensorPeriod[bIndex]  = (int32_t)pHandle->MaxPeriod;
 8001416:	356b      	adds	r5, #107	; 0x6b
 8001418:	0099      	lsls	r1, r3, #2
 800141a:	1909      	adds	r1, r1, r4
 800141c:	6828      	ldr	r0, [r5, #0]
      for (bIndex = 0U; bIndex < pHandle->SpeedBufferSize; bIndex++)
 800141e:	428a      	cmp	r2, r1
 8001420:	d10c      	bne.n	800143c <HALL_TIMx_UP_IRQHandler+0x80>
      pHandle->BufferFilled = 0U ;
 8001422:	0021      	movs	r1, r4
 8001424:	2200      	movs	r2, #0
      uint32_t tempReg = pHandle->MaxPeriod * pHandle->SpeedBufferSize;
 8001426:	4343      	muls	r3, r0
      pHandle->BufferFilled = 0U ;
 8001428:	3150      	adds	r1, #80	; 0x50
 800142a:	700a      	strb	r2, [r1, #0]
      pHandle->AvrElSpeedDpp = 0;
 800142c:	3158      	adds	r1, #88	; 0x58
 800142e:	800a      	strh	r2, [r1, #0]
      pHandle->ElPeriodSum = (int32_t)tempReg;
 8001430:	34a0      	adds	r4, #160	; 0xa0
      pHandle->SpeedFIFOIdx = 0U;
 8001432:	390c      	subs	r1, #12
 8001434:	700a      	strb	r2, [r1, #0]
      pHandle->ElPeriodSum = (int32_t)tempReg;
 8001436:	6023      	str	r3, [r4, #0]
}
 8001438:	2000      	movs	r0, #0
 800143a:	bd70      	pop	{r4, r5, r6, pc}
        pHandle->SensorPeriod[bIndex]  = (int32_t)pHandle->MaxPeriod;
 800143c:	6550      	str	r0, [r2, #84]	; 0x54
      for (bIndex = 0U; bIndex < pHandle->SpeedBufferSize; bIndex++)
 800143e:	3204      	adds	r2, #4
 8001440:	e7ec      	b.n	800141c <HALL_TIMx_UP_IRQHandler+0x60>

08001442 <SystemClock_Config>:
/**
  * @brief System Clock Configuration
  * @retval None
  */
void SystemClock_Config(void)
{
 8001442:	b530      	push	{r4, r5, lr}
  RCC_OscInitTypeDef RCC_OscInitStruct = {0};
  RCC_ClkInitTypeDef RCC_ClkInitStruct = {0};
 8001444:	2510      	movs	r5, #16
{
 8001446:	b095      	sub	sp, #84	; 0x54
  RCC_OscInitTypeDef RCC_OscInitStruct = {0};
 8001448:	2228      	movs	r2, #40	; 0x28
 800144a:	2100      	movs	r1, #0
 800144c:	a80a      	add	r0, sp, #40	; 0x28
 800144e:	f005 f85a 	bl	8006506 <memset>
  RCC_ClkInitTypeDef RCC_ClkInitStruct = {0};
 8001452:	002a      	movs	r2, r5
 8001454:	2100      	movs	r1, #0
 8001456:	4668      	mov	r0, sp
 8001458:	f005 f855 	bl	8006506 <memset>
  RCC_PeriphCLKInitTypeDef PeriphClkInit = {0};
 800145c:	002a      	movs	r2, r5
 800145e:	2100      	movs	r1, #0
 8001460:	a804      	add	r0, sp, #16
 8001462:	f005 f850 	bl	8006506 <memset>

  /** Initializes the RCC Oscillators according to the specified parameters
  * in the RCC_OscInitTypeDef structure.
  */
  RCC_OscInitStruct.OscillatorType = RCC_OSCILLATORTYPE_HSI14|RCC_OSCILLATORTYPE_HSE;
 8001466:	2311      	movs	r3, #17
 8001468:	9308      	str	r3, [sp, #32]
  RCC_OscInitStruct.HSEState = RCC_HSE_ON;
  RCC_OscInitStruct.HSI14State = RCC_HSI14_ON;
  RCC_OscInitStruct.HSI14CalibrationValue = 16;
  RCC_OscInitStruct.PLL.PLLState = RCC_PLL_ON;
  RCC_OscInitStruct.PLL.PLLSource = RCC_PLLSOURCE_HSE;
 800146a:	2380      	movs	r3, #128	; 0x80
 800146c:	025b      	lsls	r3, r3, #9
 800146e:	9311      	str	r3, [sp, #68]	; 0x44
  RCC_OscInitStruct.PLL.PLLMUL = RCC_PLL_MUL6;
 8001470:	2380      	movs	r3, #128	; 0x80
  RCC_OscInitStruct.HSEState = RCC_HSE_ON;
 8001472:	2401      	movs	r4, #1
  RCC_OscInitStruct.HSI14CalibrationValue = 16;
 8001474:	950e      	str	r5, [sp, #56]	; 0x38
  RCC_OscInitStruct.PLL.PLLMUL = RCC_PLL_MUL6;
 8001476:	035b      	lsls	r3, r3, #13
  RCC_OscInitStruct.PLL.PLLState = RCC_PLL_ON;
 8001478:	3d0e      	subs	r5, #14
  RCC_OscInitStruct.PLL.PREDIV = RCC_PREDIV_DIV1;
  if (HAL_RCC_OscConfig(&RCC_OscInitStruct) != HAL_OK)
 800147a:	a808      	add	r0, sp, #32
  RCC_OscInitStruct.HSEState = RCC_HSE_ON;
 800147c:	9409      	str	r4, [sp, #36]	; 0x24
  RCC_OscInitStruct.HSI14State = RCC_HSI14_ON;
 800147e:	940d      	str	r4, [sp, #52]	; 0x34
  RCC_OscInitStruct.PLL.PLLState = RCC_PLL_ON;
 8001480:	9510      	str	r5, [sp, #64]	; 0x40
  RCC_OscInitStruct.PLL.PLLMUL = RCC_PLL_MUL6;
 8001482:	9312      	str	r3, [sp, #72]	; 0x48
  if (HAL_RCC_OscConfig(&RCC_OscInitStruct) != HAL_OK)
 8001484:	f003 fbe4 	bl	8004c50 <HAL_RCC_OscConfig>
 8001488:	2800      	cmp	r0, #0
 800148a:	d001      	beq.n	8001490 <SystemClock_Config+0x4e>
  __ASM volatile ("cpsid i" : : : "memory");
 800148c:	b672      	cpsid	i
void Error_Handler(void)
{
  /* USER CODE BEGIN Error_Handler_Debug */
  /* User can add his own implementation to report the HAL error return state */
  __disable_irq();
  while (1)
 800148e:	e7fe      	b.n	800148e <SystemClock_Config+0x4c>
  RCC_ClkInitStruct.ClockType = RCC_CLOCKTYPE_HCLK|RCC_CLOCKTYPE_SYSCLK
 8001490:	2307      	movs	r3, #7
  RCC_ClkInitStruct.AHBCLKDivider = RCC_SYSCLK_DIV1;
 8001492:	9002      	str	r0, [sp, #8]
  RCC_ClkInitStruct.APB1CLKDivider = RCC_HCLK_DIV1;
 8001494:	9003      	str	r0, [sp, #12]
  if (HAL_RCC_ClockConfig(&RCC_ClkInitStruct, FLASH_LATENCY_1) != HAL_OK)
 8001496:	0021      	movs	r1, r4
 8001498:	4668      	mov	r0, sp
  RCC_ClkInitStruct.ClockType = RCC_CLOCKTYPE_HCLK|RCC_CLOCKTYPE_SYSCLK
 800149a:	9300      	str	r3, [sp, #0]
  RCC_ClkInitStruct.SYSCLKSource = RCC_SYSCLKSOURCE_PLLCLK;
 800149c:	9501      	str	r5, [sp, #4]
  if (HAL_RCC_ClockConfig(&RCC_ClkInitStruct, FLASH_LATENCY_1) != HAL_OK)
 800149e:	f003 fe05 	bl	80050ac <HAL_RCC_ClockConfig>
 80014a2:	2800      	cmp	r0, #0
 80014a4:	d001      	beq.n	80014aa <SystemClock_Config+0x68>
 80014a6:	b672      	cpsid	i
  while (1)
 80014a8:	e7fe      	b.n	80014a8 <SystemClock_Config+0x66>
  PeriphClkInit.Usart1ClockSelection = RCC_USART1CLKSOURCE_PCLK1;
 80014aa:	9006      	str	r0, [sp, #24]
  if (HAL_RCCEx_PeriphCLKConfig(&PeriphClkInit) != HAL_OK)
 80014ac:	a804      	add	r0, sp, #16
  PeriphClkInit.PeriphClockSelection = RCC_PERIPHCLK_USART1;
 80014ae:	9404      	str	r4, [sp, #16]
  if (HAL_RCCEx_PeriphCLKConfig(&PeriphClkInit) != HAL_OK)
 80014b0:	f003 fe96 	bl	80051e0 <HAL_RCCEx_PeriphCLKConfig>
 80014b4:	2800      	cmp	r0, #0
 80014b6:	d001      	beq.n	80014bc <SystemClock_Config+0x7a>
 80014b8:	b672      	cpsid	i
  while (1)
 80014ba:	e7fe      	b.n	80014ba <SystemClock_Config+0x78>
  HAL_RCC_EnableCSS();
 80014bc:	f003 fdc6 	bl	800504c <HAL_RCC_EnableCSS>
}
 80014c0:	b015      	add	sp, #84	; 0x54
 80014c2:	bd30      	pop	{r4, r5, pc}

080014c4 <main>:
{
 80014c4:	b5f0      	push	{r4, r5, r6, r7, lr}
 80014c6:	b097      	sub	sp, #92	; 0x5c
  HAL_Init();
 80014c8:	f003 f938 	bl	800473c <HAL_Init>
  SystemClock_Config();
 80014cc:	f7ff ffb9 	bl	8001442 <SystemClock_Config>
  GPIO_InitTypeDef GPIO_InitStruct = {0};
 80014d0:	2214      	movs	r2, #20
 80014d2:	2100      	movs	r1, #0
 80014d4:	a80e      	add	r0, sp, #56	; 0x38
 80014d6:	f005 f816 	bl	8006506 <memset>
  __HAL_RCC_GPIOC_CLK_ENABLE();
 80014da:	2280      	movs	r2, #128	; 0x80
 80014dc:	4cca      	ldr	r4, [pc, #808]	; (8001808 <main+0x344>)
 80014de:	0312      	lsls	r2, r2, #12
 80014e0:	6963      	ldr	r3, [r4, #20]
  HAL_GPIO_WritePin(M1_EN_DRIVER_GPIO_Port, M1_EN_DRIVER_Pin, GPIO_PIN_SET);
 80014e2:	2180      	movs	r1, #128	; 0x80
  __HAL_RCC_GPIOC_CLK_ENABLE();
 80014e4:	4313      	orrs	r3, r2
 80014e6:	6163      	str	r3, [r4, #20]
 80014e8:	6963      	ldr	r3, [r4, #20]
  HAL_GPIO_WritePin(M1_EN_DRIVER_GPIO_Port, M1_EN_DRIVER_Pin, GPIO_PIN_SET);
 80014ea:	2090      	movs	r0, #144	; 0x90
  __HAL_RCC_GPIOC_CLK_ENABLE();
 80014ec:	4013      	ands	r3, r2
  __HAL_RCC_GPIOF_CLK_ENABLE();
 80014ee:	2280      	movs	r2, #128	; 0x80
  __HAL_RCC_GPIOC_CLK_ENABLE();
 80014f0:	9301      	str	r3, [sp, #4]
 80014f2:	9b01      	ldr	r3, [sp, #4]
  __HAL_RCC_GPIOF_CLK_ENABLE();
 80014f4:	6963      	ldr	r3, [r4, #20]
 80014f6:	03d2      	lsls	r2, r2, #15
 80014f8:	4313      	orrs	r3, r2
 80014fa:	6163      	str	r3, [r4, #20]
 80014fc:	6963      	ldr	r3, [r4, #20]
  HAL_GPIO_WritePin(M1_EN_DRIVER_GPIO_Port, M1_EN_DRIVER_Pin, GPIO_PIN_SET);
 80014fe:	0109      	lsls	r1, r1, #4
  __HAL_RCC_GPIOF_CLK_ENABLE();
 8001500:	4013      	ands	r3, r2
  __HAL_RCC_GPIOA_CLK_ENABLE();
 8001502:	2280      	movs	r2, #128	; 0x80
  __HAL_RCC_GPIOF_CLK_ENABLE();
 8001504:	9302      	str	r3, [sp, #8]
 8001506:	9b02      	ldr	r3, [sp, #8]
  __HAL_RCC_GPIOA_CLK_ENABLE();
 8001508:	6963      	ldr	r3, [r4, #20]
 800150a:	0292      	lsls	r2, r2, #10
 800150c:	4313      	orrs	r3, r2
 800150e:	6163      	str	r3, [r4, #20]
 8001510:	6963      	ldr	r3, [r4, #20]
  HAL_GPIO_WritePin(M1_EN_DRIVER_GPIO_Port, M1_EN_DRIVER_Pin, GPIO_PIN_SET);
 8001512:	05c0      	lsls	r0, r0, #23
  __HAL_RCC_GPIOA_CLK_ENABLE();
 8001514:	4013      	ands	r3, r2
  __HAL_RCC_GPIOB_CLK_ENABLE();
 8001516:	2280      	movs	r2, #128	; 0x80
  __HAL_RCC_GPIOA_CLK_ENABLE();
 8001518:	9303      	str	r3, [sp, #12]
 800151a:	9b03      	ldr	r3, [sp, #12]
  __HAL_RCC_GPIOB_CLK_ENABLE();
 800151c:	6963      	ldr	r3, [r4, #20]
 800151e:	02d2      	lsls	r2, r2, #11
 8001520:	4313      	orrs	r3, r2
 8001522:	6163      	str	r3, [r4, #20]
 8001524:	6963      	ldr	r3, [r4, #20]
  GPIO_InitStruct.Pull = GPIO_PULLUP;
 8001526:	2501      	movs	r5, #1
  __HAL_RCC_GPIOB_CLK_ENABLE();
 8001528:	4013      	ands	r3, r2
 800152a:	9304      	str	r3, [sp, #16]
  HAL_GPIO_WritePin(M1_EN_DRIVER_GPIO_Port, M1_EN_DRIVER_Pin, GPIO_PIN_SET);
 800152c:	2201      	movs	r2, #1
  __HAL_RCC_GPIOB_CLK_ENABLE();
 800152e:	9b04      	ldr	r3, [sp, #16]
  HAL_GPIO_WritePin(M1_EN_DRIVER_GPIO_Port, M1_EN_DRIVER_Pin, GPIO_PIN_SET);
 8001530:	f003 fb88 	bl	8004c44 <HAL_GPIO_WritePin>
  GPIO_InitStruct.Pin = Start_Stop_Pin;
 8001534:	2380      	movs	r3, #128	; 0x80
 8001536:	021b      	lsls	r3, r3, #8
 8001538:	930e      	str	r3, [sp, #56]	; 0x38
  GPIO_InitStruct.Mode = GPIO_MODE_IT_FALLING;
 800153a:	2384      	movs	r3, #132	; 0x84
  HAL_GPIO_Init(Start_Stop_GPIO_Port, &GPIO_InitStruct);
 800153c:	48b3      	ldr	r0, [pc, #716]	; (800180c <main+0x348>)
  GPIO_InitStruct.Mode = GPIO_MODE_IT_FALLING;
 800153e:	039b      	lsls	r3, r3, #14
  HAL_GPIO_Init(Start_Stop_GPIO_Port, &GPIO_InitStruct);
 8001540:	a90e      	add	r1, sp, #56	; 0x38
  GPIO_InitStruct.Mode = GPIO_MODE_IT_FALLING;
 8001542:	930f      	str	r3, [sp, #60]	; 0x3c
  GPIO_InitStruct.Pull = GPIO_PULLUP;
 8001544:	9510      	str	r5, [sp, #64]	; 0x40
  HAL_GPIO_Init(Start_Stop_GPIO_Port, &GPIO_InitStruct);
 8001546:	f003 facb 	bl	8004ae0 <HAL_GPIO_Init>
  GPIO_InitStruct.Pin = M1_EN_DRIVER_Pin;
 800154a:	2380      	movs	r3, #128	; 0x80
  HAL_GPIO_Init(M1_EN_DRIVER_GPIO_Port, &GPIO_InitStruct);
 800154c:	2090      	movs	r0, #144	; 0x90
  GPIO_InitStruct.Pin = M1_EN_DRIVER_Pin;
 800154e:	011b      	lsls	r3, r3, #4
  GPIO_InitStruct.Speed = GPIO_SPEED_FREQ_LOW;
 8001550:	2600      	movs	r6, #0
  GPIO_InitStruct.Pin = M1_EN_DRIVER_Pin;
 8001552:	930e      	str	r3, [sp, #56]	; 0x38
  GPIO_InitStruct.Pull = GPIO_PULLDOWN;
 8001554:	2302      	movs	r3, #2
  HAL_GPIO_Init(M1_EN_DRIVER_GPIO_Port, &GPIO_InitStruct);
 8001556:	a90e      	add	r1, sp, #56	; 0x38
 8001558:	05c0      	lsls	r0, r0, #23
  GPIO_InitStruct.Pull = GPIO_PULLDOWN;
 800155a:	9310      	str	r3, [sp, #64]	; 0x40
  GPIO_InitStruct.Mode = GPIO_MODE_OUTPUT_PP;
 800155c:	950f      	str	r5, [sp, #60]	; 0x3c
  GPIO_InitStruct.Speed = GPIO_SPEED_FREQ_LOW;
 800155e:	9611      	str	r6, [sp, #68]	; 0x44
  HAL_GPIO_Init(M1_EN_DRIVER_GPIO_Port, &GPIO_InitStruct);
 8001560:	f003 fabe 	bl	8004ae0 <HAL_GPIO_Init>
  __HAL_RCC_DMA1_CLK_ENABLE();
 8001564:	6963      	ldr	r3, [r4, #20]
  ADC_ChannelConfTypeDef sConfig = {0};
 8001566:	220c      	movs	r2, #12
  __HAL_RCC_DMA1_CLK_ENABLE();
 8001568:	432b      	orrs	r3, r5
 800156a:	6163      	str	r3, [r4, #20]
 800156c:	6963      	ldr	r3, [r4, #20]
  ADC_ChannelConfTypeDef sConfig = {0};
 800156e:	0031      	movs	r1, r6
  __HAL_RCC_DMA1_CLK_ENABLE();
 8001570:	402b      	ands	r3, r5
 8001572:	9300      	str	r3, [sp, #0]
  ADC_ChannelConfTypeDef sConfig = {0};
 8001574:	a80e      	add	r0, sp, #56	; 0x38
  __HAL_RCC_DMA1_CLK_ENABLE();
 8001576:	9b00      	ldr	r3, [sp, #0]
  ADC_ChannelConfTypeDef sConfig = {0};
 8001578:	f004 ffc5 	bl	8006506 <memset>
  hadc.Instance = ADC1;
 800157c:	4ca4      	ldr	r4, [pc, #656]	; (8001810 <main+0x34c>)
 800157e:	4ba5      	ldr	r3, [pc, #660]	; (8001814 <main+0x350>)
  hadc.Init.DataAlign = ADC_DATAALIGN_LEFT;
 8001580:	2720      	movs	r7, #32
  hadc.Instance = ADC1;
 8001582:	6023      	str	r3, [r4, #0]
  hadc.Init.EOCSelection = ADC_EOC_SINGLE_CONV;
 8001584:	2304      	movs	r3, #4
 8001586:	6163      	str	r3, [r4, #20]
  hadc.Init.ExternalTrigConvEdge = ADC_EXTERNALTRIGCONVEDGE_RISING;
 8001588:	2380      	movs	r3, #128	; 0x80
 800158a:	00db      	lsls	r3, r3, #3
 800158c:	6223      	str	r3, [r4, #32]
  if (HAL_ADC_Init(&hadc) != HAL_OK)
 800158e:	0020      	movs	r0, r4
  hadc.Init.DMAContinuousRequests = ENABLE;
 8001590:	1d63      	adds	r3, r4, #5
  hadc.Init.LowPowerAutoWait = DISABLE;
 8001592:	61a6      	str	r6, [r4, #24]
  hadc.Init.ClockPrescaler = ADC_CLOCK_ASYNC_DIV1;
 8001594:	6066      	str	r6, [r4, #4]
  hadc.Init.Resolution = ADC_RESOLUTION_12B;
 8001596:	60a6      	str	r6, [r4, #8]
  hadc.Init.DataAlign = ADC_DATAALIGN_LEFT;
 8001598:	60e7      	str	r7, [r4, #12]
  hadc.Init.ScanConvMode = ADC_SCAN_DIRECTION_FORWARD;
 800159a:	6125      	str	r5, [r4, #16]
  hadc.Init.ExternalTrigConv = ADC_EXTERNALTRIGCONV_T1_TRGO;
 800159c:	61e6      	str	r6, [r4, #28]
  hadc.Init.DMAContinuousRequests = ENABLE;
 800159e:	77dd      	strb	r5, [r3, #31]
  hadc.Init.Overrun = ADC_OVR_DATA_PRESERVED;
 80015a0:	62a5      	str	r5, [r4, #40]	; 0x28
  if (HAL_ADC_Init(&hadc) != HAL_OK)
 80015a2:	f003 f8ed 	bl	8004780 <HAL_ADC_Init>
 80015a6:	42b0      	cmp	r0, r6
 80015a8:	d001      	beq.n	80015ae <main+0xea>
 80015aa:	b672      	cpsid	i
  while (1)
 80015ac:	e7fe      	b.n	80015ac <main+0xe8>
  sConfig.Channel = ADC_CHANNEL_5;
 80015ae:	2305      	movs	r3, #5
 80015b0:	930e      	str	r3, [sp, #56]	; 0x38
  sConfig.Rank = ADC_RANK_CHANNEL_NUMBER;
 80015b2:	2380      	movs	r3, #128	; 0x80
  if (HAL_ADC_ConfigChannel(&hadc, &sConfig) != HAL_OK)
 80015b4:	0020      	movs	r0, r4
  sConfig.Rank = ADC_RANK_CHANNEL_NUMBER;
 80015b6:	015b      	lsls	r3, r3, #5
  if (HAL_ADC_ConfigChannel(&hadc, &sConfig) != HAL_OK)
 80015b8:	a90e      	add	r1, sp, #56	; 0x38
  sConfig.Rank = ADC_RANK_CHANNEL_NUMBER;
 80015ba:	930f      	str	r3, [sp, #60]	; 0x3c
  sConfig.SamplingTime = ADC_SAMPLETIME_7CYCLES_5;
 80015bc:	9510      	str	r5, [sp, #64]	; 0x40
  if (HAL_ADC_ConfigChannel(&hadc, &sConfig) != HAL_OK)
 80015be:	f003 f983 	bl	80048c8 <HAL_ADC_ConfigChannel>
 80015c2:	2800      	cmp	r0, #0
 80015c4:	d001      	beq.n	80015ca <main+0x106>
 80015c6:	b672      	cpsid	i
  while (1)
 80015c8:	e7fe      	b.n	80015c8 <main+0x104>
  sConfig.Channel = ADC_CHANNEL_9;
 80015ca:	2309      	movs	r3, #9
  if (HAL_ADC_ConfigChannel(&hadc, &sConfig) != HAL_OK)
 80015cc:	0020      	movs	r0, r4
 80015ce:	a90e      	add	r1, sp, #56	; 0x38
  sConfig.Channel = ADC_CHANNEL_9;
 80015d0:	930e      	str	r3, [sp, #56]	; 0x38
  if (HAL_ADC_ConfigChannel(&hadc, &sConfig) != HAL_OK)
 80015d2:	f003 f979 	bl	80048c8 <HAL_ADC_ConfigChannel>
 80015d6:	1e05      	subs	r5, r0, #0
 80015d8:	d001      	beq.n	80015de <main+0x11a>
 80015da:	b672      	cpsid	i
  while (1)
 80015dc:	e7fe      	b.n	80015dc <main+0x118>
  TIM_MasterConfigTypeDef sMasterConfig = {0};
 80015de:	2608      	movs	r6, #8
 80015e0:	0001      	movs	r1, r0
 80015e2:	0032      	movs	r2, r6
 80015e4:	a805      	add	r0, sp, #20
 80015e6:	f004 ff8e 	bl	8006506 <memset>
  TIM_OC_InitTypeDef sConfigOC = {0};
 80015ea:	221c      	movs	r2, #28
 80015ec:	0029      	movs	r1, r5
 80015ee:	a807      	add	r0, sp, #28
 80015f0:	f004 ff89 	bl	8006506 <memset>
  TIM_BreakDeadTimeConfigTypeDef sBreakDeadTimeConfig = {0};
 80015f4:	003a      	movs	r2, r7
 80015f6:	0029      	movs	r1, r5
 80015f8:	a80e      	add	r0, sp, #56	; 0x38
 80015fa:	f004 ff84 	bl	8006506 <memset>
  htim1.Instance = TIM1;
 80015fe:	4c86      	ldr	r4, [pc, #536]	; (8001818 <main+0x354>)
 8001600:	4b86      	ldr	r3, [pc, #536]	; (800181c <main+0x358>)
  if (HAL_TIM_PWM_Init(&htim1) != HAL_OK)
 8001602:	0020      	movs	r0, r4
  htim1.Instance = TIM1;
 8001604:	6023      	str	r3, [r4, #0]
  htim1.Init.CounterMode = TIM_COUNTERMODE_CENTERALIGNED2;
 8001606:	2340      	movs	r3, #64	; 0x40
 8001608:	60a3      	str	r3, [r4, #8]
  htim1.Init.Period = ((PWM_PERIOD_CYCLES) / 2);
 800160a:	23fa      	movs	r3, #250	; 0xfa
 800160c:	00db      	lsls	r3, r3, #3
 800160e:	60e3      	str	r3, [r4, #12]
  htim1.Init.ClockDivision = TIM_CLOCKDIVISION_DIV2;
 8001610:	2380      	movs	r3, #128	; 0x80
 8001612:	005b      	lsls	r3, r3, #1
 8001614:	6123      	str	r3, [r4, #16]
  htim1.Init.RepetitionCounter = (REP_COUNTER);
 8001616:	3bfd      	subs	r3, #253	; 0xfd
  htim1.Init.Prescaler = ((TIM_CLOCK_DIVIDER) - 1);
 8001618:	6065      	str	r5, [r4, #4]
  htim1.Init.RepetitionCounter = (REP_COUNTER);
 800161a:	6163      	str	r3, [r4, #20]
  htim1.Init.AutoReloadPreload = TIM_AUTORELOAD_PRELOAD_DISABLE;
 800161c:	61a5      	str	r5, [r4, #24]
  if (HAL_TIM_PWM_Init(&htim1) != HAL_OK)
 800161e:	f003 ff85 	bl	800552c <HAL_TIM_PWM_Init>
 8001622:	2800      	cmp	r0, #0
 8001624:	d001      	beq.n	800162a <main+0x166>
 8001626:	b672      	cpsid	i
  while (1)
 8001628:	e7fe      	b.n	8001628 <main+0x164>
  sMasterConfig.MasterSlaveMode = TIM_MASTERSLAVEMODE_DISABLE;
 800162a:	9006      	str	r0, [sp, #24]
  if (HAL_TIMEx_MasterConfigSynchronization(&htim1, &sMasterConfig) != HAL_OK)
 800162c:	a905      	add	r1, sp, #20
 800162e:	0020      	movs	r0, r4
  sMasterConfig.MasterOutputTrigger = TIM_TRGO_UPDATE;
 8001630:	9705      	str	r7, [sp, #20]
  if (HAL_TIMEx_MasterConfigSynchronization(&htim1, &sMasterConfig) != HAL_OK)
 8001632:	f004 f971 	bl	8005918 <HAL_TIMEx_MasterConfigSynchronization>
 8001636:	1e02      	subs	r2, r0, #0
 8001638:	d001      	beq.n	800163e <main+0x17a>
 800163a:	b672      	cpsid	i
  while (1)
 800163c:	e7fe      	b.n	800163c <main+0x178>
  sConfigOC.OCMode = TIM_OCMODE_PWM1;
 800163e:	2360      	movs	r3, #96	; 0x60
 8001640:	9307      	str	r3, [sp, #28]
  sConfigOC.Pulse = ((PWM_PERIOD_CYCLES) / 4);
 8001642:	23fa      	movs	r3, #250	; 0xfa
 8001644:	009b      	lsls	r3, r3, #2
 8001646:	9308      	str	r3, [sp, #32]
  sConfigOC.OCPolarity = TIM_OCPOLARITY_LOW;
 8001648:	2302      	movs	r3, #2
 800164a:	9309      	str	r3, [sp, #36]	; 0x24
  sConfigOC.OCIdleState = TIM_OCIDLESTATE_SET;
 800164c:	33fe      	adds	r3, #254	; 0xfe
 800164e:	930c      	str	r3, [sp, #48]	; 0x30
  sConfigOC.OCNIdleState = TIM_OCNIDLESTATE_SET;
 8001650:	3301      	adds	r3, #1
  sConfigOC.OCFastMode = TIM_OCFAST_DISABLE;
 8001652:	900b      	str	r0, [sp, #44]	; 0x2c
  sConfigOC.OCNIdleState = TIM_OCNIDLESTATE_SET;
 8001654:	33ff      	adds	r3, #255	; 0xff
  if (HAL_TIM_PWM_ConfigChannel(&htim1, &sConfigOC, TIM_CHANNEL_1) != HAL_OK)
 8001656:	0020      	movs	r0, r4
 8001658:	a907      	add	r1, sp, #28
  sConfigOC.OCNPolarity = TIM_OCNPOLARITY_LOW;
 800165a:	960a      	str	r6, [sp, #40]	; 0x28
  sConfigOC.OCNIdleState = TIM_OCNIDLESTATE_SET;
 800165c:	930d      	str	r3, [sp, #52]	; 0x34
  if (HAL_TIM_PWM_ConfigChannel(&htim1, &sConfigOC, TIM_CHANNEL_1) != HAL_OK)
 800165e:	f003 ffc9 	bl	80055f4 <HAL_TIM_PWM_ConfigChannel>
 8001662:	2800      	cmp	r0, #0
 8001664:	d001      	beq.n	800166a <main+0x1a6>
 8001666:	b672      	cpsid	i
  while (1)
 8001668:	e7fe      	b.n	8001668 <main+0x1a4>
  if (HAL_TIM_PWM_ConfigChannel(&htim1, &sConfigOC, TIM_CHANNEL_2) != HAL_OK)
 800166a:	2204      	movs	r2, #4
 800166c:	0020      	movs	r0, r4
 800166e:	a907      	add	r1, sp, #28
 8001670:	f003 ffc0 	bl	80055f4 <HAL_TIM_PWM_ConfigChannel>
 8001674:	2800      	cmp	r0, #0
 8001676:	d001      	beq.n	800167c <main+0x1b8>
 8001678:	b672      	cpsid	i
  while (1)
 800167a:	e7fe      	b.n	800167a <main+0x1b6>
  if (HAL_TIM_PWM_ConfigChannel(&htim1, &sConfigOC, TIM_CHANNEL_3) != HAL_OK)
 800167c:	0032      	movs	r2, r6
 800167e:	0020      	movs	r0, r4
 8001680:	a907      	add	r1, sp, #28
 8001682:	f003 ffb7 	bl	80055f4 <HAL_TIM_PWM_ConfigChannel>
 8001686:	2800      	cmp	r0, #0
 8001688:	d001      	beq.n	800168e <main+0x1ca>
 800168a:	b672      	cpsid	i
  while (1)
 800168c:	e7fe      	b.n	800168c <main+0x1c8>
  sConfigOC.OCMode = TIM_OCMODE_PWM2;
 800168e:	2370      	movs	r3, #112	; 0x70
 8001690:	9307      	str	r3, [sp, #28]
  sConfigOC.Pulse = (((PWM_PERIOD_CYCLES) / 2) - (HTMIN));
 8001692:	4b63      	ldr	r3, [pc, #396]	; (8001820 <main+0x35c>)
  sConfigOC.OCPolarity = TIM_OCPOLARITY_HIGH;
 8001694:	9009      	str	r0, [sp, #36]	; 0x24
  sConfigOC.OCIdleState = TIM_OCIDLESTATE_RESET;
 8001696:	900c      	str	r0, [sp, #48]	; 0x30
  sConfigOC.OCNIdleState = TIM_OCNIDLESTATE_RESET;
 8001698:	900d      	str	r0, [sp, #52]	; 0x34
  if (HAL_TIM_PWM_ConfigChannel(&htim1, &sConfigOC, TIM_CHANNEL_4) != HAL_OK)
 800169a:	220c      	movs	r2, #12
 800169c:	0020      	movs	r0, r4
 800169e:	a907      	add	r1, sp, #28
  sConfigOC.Pulse = (((PWM_PERIOD_CYCLES) / 2) - (HTMIN));
 80016a0:	9308      	str	r3, [sp, #32]
  if (HAL_TIM_PWM_ConfigChannel(&htim1, &sConfigOC, TIM_CHANNEL_4) != HAL_OK)
 80016a2:	f003 ffa7 	bl	80055f4 <HAL_TIM_PWM_ConfigChannel>
 80016a6:	2800      	cmp	r0, #0
 80016a8:	d001      	beq.n	80016ae <main+0x1ea>
 80016aa:	b672      	cpsid	i
  while (1)
 80016ac:	e7fe      	b.n	80016ac <main+0x1e8>
  sBreakDeadTimeConfig.OffStateRunMode = TIM_OSSR_ENABLE;
 80016ae:	2380      	movs	r3, #128	; 0x80
 80016b0:	011b      	lsls	r3, r3, #4
 80016b2:	930e      	str	r3, [sp, #56]	; 0x38
  sBreakDeadTimeConfig.OffStateIDLEMode = TIM_OSSI_ENABLE;
 80016b4:	2380      	movs	r3, #128	; 0x80
 80016b6:	00db      	lsls	r3, r3, #3
 80016b8:	930f      	str	r3, [sp, #60]	; 0x3c
  sBreakDeadTimeConfig.DeadTime = ((DEAD_TIME_COUNTS) / 2);
 80016ba:	230e      	movs	r3, #14
 80016bc:	9311      	str	r3, [sp, #68]	; 0x44
  sBreakDeadTimeConfig.BreakState = TIM_BREAK_ENABLE;
 80016be:	2380      	movs	r3, #128	; 0x80
  sBreakDeadTimeConfig.LockLevel = TIM_LOCKLEVEL_OFF;
 80016c0:	9010      	str	r0, [sp, #64]	; 0x40
  sBreakDeadTimeConfig.BreakState = TIM_BREAK_ENABLE;
 80016c2:	015b      	lsls	r3, r3, #5
  sBreakDeadTimeConfig.BreakPolarity = TIM_BREAKPOLARITY_LOW;
 80016c4:	9013      	str	r0, [sp, #76]	; 0x4c
  sBreakDeadTimeConfig.AutomaticOutput = TIM_AUTOMATICOUTPUT_DISABLE;
 80016c6:	9015      	str	r0, [sp, #84]	; 0x54
  if (HAL_TIMEx_ConfigBreakDeadTime(&htim1, &sBreakDeadTimeConfig) != HAL_OK)
 80016c8:	a90e      	add	r1, sp, #56	; 0x38
 80016ca:	0020      	movs	r0, r4
  sBreakDeadTimeConfig.BreakState = TIM_BREAK_ENABLE;
 80016cc:	9312      	str	r3, [sp, #72]	; 0x48
  if (HAL_TIMEx_ConfigBreakDeadTime(&htim1, &sBreakDeadTimeConfig) != HAL_OK)
 80016ce:	f004 f94f 	bl	8005970 <HAL_TIMEx_ConfigBreakDeadTime>
 80016d2:	2800      	cmp	r0, #0
 80016d4:	d001      	beq.n	80016da <main+0x216>
 80016d6:	b672      	cpsid	i
  while (1)
 80016d8:	e7fe      	b.n	80016d8 <main+0x214>
  TIM_MasterConfigTypeDef sMasterConfig = {0};
 80016da:	2508      	movs	r5, #8
  HAL_TIM_MspPostInit(&htim1);
 80016dc:	0020      	movs	r0, r4
 80016de:	f002 fde1 	bl	80042a4 <HAL_TIM_MspPostInit>
  TIM_ClockConfigTypeDef sClockSourceConfig = {0};
 80016e2:	2210      	movs	r2, #16
 80016e4:	2100      	movs	r1, #0
 80016e6:	a807      	add	r0, sp, #28
 80016e8:	f004 ff0d 	bl	8006506 <memset>
  TIM_HallSensor_InitTypeDef sConfig = {0};
 80016ec:	2210      	movs	r2, #16
 80016ee:	2100      	movs	r1, #0
 80016f0:	a80e      	add	r0, sp, #56	; 0x38
 80016f2:	f004 ff08 	bl	8006506 <memset>
  TIM_MasterConfigTypeDef sMasterConfig = {0};
 80016f6:	002a      	movs	r2, r5
 80016f8:	2100      	movs	r1, #0
 80016fa:	a805      	add	r0, sp, #20
 80016fc:	f004 ff03 	bl	8006506 <memset>
  htim2.Instance = TIM2;
 8001700:	2380      	movs	r3, #128	; 0x80
 8001702:	4c48      	ldr	r4, [pc, #288]	; (8001824 <main+0x360>)
 8001704:	05db      	lsls	r3, r3, #23
 8001706:	6023      	str	r3, [r4, #0]
  htim2.Init.Prescaler = 0;
 8001708:	2300      	movs	r3, #0
  htim2.Init.Period = M1_HALL_TIM_PERIOD;
 800170a:	4a47      	ldr	r2, [pc, #284]	; (8001828 <main+0x364>)
  if (HAL_TIM_Base_Init(&htim2) != HAL_OK)
 800170c:	0020      	movs	r0, r4
  htim2.Init.Prescaler = 0;
 800170e:	6063      	str	r3, [r4, #4]
  htim2.Init.CounterMode = TIM_COUNTERMODE_UP;
 8001710:	60a3      	str	r3, [r4, #8]
  htim2.Init.Period = M1_HALL_TIM_PERIOD;
 8001712:	60e2      	str	r2, [r4, #12]
  htim2.Init.ClockDivision = TIM_CLOCKDIVISION_DIV1;
 8001714:	6123      	str	r3, [r4, #16]
  htim2.Init.AutoReloadPreload = TIM_AUTORELOAD_PRELOAD_DISABLE;
 8001716:	61a3      	str	r3, [r4, #24]
  if (HAL_TIM_Base_Init(&htim2) != HAL_OK)
 8001718:	f003 fee0 	bl	80054dc <HAL_TIM_Base_Init>
 800171c:	2800      	cmp	r0, #0
 800171e:	d001      	beq.n	8001724 <main+0x260>
 8001720:	b672      	cpsid	i
  while (1)
 8001722:	e7fe      	b.n	8001722 <main+0x25e>
  sClockSourceConfig.ClockSource = TIM_CLOCKSOURCE_INTERNAL;
 8001724:	2380      	movs	r3, #128	; 0x80
  if (HAL_TIM_ConfigClockSource(&htim2, &sClockSourceConfig) != HAL_OK)
 8001726:	0020      	movs	r0, r4
  sClockSourceConfig.ClockSource = TIM_CLOCKSOURCE_INTERNAL;
 8001728:	015b      	lsls	r3, r3, #5
  if (HAL_TIM_ConfigClockSource(&htim2, &sClockSourceConfig) != HAL_OK)
 800172a:	a907      	add	r1, sp, #28
  sClockSourceConfig.ClockSource = TIM_CLOCKSOURCE_INTERNAL;
 800172c:	9307      	str	r3, [sp, #28]
  if (HAL_TIM_ConfigClockSource(&htim2, &sClockSourceConfig) != HAL_OK)
 800172e:	f003 fff7 	bl	8005720 <HAL_TIM_ConfigClockSource>
 8001732:	2800      	cmp	r0, #0
 8001734:	d001      	beq.n	800173a <main+0x276>
 8001736:	b672      	cpsid	i
  while (1)
 8001738:	e7fe      	b.n	8001738 <main+0x274>
  sConfig.IC1Polarity = TIM_ICPOLARITY_RISING;
 800173a:	900e      	str	r0, [sp, #56]	; 0x38
  sConfig.IC1Prescaler = TIM_ICPSC_DIV1;
 800173c:	900f      	str	r0, [sp, #60]	; 0x3c
  sConfig.Commutation_Delay = 0;
 800173e:	9011      	str	r0, [sp, #68]	; 0x44
  if (HAL_TIMEx_HallSensor_Init(&htim2, &sConfig) != HAL_OK)
 8001740:	a90e      	add	r1, sp, #56	; 0x38
 8001742:	0020      	movs	r0, r4
  sConfig.IC1Filter = M1_HALL_IC_FILTER;
 8001744:	9510      	str	r5, [sp, #64]	; 0x40
  if (HAL_TIMEx_HallSensor_Init(&htim2, &sConfig) != HAL_OK)
 8001746:	f004 f886 	bl	8005856 <HAL_TIMEx_HallSensor_Init>
 800174a:	2800      	cmp	r0, #0
 800174c:	d001      	beq.n	8001752 <main+0x28e>
 800174e:	b672      	cpsid	i
  while (1)
 8001750:	e7fe      	b.n	8001750 <main+0x28c>
  sMasterConfig.MasterOutputTrigger = TIM_TRGO_OC2REF;
 8001752:	2350      	movs	r3, #80	; 0x50
  sMasterConfig.MasterSlaveMode = TIM_MASTERSLAVEMODE_DISABLE;
 8001754:	9006      	str	r0, [sp, #24]
  if (HAL_TIMEx_MasterConfigSynchronization(&htim2, &sMasterConfig) != HAL_OK)
 8001756:	a905      	add	r1, sp, #20
 8001758:	0020      	movs	r0, r4
  sMasterConfig.MasterOutputTrigger = TIM_TRGO_OC2REF;
 800175a:	9305      	str	r3, [sp, #20]
  if (HAL_TIMEx_MasterConfigSynchronization(&htim2, &sMasterConfig) != HAL_OK)
 800175c:	f004 f8dc 	bl	8005918 <HAL_TIMEx_MasterConfigSynchronization>
 8001760:	1e03      	subs	r3, r0, #0
 8001762:	d001      	beq.n	8001768 <main+0x2a4>
 8001764:	b672      	cpsid	i
  while (1)
 8001766:	e7fe      	b.n	8001766 <main+0x2a2>
  huart1.Instance = USART1;
 8001768:	4830      	ldr	r0, [pc, #192]	; (800182c <main+0x368>)
 800176a:	4a31      	ldr	r2, [pc, #196]	; (8001830 <main+0x36c>)
  huart1.Init.WordLength = UART_WORDLENGTH_8B;
 800176c:	6083      	str	r3, [r0, #8]
  huart1.Instance = USART1;
 800176e:	6002      	str	r2, [r0, #0]
  huart1.Init.BaudRate = 1843200;
 8001770:	22e1      	movs	r2, #225	; 0xe1
 8001772:	0352      	lsls	r2, r2, #13
 8001774:	6042      	str	r2, [r0, #4]
  huart1.Init.Mode = UART_MODE_TX_RX;
 8001776:	220c      	movs	r2, #12
  huart1.Init.StopBits = UART_STOPBITS_1;
 8001778:	60c3      	str	r3, [r0, #12]
  huart1.Init.Parity = UART_PARITY_NONE;
 800177a:	6103      	str	r3, [r0, #16]
  huart1.Init.Mode = UART_MODE_TX_RX;
 800177c:	6142      	str	r2, [r0, #20]
  huart1.Init.HwFlowCtl = UART_HWCONTROL_NONE;
 800177e:	6183      	str	r3, [r0, #24]
  huart1.Init.OverSampling = UART_OVERSAMPLING_16;
 8001780:	61c3      	str	r3, [r0, #28]
  huart1.Init.OneBitSampling = UART_ONE_BIT_SAMPLE_DISABLE;
 8001782:	6203      	str	r3, [r0, #32]
  huart1.AdvancedInit.AdvFeatureInit = UART_ADVFEATURE_NO_INIT;
 8001784:	6243      	str	r3, [r0, #36]	; 0x24
  if (HAL_UART_Init(&huart1) != HAL_OK)
 8001786:	f004 faeb 	bl	8005d60 <HAL_UART_Init>
 800178a:	1e04      	subs	r4, r0, #0
 800178c:	d001      	beq.n	8001792 <main+0x2ce>
 800178e:	b672      	cpsid	i
  while (1)
 8001790:	e7fe      	b.n	8001790 <main+0x2cc>
  MX_MotorControl_Init();
 8001792:	f000 fef9 	bl	8002588 <MX_MotorControl_Init>
  HAL_NVIC_SetPriority(USART1_IRQn, 3, 0);
 8001796:	0022      	movs	r2, r4
 8001798:	2103      	movs	r1, #3
 800179a:	201b      	movs	r0, #27
 800179c:	f003 f918 	bl	80049d0 <HAL_NVIC_SetPriority>
  HAL_NVIC_EnableIRQ(USART1_IRQn);
 80017a0:	201b      	movs	r0, #27
 80017a2:	f003 f93f 	bl	8004a24 <HAL_NVIC_EnableIRQ>
  HAL_NVIC_SetPriority(DMA1_Channel1_IRQn, 1, 0);
 80017a6:	0022      	movs	r2, r4
 80017a8:	2101      	movs	r1, #1
 80017aa:	2009      	movs	r0, #9
 80017ac:	f003 f910 	bl	80049d0 <HAL_NVIC_SetPriority>
  HAL_NVIC_EnableIRQ(DMA1_Channel1_IRQn);
 80017b0:	2009      	movs	r0, #9
 80017b2:	f003 f937 	bl	8004a24 <HAL_NVIC_EnableIRQ>
  HAL_NVIC_SetPriority(DMA1_Channel4_5_IRQn, 0, 0);
 80017b6:	0022      	movs	r2, r4
 80017b8:	0021      	movs	r1, r4
 80017ba:	200b      	movs	r0, #11
 80017bc:	f003 f908 	bl	80049d0 <HAL_NVIC_SetPriority>
  HAL_NVIC_EnableIRQ(DMA1_Channel4_5_IRQn);
 80017c0:	200b      	movs	r0, #11
 80017c2:	f003 f92f 	bl	8004a24 <HAL_NVIC_EnableIRQ>
  HAL_NVIC_SetPriority(DMA1_Channel2_3_IRQn, 3, 0);
 80017c6:	0022      	movs	r2, r4
 80017c8:	2103      	movs	r1, #3
 80017ca:	200a      	movs	r0, #10
 80017cc:	f003 f900 	bl	80049d0 <HAL_NVIC_SetPriority>
  HAL_NVIC_EnableIRQ(DMA1_Channel2_3_IRQn);
 80017d0:	200a      	movs	r0, #10
 80017d2:	f003 f927 	bl	8004a24 <HAL_NVIC_EnableIRQ>
  HAL_NVIC_SetPriority(TIM1_BRK_UP_TRG_COM_IRQn, 0, 0);
 80017d6:	0022      	movs	r2, r4
 80017d8:	0021      	movs	r1, r4
 80017da:	200d      	movs	r0, #13
 80017dc:	f003 f8f8 	bl	80049d0 <HAL_NVIC_SetPriority>
  HAL_NVIC_EnableIRQ(TIM1_BRK_UP_TRG_COM_IRQn);
 80017e0:	200d      	movs	r0, #13
 80017e2:	f003 f91f 	bl	8004a24 <HAL_NVIC_EnableIRQ>
  HAL_NVIC_SetPriority(TIM2_IRQn, 3, 0);
 80017e6:	0022      	movs	r2, r4
 80017e8:	2103      	movs	r1, #3
 80017ea:	200f      	movs	r0, #15
 80017ec:	f003 f8f0 	bl	80049d0 <HAL_NVIC_SetPriority>
  HAL_NVIC_EnableIRQ(TIM2_IRQn);
 80017f0:	200f      	movs	r0, #15
 80017f2:	f003 f917 	bl	8004a24 <HAL_NVIC_EnableIRQ>
  HAL_NVIC_SetPriority(EXTI4_15_IRQn, 3, 0);
 80017f6:	2007      	movs	r0, #7
 80017f8:	0022      	movs	r2, r4
 80017fa:	2103      	movs	r1, #3
 80017fc:	f003 f8e8 	bl	80049d0 <HAL_NVIC_SetPriority>
  HAL_NVIC_EnableIRQ(EXTI4_15_IRQn);
 8001800:	2007      	movs	r0, #7
 8001802:	f003 f90f 	bl	8004a24 <HAL_NVIC_EnableIRQ>
  while (1)
 8001806:	e7fe      	b.n	8001806 <main+0x342>
 8001808:	40021000 	.word	0x40021000
 800180c:	48000800 	.word	0x48000800
 8001810:	200003e0 	.word	0x200003e0
 8001814:	40012400 	.word	0x40012400
 8001818:	20000574 	.word	0x20000574
 800181c:	40012c00 	.word	0x40012c00
 8001820:	00000792 	.word	0x00000792
 8001824:	200005bc 	.word	0x200005bc
 8001828:	0000ffff 	.word	0x0000ffff
 800182c:	20000604 	.word	0x20000604
 8001830:	40013800 	.word	0x40013800

08001834 <Error_Handler>:
 8001834:	b672      	cpsid	i
  while (1)
 8001836:	e7fe      	b.n	8001836 <Error_Handler+0x2>

08001838 <MC_StartMotor1>:
  * Note also that if the startup sequence fails the #RUN state may never be reached.
  *
  * @retval returns true if the command is successfully executed, false otherwise.
  */
__weak bool MC_StartMotor1(void)
{
 8001838:	b510      	push	{r4, lr}
  return (MCI_StartMotor(pMCI[M1]));
 800183a:	4b02      	ldr	r3, [pc, #8]	; (8001844 <MC_StartMotor1+0xc>)
 800183c:	6818      	ldr	r0, [r3, #0]
 800183e:	f000 f87d 	bl	800193c <MCI_StartMotor>
}
 8001842:	bd10      	pop	{r4, pc}
 8001844:	20000984 	.word	0x20000984

08001848 <MC_StopMotor1>:
  * machine and check if the #IDLE state has been reached.
  *
  * @retval returns true if the command is successfully executed, false otherwise.
  */
__weak bool MC_StopMotor1(void)
{
 8001848:	b510      	push	{r4, lr}
  return (MCI_StopMotor(pMCI[M1]));
 800184a:	4b02      	ldr	r3, [pc, #8]	; (8001854 <MC_StopMotor1+0xc>)
 800184c:	6818      	ldr	r0, [r3, #0]
 800184e:	f000 f8a6 	bl	800199e <MCI_StopMotor>
}
 8001852:	bd10      	pop	{r4, pc}
 8001854:	20000984 	.word	0x20000984

08001858 <MC_GetSTMStateMotor1>:

/**
 * @brief returns the current state of Motor 1 state machine
 */
__weak MCI_State_t MC_GetSTMStateMotor1(void)
{
 8001858:	b510      	push	{r4, lr}
  return (MCI_GetSTMState(pMCI[M1]));
 800185a:	4b02      	ldr	r3, [pc, #8]	; (8001864 <MC_GetSTMStateMotor1+0xc>)
 800185c:	6818      	ldr	r0, [r3, #0]
 800185e:	f000 f867 	bl	8001930 <MCI_GetSTMState>
}
 8001862:	bd10      	pop	{r4, pc}
 8001864:	20000984 	.word	0x20000984

08001868 <MC_ProfilerCommand>:
 * @brief Not implemented MC_Profiler function.
 *  */ //cstat !MISRAC2012-Rule-2.7 !RED-unused-param  !MISRAC2012-Rule-2.7  !MISRAC2012-Rule-8.13
__weak uint8_t MC_ProfilerCommand(uint16_t rxLength, uint8_t *rxBuffer, int16_t txSyncFreeSpace, uint16_t *txLength, uint8_t *txBuffer)
{
  return (MCP_CMD_UNKNOWN);
}
 8001868:	2002      	movs	r0, #2
 800186a:	4770      	bx	lr

0800186c <MC_APP_BootHook>:
   */

/* USER CODE BEGIN BootHook */

/* USER CODE END BootHook */
}
 800186c:	4770      	bx	lr

0800186e <MC_APP_PostMediumFrequencyHook_M1>:
 800186e:	4770      	bx	lr

08001870 <MCI_Init>:
  else
  {
#endif
    pHandle->pSTC = pSTC;
    pHandle->pFOCVars = pFOCVars;
    pHandle->pPWM = pPWMHandle;
 8001870:	6083      	str	r3, [r0, #8]

    /* Buffer related initialization */
    pHandle->lastCommand = MCI_NOCOMMANDSYET;
 8001872:	2300      	movs	r3, #0
 8001874:	7303      	strb	r3, [r0, #12]
    pHandle->hFinalSpeed = 0;
    pHandle->hFinalTorque = 0;
    pHandle->hDurationms = 0;
 8001876:	61c3      	str	r3, [r0, #28]
    pHandle->pSTC = pSTC;
 8001878:	6001      	str	r1, [r0, #0]
    pHandle->pFOCVars = pFOCVars;
 800187a:	6042      	str	r2, [r0, #4]
    pHandle->hFinalSpeed = 0;
 800187c:	81c3      	strh	r3, [r0, #14]
    pHandle->hFinalTorque = 0;
 800187e:	8203      	strh	r3, [r0, #16]
    pHandle->CommandState = MCI_BUFFER_EMPTY;
    pHandle->DirectCommand = MCI_NO_COMMAND;
    pHandle->State = IDLE;
    pHandle->CurrentFaults = MC_NO_FAULTS;
 8001880:	6203      	str	r3, [r0, #32]
    pHandle->CommandState = MCI_BUFFER_EMPTY;
 8001882:	3005      	adds	r0, #5
 8001884:	77c3      	strb	r3, [r0, #31]
    pHandle->PastFaults = MC_NO_FAULTS;
#ifdef NULL_PTR_CHECK_MC_INT
  }
#endif
}
 8001886:	4770      	bx	lr

08001888 <MCI_ExecSpeedRamp>:
    /* Nothing to do */
  }
  else
  {
#endif
    pHandle->lastCommand = MCI_CMD_EXECSPEEDRAMP;
 8001888:	2301      	movs	r3, #1
 800188a:	7303      	strb	r3, [r0, #12]
    pHandle->hFinalSpeed = hFinalSpeed;
    pHandle->hDurationms = hDurationms;
    pHandle->CommandState = MCI_COMMAND_NOT_ALREADY_EXECUTED;
 800188c:	4b02      	ldr	r3, [pc, #8]	; (8001898 <MCI_ExecSpeedRamp+0x10>)
    pHandle->hFinalSpeed = hFinalSpeed;
 800188e:	81c1      	strh	r1, [r0, #14]
    pHandle->hDurationms = hDurationms;
 8001890:	8382      	strh	r2, [r0, #28]
    pHandle->CommandState = MCI_COMMAND_NOT_ALREADY_EXECUTED;
 8001892:	8483      	strh	r3, [r0, #36]	; 0x24
    pHandle->LastModalitySetByUser = MCM_SPEED_MODE;

#ifdef NULL_PTR_CHECK_MC_INT
  }
#endif
}
 8001894:	4770      	bx	lr
 8001896:	46c0      	nop			; (mov r8, r8)
 8001898:	00000301 	.word	0x00000301

0800189c <MCI_ExecTorqueRamp>:
    /* Nothing to do */
  }
  else
  {
#endif
    pHandle->lastCommand = MCI_CMD_EXECTORQUERAMP;
 800189c:	2302      	movs	r3, #2
 800189e:	7303      	strb	r3, [r0, #12]
    pHandle->hFinalTorque = hFinalTorque;
    pHandle->hDurationms = hDurationms;
    pHandle->CommandState = MCI_COMMAND_NOT_ALREADY_EXECUTED;
 80018a0:	4b02      	ldr	r3, [pc, #8]	; (80018ac <MCI_ExecTorqueRamp+0x10>)
    pHandle->hFinalTorque = hFinalTorque;
 80018a2:	8201      	strh	r1, [r0, #16]
    pHandle->hDurationms = hDurationms;
 80018a4:	8382      	strh	r2, [r0, #28]
    pHandle->CommandState = MCI_COMMAND_NOT_ALREADY_EXECUTED;
 80018a6:	8483      	strh	r3, [r0, #36]	; 0x24
    pHandle->LastModalitySetByUser = MCM_TORQUE_MODE;
#ifdef NULL_PTR_CHECK_MC_INT
  }
#endif
}
 80018a8:	4770      	bx	lr
 80018aa:	46c0      	nop			; (mov r8, r8)
 80018ac:	00000401 	.word	0x00000401

080018b0 <MCI_FaultProcessing>:
  }
  else
  {
#endif
    /* Set current errors */
    pHandle->CurrentFaults = (pHandle->CurrentFaults | hSetErrors ) & (~hResetErrors);
 80018b0:	8c03      	ldrh	r3, [r0, #32]
 80018b2:	430b      	orrs	r3, r1
 80018b4:	4393      	bics	r3, r2
 80018b6:	8403      	strh	r3, [r0, #32]
    pHandle->PastFaults |= hSetErrors;
 80018b8:	8c43      	ldrh	r3, [r0, #34]	; 0x22
 80018ba:	4319      	orrs	r1, r3
 80018bc:	8441      	strh	r1, [r0, #34]	; 0x22
#ifdef NULL_PTR_CHECK_MC_INT
  }
#endif
}
 80018be:	4770      	bx	lr

080018c0 <MCI_ExecBufferedCommands>:
  *         and eventually to execute the buffered command if the condition
  *         occurs.
  * @param  pHandle Pointer on the component instance to work on.
  */
__weak void MCI_ExecBufferedCommands(MCI_Handle_t *pHandle)
{
 80018c0:	b570      	push	{r4, r5, r6, lr}
    /* Nothing to do */
  }
  else
  {
#endif
    if ( pHandle->CommandState == MCI_COMMAND_NOT_ALREADY_EXECUTED )
 80018c2:	1d45      	adds	r5, r0, #5
 80018c4:	7fea      	ldrb	r2, [r5, #31]
{
 80018c6:	0004      	movs	r4, r0
    if ( pHandle->CommandState == MCI_COMMAND_NOT_ALREADY_EXECUTED )
 80018c8:	2a01      	cmp	r2, #1
 80018ca:	d118      	bne.n	80018fe <MCI_ExecBufferedCommands+0x3e>
    {
      bool commandHasBeenExecuted = false;
      switch (pHandle->lastCommand)
 80018cc:	7b03      	ldrb	r3, [r0, #12]
 80018ce:	2b02      	cmp	r3, #2
 80018d0:	d016      	beq.n	8001900 <MCI_ExecBufferedCommands+0x40>
 80018d2:	2b03      	cmp	r3, #3
 80018d4:	d020      	beq.n	8001918 <MCI_ExecBufferedCommands+0x58>
 80018d6:	2b01      	cmp	r3, #1
 80018d8:	d128      	bne.n	800192c <MCI_ExecBufferedCommands+0x6c>
      {
        case MCI_CMD_EXECSPEEDRAMP:
        {
          pHandle->pFOCVars->bDriveInput = INTERNAL;
 80018da:	2200      	movs	r2, #0
 80018dc:	6843      	ldr	r3, [r0, #4]
          STC_SetControlMode(pHandle->pSTC, MCM_SPEED_MODE);
 80018de:	2103      	movs	r1, #3
          pHandle->pFOCVars->bDriveInput = INTERNAL;
 80018e0:	3305      	adds	r3, #5
 80018e2:	77da      	strb	r2, [r3, #31]
          STC_SetControlMode(pHandle->pSTC, MCM_SPEED_MODE);
 80018e4:	6800      	ldr	r0, [r0, #0]
 80018e6:	f004 fd8e 	bl	8006406 <STC_SetControlMode>
          commandHasBeenExecuted = STC_ExecRamp(pHandle->pSTC, pHandle->hFinalSpeed, pHandle->hDurationms);
 80018ea:	8ba2      	ldrh	r2, [r4, #28]
 80018ec:	230e      	movs	r3, #14
 80018ee:	5ee1      	ldrsh	r1, [r4, r3]

        case MCI_CMD_EXECTORQUERAMP:
        {
          pHandle->pFOCVars->bDriveInput = INTERNAL;
          STC_SetControlMode(pHandle->pSTC, MCM_TORQUE_MODE);
          commandHasBeenExecuted = STC_ExecRamp(pHandle->pSTC, pHandle->hFinalTorque, pHandle->hDurationms);
 80018f0:	6820      	ldr	r0, [r4, #0]
 80018f2:	f004 fd8c 	bl	800640e <STC_ExecRamp>

        default:
          break;
      }

      if (commandHasBeenExecuted)
 80018f6:	2800      	cmp	r0, #0
 80018f8:	d018      	beq.n	800192c <MCI_ExecBufferedCommands+0x6c>
      {
        pHandle->CommandState = MCI_COMMAND_EXECUTED_SUCCESSFULLY;
 80018fa:	2302      	movs	r3, #2
      }
      else
      {
        pHandle->CommandState = MCI_COMMAND_EXECUTED_UNSUCCESSFULLY;
 80018fc:	77eb      	strb	r3, [r5, #31]
      }
    }
#ifdef NULL_PTR_CHECK_MC_INT
  }
#endif
}
 80018fe:	bd70      	pop	{r4, r5, r6, pc}
          pHandle->pFOCVars->bDriveInput = INTERNAL;
 8001900:	2200      	movs	r2, #0
 8001902:	6843      	ldr	r3, [r0, #4]
          STC_SetControlMode(pHandle->pSTC, MCM_TORQUE_MODE);
 8001904:	2104      	movs	r1, #4
          pHandle->pFOCVars->bDriveInput = INTERNAL;
 8001906:	3305      	adds	r3, #5
 8001908:	77da      	strb	r2, [r3, #31]
          STC_SetControlMode(pHandle->pSTC, MCM_TORQUE_MODE);
 800190a:	6800      	ldr	r0, [r0, #0]
 800190c:	f004 fd7b 	bl	8006406 <STC_SetControlMode>
          commandHasBeenExecuted = STC_ExecRamp(pHandle->pSTC, pHandle->hFinalTorque, pHandle->hDurationms);
 8001910:	8ba2      	ldrh	r2, [r4, #28]
 8001912:	2310      	movs	r3, #16
 8001914:	5ee1      	ldrsh	r1, [r4, r3]
 8001916:	e7eb      	b.n	80018f0 <MCI_ExecBufferedCommands+0x30>
          pHandle->pFOCVars->Iqdref = pHandle->Iqdref;
 8001918:	0021      	movs	r1, r4
          pHandle->pFOCVars->bDriveInput = EXTERNAL;
 800191a:	6840      	ldr	r0, [r0, #4]
          pHandle->pFOCVars->Iqdref = pHandle->Iqdref;
 800191c:	3112      	adds	r1, #18
          pHandle->pFOCVars->bDriveInput = EXTERNAL;
 800191e:	1d43      	adds	r3, r0, #5
 8001920:	77da      	strb	r2, [r3, #31]
          pHandle->pFOCVars->Iqdref = pHandle->Iqdref;
 8001922:	3010      	adds	r0, #16
 8001924:	2204      	movs	r2, #4
 8001926:	f004 fe1b 	bl	8006560 <memcpy>
      if (commandHasBeenExecuted)
 800192a:	e7e6      	b.n	80018fa <MCI_ExecBufferedCommands+0x3a>
        pHandle->CommandState = MCI_COMMAND_EXECUTED_UNSUCCESSFULLY;
 800192c:	2303      	movs	r3, #3
 800192e:	e7e5      	b.n	80018fc <MCI_ExecBufferedCommands+0x3c>

08001930 <MCI_GetSTMState>:
__weak MCI_State_t MCI_GetSTMState(MCI_Handle_t *pHandle) //cstat !MISRAC2012-Rule-8.13
{
#ifdef NULL_PTR_CHECK_MC_INT
  return ((MC_NULL == pHandle) ? FAULT_NOW : pHandle->State);
#else
  return (pHandle->State);
 8001930:	7fc0      	ldrb	r0, [r0, #31]
#endif
}
 8001932:	4770      	bx	lr

08001934 <MCI_GetOccurredFaults>:
__weak uint16_t MCI_GetOccurredFaults(MCI_Handle_t *pHandle) //cstat !MISRAC2012-Rule-8.13
{
#ifdef NULL_PTR_CHECK_MC_INT
  return ((MC_NULL == pHandle) ? MC_SW_ERROR : (uint16_t)pHandle->PastFaults);
#else
  return ((uint16_t)pHandle->PastFaults);
 8001934:	8c40      	ldrh	r0, [r0, #34]	; 0x22
#endif
}
 8001936:	4770      	bx	lr

08001938 <MCI_GetCurrentFaults>:
__weak uint16_t MCI_GetCurrentFaults(MCI_Handle_t *pHandle) //cstat !MISRAC2012-Rule-8.13
{
#ifdef NULL_PTR_CHECK_MC_INT
  return ((MC_NULL == pHandle) ? MC_SW_ERROR : (uint16_t)pHandle->CurrentFaults);
#else
  return ((uint16_t)pHandle->CurrentFaults);
 8001938:	8c00      	ldrh	r0, [r0, #32]
#endif
}
 800193a:	4770      	bx	lr

0800193c <MCI_StartMotor>:
{
 800193c:	b510      	push	{r4, lr}
 800193e:	0004      	movs	r4, r0
    if ((IDLE == MCI_GetSTMState(pHandle)) &&
 8001940:	f7ff fff6 	bl	8001930 <MCI_GetSTMState>
 8001944:	2800      	cmp	r0, #0
 8001946:	d001      	beq.n	800194c <MCI_StartMotor+0x10>
  bool retVal = false;
 8001948:	2000      	movs	r0, #0
}
 800194a:	bd10      	pop	{r4, pc}
        (MC_NO_FAULTS == MCI_GetOccurredFaults(pHandle)) &&
 800194c:	0020      	movs	r0, r4
 800194e:	f7ff fff1 	bl	8001934 <MCI_GetOccurredFaults>
    if ((IDLE == MCI_GetSTMState(pHandle)) &&
 8001952:	2800      	cmp	r0, #0
 8001954:	d1f8      	bne.n	8001948 <MCI_StartMotor+0xc>
        (MC_NO_FAULTS == MCI_GetCurrentFaults(pHandle)))
 8001956:	0020      	movs	r0, r4
 8001958:	f7ff ffee 	bl	8001938 <MCI_GetCurrentFaults>
        (MC_NO_FAULTS == MCI_GetOccurredFaults(pHandle)) &&
 800195c:	2800      	cmp	r0, #0
 800195e:	d1f3      	bne.n	8001948 <MCI_StartMotor+0xc>
      pHandle->DirectCommand = MCI_START;
 8001960:	3001      	adds	r0, #1
 8001962:	77a0      	strb	r0, [r4, #30]
      pHandle->CommandState = MCI_COMMAND_NOT_ALREADY_EXECUTED;
 8001964:	3405      	adds	r4, #5
 8001966:	77e0      	strb	r0, [r4, #31]
      retVal = true;
 8001968:	e7ef      	b.n	800194a <MCI_StartMotor+0xe>

0800196a <MCI_StartWithPolarizationMotor>:
{
 800196a:	b510      	push	{r4, lr}
 800196c:	0004      	movs	r4, r0
    if ((IDLE == MCI_GetSTMState(pHandle)) &&
 800196e:	f7ff ffdf 	bl	8001930 <MCI_GetSTMState>
 8001972:	2800      	cmp	r0, #0
 8001974:	d001      	beq.n	800197a <MCI_StartWithPolarizationMotor+0x10>
  bool retVal = true;
 8001976:	2001      	movs	r0, #1
}
 8001978:	bd10      	pop	{r4, pc}
        (MC_NO_FAULTS == MCI_GetOccurredFaults(pHandle)) &&
 800197a:	0020      	movs	r0, r4
 800197c:	f7ff ffda 	bl	8001934 <MCI_GetOccurredFaults>
    if ((IDLE == MCI_GetSTMState(pHandle)) &&
 8001980:	2800      	cmp	r0, #0
 8001982:	d1f8      	bne.n	8001976 <MCI_StartWithPolarizationMotor+0xc>
        (MC_NO_FAULTS == MCI_GetCurrentFaults(pHandle)))
 8001984:	0020      	movs	r0, r4
 8001986:	f7ff ffd7 	bl	8001938 <MCI_GetCurrentFaults>
        (MC_NO_FAULTS == MCI_GetOccurredFaults(pHandle)) &&
 800198a:	2800      	cmp	r0, #0
 800198c:	d1f3      	bne.n	8001976 <MCI_StartWithPolarizationMotor+0xc>
      pHandle->DirectCommand = MCI_START;
 800198e:	2301      	movs	r3, #1
      pHandle->CommandState = MCI_COMMAND_NOT_ALREADY_EXECUTED;
 8001990:	1d62      	adds	r2, r4, #5
      pHandle->DirectCommand = MCI_START;
 8001992:	77a3      	strb	r3, [r4, #30]
      pHandle->CommandState = MCI_COMMAND_NOT_ALREADY_EXECUTED;
 8001994:	77d3      	strb	r3, [r2, #31]
      pHandle->pPWM->offsetCalibStatus = false;
 8001996:	68a3      	ldr	r3, [r4, #8]
 8001998:	3381      	adds	r3, #129	; 0x81
 800199a:	7018      	strb	r0, [r3, #0]
      retVal = false;
 800199c:	e7ec      	b.n	8001978 <MCI_StartWithPolarizationMotor+0xe>

0800199e <MCI_StopMotor>:
{
 800199e:	b570      	push	{r4, r5, r6, lr}
 80019a0:	0004      	movs	r4, r0
      status = false;
 80019a2:	2500      	movs	r5, #0
    State = MCI_GetSTMState(pHandle);
 80019a4:	f7ff ffc4 	bl	8001930 <MCI_GetSTMState>
    if ((IDLE == State) || (ICLWAIT == State))
 80019a8:	42a8      	cmp	r0, r5
 80019aa:	d003      	beq.n	80019b4 <MCI_StopMotor+0x16>
 80019ac:	380c      	subs	r0, #12
 80019ae:	1e43      	subs	r3, r0, #1
 80019b0:	4198      	sbcs	r0, r3
 80019b2:	b2c5      	uxtb	r5, r0
    if ((MC_NO_FAULTS == MCI_GetOccurredFaults(pHandle)) &&
 80019b4:	0020      	movs	r0, r4
 80019b6:	f7ff ffbd 	bl	8001934 <MCI_GetOccurredFaults>
 80019ba:	2800      	cmp	r0, #0
 80019bc:	d002      	beq.n	80019c4 <MCI_StopMotor+0x26>
  bool retVal = false;
 80019be:	2500      	movs	r5, #0
}
 80019c0:	0028      	movs	r0, r5
 80019c2:	bd70      	pop	{r4, r5, r6, pc}
        (MC_NO_FAULTS == MCI_GetCurrentFaults(pHandle)) &&
 80019c4:	0020      	movs	r0, r4
 80019c6:	f7ff ffb7 	bl	8001938 <MCI_GetCurrentFaults>
    if ((MC_NO_FAULTS == MCI_GetOccurredFaults(pHandle)) &&
 80019ca:	2800      	cmp	r0, #0
 80019cc:	d1f7      	bne.n	80019be <MCI_StopMotor+0x20>
        (MC_NO_FAULTS == MCI_GetCurrentFaults(pHandle)) &&
 80019ce:	2d00      	cmp	r5, #0
 80019d0:	d0f5      	beq.n	80019be <MCI_StopMotor+0x20>
      pHandle->DirectCommand = MCI_STOP;
 80019d2:	2305      	movs	r3, #5
 80019d4:	77a3      	strb	r3, [r4, #30]
      retVal = true;
 80019d6:	e7f3      	b.n	80019c0 <MCI_StopMotor+0x22>

080019d8 <MCI_FaultAcknowledged>:
{
 80019d8:	b510      	push	{r4, lr}
 80019da:	0004      	movs	r4, r0
    if ((FAULT_OVER == MCI_GetSTMState(pHandle)) && (MC_NO_FAULTS == MCI_GetCurrentFaults(pHandle)))
 80019dc:	f7ff ffa8 	bl	8001930 <MCI_GetSTMState>
 80019e0:	280b      	cmp	r0, #11
 80019e2:	d001      	beq.n	80019e8 <MCI_FaultAcknowledged+0x10>
  bool reVal = false;
 80019e4:	2000      	movs	r0, #0
}
 80019e6:	bd10      	pop	{r4, pc}
    if ((FAULT_OVER == MCI_GetSTMState(pHandle)) && (MC_NO_FAULTS == MCI_GetCurrentFaults(pHandle)))
 80019e8:	0020      	movs	r0, r4
 80019ea:	f7ff ffa5 	bl	8001938 <MCI_GetCurrentFaults>
 80019ee:	2800      	cmp	r0, #0
 80019f0:	d1f8      	bne.n	80019e4 <MCI_FaultAcknowledged+0xc>
      pHandle->DirectCommand = MCI_ACK_FAULTS;
 80019f2:	2302      	movs	r3, #2
      pHandle->PastFaults = MC_NO_FAULTS;
 80019f4:	8460      	strh	r0, [r4, #34]	; 0x22
      pHandle->DirectCommand = MCI_ACK_FAULTS;
 80019f6:	77a3      	strb	r3, [r4, #30]
      reVal = true;
 80019f8:	3001      	adds	r0, #1
 80019fa:	e7f4      	b.n	80019e6 <MCI_FaultAcknowledged+0xe>

080019fc <MCI_GetFaultState>:
    LocalFaultState = MC_SW_ERROR | (MC_SW_ERROR << 16);
  }
  else
  {
#endif
    LocalFaultState = (uint32_t)(pHandle->PastFaults);
 80019fc:	8c43      	ldrh	r3, [r0, #34]	; 0x22
    LocalFaultState |= (uint32_t)(pHandle->CurrentFaults) << 16;
 80019fe:	8c00      	ldrh	r0, [r0, #32]
 8001a00:	0400      	lsls	r0, r0, #16
 8001a02:	4318      	orrs	r0, r3
#ifdef NULL_PTR_CHECK_MC_INT
  }
#endif
  return (LocalFaultState);
}
 8001a04:	4770      	bx	lr

08001a06 <MCI_GetControlMode>:
__weak MC_ControlMode_t MCI_GetControlMode(MCI_Handle_t *pHandle) //cstat !MISRAC2012-Rule-8.13
{
#ifdef NULL_PTR_CHECK_MC_INT
  return ((MC_NULL == pHandle) ? MCM_TORQUE_MODE : pHandle->LastModalitySetByUser);
#else
  return (pHandle->LastModalitySetByUser);
 8001a06:	3006      	adds	r0, #6
 8001a08:	7fc0      	ldrb	r0, [r0, #31]
#endif
}
 8001a0a:	4770      	bx	lr

08001a0c <MCI_GetLastRampFinalSpeed>:
  {
    retVal = pHandle->hFinalSpeed;
  }
  return (retVal);
#else
  return (pHandle->hFinalSpeed);
 8001a0c:	230e      	movs	r3, #14
 8001a0e:	5ec0      	ldrsh	r0, [r0, r3]
#endif
}
 8001a10:	4770      	bx	lr

08001a12 <MCI_GetLastRampFinalDuration>:
  {
    retVal = pHandle->hDurationms;
  }
  return (retVal);
#else
  return (pHandle->hDurationms);
 8001a12:	8b80      	ldrh	r0, [r0, #28]
#endif
}
 8001a14:	4770      	bx	lr

08001a16 <MCI_StopRamp>:
/**
  * @brief  Stop the execution of ongoing ramp.
  * @param  pHandle Pointer on the component instance to work on.
  */
__weak void MCI_StopRamp(MCI_Handle_t *pHandle)
{
 8001a16:	b510      	push	{r4, lr}
    /* Nothing to do */
  }
  else
  {
#endif
    STC_StopRamp(pHandle->pSTC);
 8001a18:	6800      	ldr	r0, [r0, #0]
 8001a1a:	f004 fd36 	bl	800648a <STC_StopRamp>
#ifdef NULL_PTR_CHECK_MC_INT
  }
#endif
}
 8001a1e:	bd10      	pop	{r4, pc}

08001a20 <MCI_GetAvrgMecSpeedUnit>:
  *         the unit defined by #SPEED_UNIT and related to the sensor actually
  *         used by FOC algorithm
  * @param  pHandle Pointer on the component instance to work on.
  */
__weak int16_t MCI_GetAvrgMecSpeedUnit(MCI_Handle_t *pHandle)
{
 8001a20:	b510      	push	{r4, lr}
    temp_speed = 0;
  }
  else
  {
#endif
    SpeednPosFdbk_Handle_t * SpeedSensor = STC_GetSpeedSensor(pHandle->pSTC);
 8001a22:	6800      	ldr	r0, [r0, #0]
 8001a24:	f004 fcde 	bl	80063e4 <STC_GetSpeedSensor>
    temp_speed = SPD_GetAvrgMecSpeedUnit(SpeedSensor);
 8001a28:	f004 fc8b 	bl	8006342 <SPD_GetAvrgMecSpeedUnit>
#ifdef NULL_PTR_CHECK_MC_INT
  }
#endif
  return (temp_speed);
}
 8001a2c:	bd10      	pop	{r4, pc}

08001a2e <MCI_GetMecSpeedRefUnit>:
  *
  * @param  pHandle Pointer on the component instance to work on.
  *
  */
__weak int16_t MCI_GetMecSpeedRefUnit(MCI_Handle_t *pHandle)
{
 8001a2e:	b510      	push	{r4, lr}
#ifdef NULL_PTR_CHECK_MC_INT
  return ((MC_NULL == pHandle) ? 0 : STC_GetMecSpeedRefUnit(pHandle->pSTC));
#else
  return (STC_GetMecSpeedRefUnit(pHandle->pSTC));
 8001a30:	6800      	ldr	r0, [r0, #0]
 8001a32:	f004 fce2 	bl	80063fa <STC_GetMecSpeedRefUnit>
#endif
}
 8001a36:	bd10      	pop	{r4, pc}

08001a38 <MCI_GetVqd>:
  * @brief  It returns stator current Vqd in qd_t format
  * @param  pHandle Pointer on the component instance to work on.
  * @retval qd_t Stator current Vqd
  */
__weak qd_t MCI_GetVqd(MCI_Handle_t *pHandle) //cstat !MISRAC2012-Rule-8.13
{
 8001a38:	b507      	push	{r0, r1, r2, lr}
  {
    tempVal = pHandle->pFOCVars->Vqd;
  }
  return (tempVal);
#else
  return (pHandle->pFOCVars->Vqd);
 8001a3a:	6841      	ldr	r1, [r0, #4]
 8001a3c:	2204      	movs	r2, #4
 8001a3e:	3116      	adds	r1, #22
 8001a40:	a801      	add	r0, sp, #4
 8001a42:	f004 fd8d 	bl	8006560 <memcpy>
 8001a46:	466b      	mov	r3, sp
 8001a48:	466a      	mov	r2, sp
 8001a4a:	88db      	ldrh	r3, [r3, #6]
 8001a4c:	8890      	ldrh	r0, [r2, #4]
 8001a4e:	041b      	lsls	r3, r3, #16
 8001a50:	4318      	orrs	r0, r3
#endif
}
 8001a52:	bd0e      	pop	{r1, r2, r3, pc}

08001a54 <MCI_GetValphabeta>:
  * @brief  It returns stator current Valphabeta in alphabeta_t format
  * @param  pHandle Pointer on the component instance to work on.
  * @retval alphabeta_t Stator current Valphabeta
  */
__weak alphabeta_t MCI_GetValphabeta(MCI_Handle_t *pHandle) //cstat !MISRAC2012-Rule-8.13
{
 8001a54:	b507      	push	{r0, r1, r2, lr}
  {
    tempVal = pHandle->pFOCVars->Valphabeta;
  }
  return (tempVal);
#else
  return (pHandle->pFOCVars->Valphabeta);
 8001a56:	6841      	ldr	r1, [r0, #4]
 8001a58:	2204      	movs	r2, #4
 8001a5a:	311a      	adds	r1, #26
 8001a5c:	a801      	add	r0, sp, #4
 8001a5e:	f004 fd7f 	bl	8006560 <memcpy>
 8001a62:	466b      	mov	r3, sp
 8001a64:	466a      	mov	r2, sp
 8001a66:	88db      	ldrh	r3, [r3, #6]
 8001a68:	8890      	ldrh	r0, [r2, #4]
 8001a6a:	041b      	lsls	r3, r3, #16
 8001a6c:	4318      	orrs	r0, r3
#endif
}
 8001a6e:	bd0e      	pop	{r1, r2, r3, pc}

08001a70 <MCI_GetTeref>:
__weak int16_t MCI_GetTeref(MCI_Handle_t *pHandle) //cstat !MISRAC2012-Rule-8.13
{
#ifdef NULL_PTR_CHECK_MC_INT
  return ((MC_NULL == pHandle) ? 0 : pHandle->pFOCVars->hTeref);
#else
  return (pHandle->pFOCVars->hTeref);
 8001a70:	6843      	ldr	r3, [r0, #4]
 8001a72:	201e      	movs	r0, #30
 8001a74:	5e18      	ldrsh	r0, [r3, r0]
#endif
}
 8001a76:	4770      	bx	lr

08001a78 <MCI_Clear_Iqdref>:
/**
  * @brief  It re-initializes Iqdref variables with their default values.
  * @param  pHandle Pointer on the component instance to work on.
  */
__weak void MCI_Clear_Iqdref(MCI_Handle_t *pHandle)
{
 8001a78:	b510      	push	{r4, lr}
    /* Nothing to do */
  }
  else
  {
#endif
    pHandle->pFOCVars->Iqdref = STC_GetDefaultIqdref(pHandle->pSTC);
 8001a7a:	c811      	ldmia	r0, {r0, r4}
 8001a7c:	f004 fd33 	bl	80064e6 <STC_GetDefaultIqdref>
 8001a80:	8220      	strh	r0, [r4, #16]
 8001a82:	0c00      	lsrs	r0, r0, #16
 8001a84:	8260      	strh	r0, [r4, #18]
#ifdef NULL_PTR_CHECK_MC_INT
  }
#endif
}
 8001a86:	bd10      	pop	{r4, pc}

08001a88 <MCM_Clarke>:
  *                       beta = -(2*b+a)/sqrt(3)
  * @param  Input: stator values a and b in ab_t format.
  * @retval Stator values alpha and beta in alphabeta_t format.
  */
__weak alphabeta_t MCM_Clarke(ab_t Input)
{
 8001a88:	b51f      	push	{r0, r1, r2, r3, r4, lr}
#else
  wbeta_tmp = (-(a_divSQRT3_tmp) - (b_divSQRT3_tmp) - (b_divSQRT3_tmp)) / 32768;
#endif

  /* Check saturation of Ibeta */
  if (wbeta_tmp > INT16_MAX)
 8001a8a:	2180      	movs	r1, #128	; 0x80
  b_divSQRT3_tmp = divSQRT_3 * ((int32_t)Input.b);
 8001a8c:	4b0f      	ldr	r3, [pc, #60]	; (8001acc <MCM_Clarke+0x44>)
 8001a8e:	b202      	sxth	r2, r0
 8001a90:	1400      	asrs	r0, r0, #16
 8001a92:	4358      	muls	r0, r3
  a_divSQRT3_tmp = divSQRT_3 * ((int32_t)Input.a);
 8001a94:	4353      	muls	r3, r2
  wbeta_tmp = (-(a_divSQRT3_tmp) - (b_divSQRT3_tmp) - (b_divSQRT3_tmp)) >> 15;
 8001a96:	425b      	negs	r3, r3
 8001a98:	1a1b      	subs	r3, r3, r0
 8001a9a:	1a1b      	subs	r3, r3, r0
 8001a9c:	13db      	asrs	r3, r3, #15
  if (wbeta_tmp > INT16_MAX)
 8001a9e:	0209      	lsls	r1, r1, #8
 8001aa0:	428b      	cmp	r3, r1
 8001aa2:	da10      	bge.n	8001ac6 <MCM_Clarke+0x3e>
  {
    hbeta_tmp = INT16_MAX;
  }
  else if (wbeta_tmp < (-32768))
 8001aa4:	480a      	ldr	r0, [pc, #40]	; (8001ad0 <MCM_Clarke+0x48>)
  {
    hbeta_tmp =  ((int16_t)-32768);
 8001aa6:	0001      	movs	r1, r0
  else if (wbeta_tmp < (-32768))
 8001aa8:	4283      	cmp	r3, r0
 8001aaa:	db00      	blt.n	8001aae <MCM_Clarke+0x26>
  }
  else
  {
    hbeta_tmp = ((int16_t)wbeta_tmp);
 8001aac:	b219      	sxth	r1, r3
  else
  {
    /* Nothing to do */
  }

  return (Output);
 8001aae:	4b09      	ldr	r3, [pc, #36]	; (8001ad4 <MCM_Clarke+0x4c>)
 8001ab0:	ac03      	add	r4, sp, #12
 8001ab2:	8022      	strh	r2, [r4, #0]
 8001ab4:	1c08      	adds	r0, r1, #0
 8001ab6:	4299      	cmp	r1, r3
 8001ab8:	da00      	bge.n	8001abc <MCM_Clarke+0x34>
 8001aba:	1c18      	adds	r0, r3, #0
 8001abc:	0403      	lsls	r3, r0, #16
 8001abe:	8820      	ldrh	r0, [r4, #0]
 8001ac0:	4318      	orrs	r0, r3
}
 8001ac2:	b004      	add	sp, #16
 8001ac4:	bd10      	pop	{r4, pc}
    hbeta_tmp = INT16_MAX;
 8001ac6:	4904      	ldr	r1, [pc, #16]	; (8001ad8 <MCM_Clarke+0x50>)
 8001ac8:	e7f1      	b.n	8001aae <MCM_Clarke+0x26>
 8001aca:	46c0      	nop			; (mov r8, r8)
 8001acc:	000049e6 	.word	0x000049e6
 8001ad0:	ffff8000 	.word	0xffff8000
 8001ad4:	ffff8001 	.word	0xffff8001
 8001ad8:	00007fff 	.word	0x00007fff

08001adc <MCM_Trig_Functions>:
  uint16_t uhindex;

  Trig_Components Local_Components;

  /* 10 bit index computation  */
  shindex = (((int32_t)32768) + ((int32_t)hAngle));
 8001adc:	2380      	movs	r3, #128	; 0x80
 8001ade:	021b      	lsls	r3, r3, #8
{
 8001ae0:	b537      	push	{r0, r1, r2, r4, r5, lr}
  shindex = (((int32_t)32768) + ((int32_t)hAngle));
 8001ae2:	18c0      	adds	r0, r0, r3
  uhindex = (uint16_t)shindex;
 8001ae4:	b283      	uxth	r3, r0
  uhindex /= ((uint16_t)64);
 8001ae6:	24c0      	movs	r4, #192	; 0xc0
 8001ae8:	099b      	lsrs	r3, r3, #6
{
 8001aea:	2100      	movs	r1, #0
 8001aec:	0018      	movs	r0, r3

  switch (((uint16_t)uhindex) & SIN_MASK)
 8001aee:	2580      	movs	r5, #128	; 0x80
 8001af0:	00a4      	lsls	r4, r4, #2
{
 8001af2:	000a      	movs	r2, r1
 8001af4:	4020      	ands	r0, r4
  switch (((uint16_t)uhindex) & SIN_MASK)
 8001af6:	00ad      	lsls	r5, r5, #2
 8001af8:	42a8      	cmp	r0, r5
 8001afa:	d017      	beq.n	8001b2c <MCM_Trig_Functions+0x50>
 8001afc:	d809      	bhi.n	8001b12 <MCM_Trig_Functions+0x36>
 8001afe:	4288      	cmp	r0, r1
 8001b00:	d01d      	beq.n	8001b3e <MCM_Trig_Functions+0x62>
 8001b02:	2480      	movs	r4, #128	; 0x80
 8001b04:	0064      	lsls	r4, r4, #1
 8001b06:	42a0      	cmp	r0, r4
 8001b08:	d022      	beq.n	8001b50 <MCM_Trig_Functions+0x74>
    }

    default:
      break;
  }
  return (Local_Components);
 8001b0a:	0412      	lsls	r2, r2, #16
 8001b0c:	b288      	uxth	r0, r1
 8001b0e:	4310      	orrs	r0, r2
}
 8001b10:	bd3e      	pop	{r1, r2, r3, r4, r5, pc}
  switch (((uint16_t)uhindex) & SIN_MASK)
 8001b12:	42a0      	cmp	r0, r4
 8001b14:	d1f9      	bne.n	8001b0a <MCM_Trig_Functions+0x2e>
      Local_Components.hSin = hSin_Cos_Table[( uint8_t )( 0xFFu - ( uint8_t )( uhindex ) )];
 8001b16:	b2db      	uxtb	r3, r3
 8001b18:	43da      	mvns	r2, r3
 8001b1a:	4912      	ldr	r1, [pc, #72]	; (8001b64 <MCM_Trig_Functions+0x88>)
 8001b1c:	b2d2      	uxtb	r2, r2
 8001b1e:	0052      	lsls	r2, r2, #1
 8001b20:	5e52      	ldrsh	r2, [r2, r1]
      Local_Components.hCos = -hSin_Cos_Table[( uint8_t )( 0xFFu - ( uint8_t )( uhindex ) )];
 8001b22:	005b      	lsls	r3, r3, #1
 8001b24:	5a59      	ldrh	r1, [r3, r1]
 8001b26:	4249      	negs	r1, r1
 8001b28:	b209      	sxth	r1, r1
      break;
 8001b2a:	e7ee      	b.n	8001b0a <MCM_Trig_Functions+0x2e>
      Local_Components.hSin = hSin_Cos_Table[( uint8_t )( uhindex )];
 8001b2c:	b2db      	uxtb	r3, r3
 8001b2e:	005a      	lsls	r2, r3, #1
      Local_Components.hCos = hSin_Cos_Table[( uint8_t )( 0xFFu - ( uint8_t )( uhindex ) )];
 8001b30:	43db      	mvns	r3, r3
      Local_Components.hSin = hSin_Cos_Table[( uint8_t )( uhindex )];
 8001b32:	490c      	ldr	r1, [pc, #48]	; (8001b64 <MCM_Trig_Functions+0x88>)
      Local_Components.hCos = hSin_Cos_Table[( uint8_t )( 0xFFu - ( uint8_t )( uhindex ) )];
 8001b34:	b2db      	uxtb	r3, r3
      Local_Components.hSin = hSin_Cos_Table[( uint8_t )( uhindex )];
 8001b36:	5e52      	ldrsh	r2, [r2, r1]
      Local_Components.hCos =  hSin_Cos_Table[( uint8_t )( uhindex )];
 8001b38:	005b      	lsls	r3, r3, #1
 8001b3a:	5e59      	ldrsh	r1, [r3, r1]
      break;
 8001b3c:	e7e5      	b.n	8001b0a <MCM_Trig_Functions+0x2e>
      Local_Components.hSin = -hSin_Cos_Table[( uint8_t )( uhindex )];
 8001b3e:	b2db      	uxtb	r3, r3
 8001b40:	005a      	lsls	r2, r3, #1
      Local_Components.hCos = -hSin_Cos_Table[( uint8_t )( 0xFFu - ( uint8_t )( uhindex ) )];
 8001b42:	43db      	mvns	r3, r3
      Local_Components.hSin = -hSin_Cos_Table[( uint8_t )( uhindex )];
 8001b44:	4907      	ldr	r1, [pc, #28]	; (8001b64 <MCM_Trig_Functions+0x88>)
      Local_Components.hCos = -hSin_Cos_Table[( uint8_t )( 0xFFu - ( uint8_t )( uhindex ) )];
 8001b46:	b2db      	uxtb	r3, r3
      Local_Components.hSin = -hSin_Cos_Table[( uint8_t )( uhindex )];
 8001b48:	5a52      	ldrh	r2, [r2, r1]
 8001b4a:	4252      	negs	r2, r2
 8001b4c:	b212      	sxth	r2, r2
      Local_Components.hCos = -hSin_Cos_Table[( uint8_t )( 0xFFu - ( uint8_t )( uhindex ) )];
 8001b4e:	e7e8      	b.n	8001b22 <MCM_Trig_Functions+0x46>
      Local_Components.hSin =  -hSin_Cos_Table[( uint8_t )( 0xFFu - ( uint8_t )( uhindex ) )];
 8001b50:	b2db      	uxtb	r3, r3
 8001b52:	43da      	mvns	r2, r3
 8001b54:	4903      	ldr	r1, [pc, #12]	; (8001b64 <MCM_Trig_Functions+0x88>)
 8001b56:	b2d2      	uxtb	r2, r2
 8001b58:	0052      	lsls	r2, r2, #1
 8001b5a:	5a52      	ldrh	r2, [r2, r1]
 8001b5c:	4252      	negs	r2, r2
 8001b5e:	b212      	sxth	r2, r2
 8001b60:	e7ea      	b.n	8001b38 <MCM_Trig_Functions+0x5c>
 8001b62:	46c0      	nop			; (mov r8, r8)
 8001b64:	080066c6 	.word	0x080066c6

08001b68 <MCM_Park>:
{
 8001b68:	b57f      	push	{r0, r1, r2, r3, r4, r5, r6, lr}
 8001b6a:	b205      	sxth	r5, r0
 8001b6c:	9001      	str	r0, [sp, #4]
 8001b6e:	1404      	asrs	r4, r0, #16
  Local_Vector_Components = MCM_Trig_Functions(Theta);
 8001b70:	0008      	movs	r0, r1
 8001b72:	f7ff ffb3 	bl	8001adc <MCM_Trig_Functions>
  q_tmp_1 = Input.alpha * ((int32_t )Local_Vector_Components.hCos);
 8001b76:	b201      	sxth	r1, r0
  q_tmp_2 = Input.beta * ((int32_t)Local_Vector_Components.hSin);
 8001b78:	1403      	asrs	r3, r0, #16
  q_tmp_1 = Input.alpha * ((int32_t )Local_Vector_Components.hCos);
 8001b7a:	000a      	movs	r2, r1
  q_tmp_2 = Input.beta * ((int32_t)Local_Vector_Components.hSin);
 8001b7c:	0018      	movs	r0, r3
  q_tmp_1 = Input.alpha * ((int32_t )Local_Vector_Components.hCos);
 8001b7e:	436a      	muls	r2, r5
  q_tmp_2 = Input.beta * ((int32_t)Local_Vector_Components.hSin);
 8001b80:	4360      	muls	r0, r4
  wqd_tmp = (q_tmp_1 - q_tmp_2) >> 15; //cstat !MISRAC2012-Rule-1.3_n !ATH-shift-neg !MISRAC2012-Rule-10.1_R6
 8001b82:	1a12      	subs	r2, r2, r0
  if (wqd_tmp > INT16_MAX)
 8001b84:	2080      	movs	r0, #128	; 0x80
  wqd_tmp = (q_tmp_1 - q_tmp_2) >> 15; //cstat !MISRAC2012-Rule-1.3_n !ATH-shift-neg !MISRAC2012-Rule-10.1_R6
 8001b86:	13d2      	asrs	r2, r2, #15
  if (wqd_tmp > INT16_MAX)
 8001b88:	0200      	lsls	r0, r0, #8
 8001b8a:	4282      	cmp	r2, r0
 8001b8c:	da23      	bge.n	8001bd6 <MCM_Park+0x6e>
  else if (wqd_tmp < (-32768))
 8001b8e:	4814      	ldr	r0, [pc, #80]	; (8001be0 <MCM_Park+0x78>)
    hqd_tmp = ((int16_t)-32768);
 8001b90:	0006      	movs	r6, r0
  else if (wqd_tmp < (-32768))
 8001b92:	4282      	cmp	r2, r0
 8001b94:	db00      	blt.n	8001b98 <MCM_Park+0x30>
    hqd_tmp = ((int16_t)wqd_tmp);
 8001b96:	b216      	sxth	r6, r2
  if (((int16_t)-32768) == Output.q)
 8001b98:	4a12      	ldr	r2, [pc, #72]	; (8001be4 <MCM_Park+0x7c>)
 8001b9a:	1c30      	adds	r0, r6, #0
 8001b9c:	4296      	cmp	r6, r2
 8001b9e:	da00      	bge.n	8001ba2 <MCM_Park+0x3a>
 8001ba0:	1c10      	adds	r0, r2, #0
  d_tmp_2 = Input.beta * ((int32_t )Local_Vector_Components.hCos);
 8001ba2:	434c      	muls	r4, r1
  if (wqd_tmp > INT16_MAX)
 8001ba4:	2180      	movs	r1, #128	; 0x80
  d_tmp_1 = Input.alpha * ((int32_t )Local_Vector_Components.hSin);
 8001ba6:	436b      	muls	r3, r5
  wqd_tmp = (d_tmp_1 + d_tmp_2) >> 15; //cstat !MISRAC2012-Rule-1.3_n !ATH-shift-neg !MISRAC2012-Rule-10.1_R6
 8001ba8:	191b      	adds	r3, r3, r4
 8001baa:	b200      	sxth	r0, r0
 8001bac:	13db      	asrs	r3, r3, #15
  if (wqd_tmp > INT16_MAX)
 8001bae:	0209      	lsls	r1, r1, #8
 8001bb0:	428b      	cmp	r3, r1
 8001bb2:	da12      	bge.n	8001bda <MCM_Park+0x72>
  else if (wqd_tmp < (-32768))
 8001bb4:	4c0a      	ldr	r4, [pc, #40]	; (8001be0 <MCM_Park+0x78>)
    hqd_tmp = ((int16_t)-32768);
 8001bb6:	0021      	movs	r1, r4
  else if (wqd_tmp < (-32768))
 8001bb8:	42a3      	cmp	r3, r4
 8001bba:	db00      	blt.n	8001bbe <MCM_Park+0x56>
    hqd_tmp = ((int16_t)wqd_tmp);
 8001bbc:	b219      	sxth	r1, r3
  return (Output);
 8001bbe:	ac03      	add	r4, sp, #12
 8001bc0:	8020      	strh	r0, [r4, #0]
 8001bc2:	1c0b      	adds	r3, r1, #0
 8001bc4:	4291      	cmp	r1, r2
 8001bc6:	da01      	bge.n	8001bcc <MCM_Park+0x64>
 8001bc8:	4b07      	ldr	r3, [pc, #28]	; (8001be8 <MCM_Park+0x80>)
 8001bca:	881b      	ldrh	r3, [r3, #0]
 8001bcc:	8820      	ldrh	r0, [r4, #0]
 8001bce:	041b      	lsls	r3, r3, #16
 8001bd0:	4318      	orrs	r0, r3
}
 8001bd2:	b004      	add	sp, #16
 8001bd4:	bd70      	pop	{r4, r5, r6, pc}
    hqd_tmp = INT16_MAX;
 8001bd6:	4e05      	ldr	r6, [pc, #20]	; (8001bec <MCM_Park+0x84>)
 8001bd8:	e7de      	b.n	8001b98 <MCM_Park+0x30>
    hqd_tmp = INT16_MAX;
 8001bda:	4904      	ldr	r1, [pc, #16]	; (8001bec <MCM_Park+0x84>)
 8001bdc:	e7ef      	b.n	8001bbe <MCM_Park+0x56>
 8001bde:	46c0      	nop			; (mov r8, r8)
 8001be0:	ffff8000 	.word	0xffff8000
 8001be4:	ffff8001 	.word	0xffff8001
 8001be8:	080066c4 	.word	0x080066c4
 8001bec:	00007fff 	.word	0x00007fff

08001bf0 <MCM_Rev_Park>:
{
 8001bf0:	b530      	push	{r4, r5, lr}
 8001bf2:	b085      	sub	sp, #20
 8001bf4:	b205      	sxth	r5, r0
 8001bf6:	9001      	str	r0, [sp, #4]
 8001bf8:	1404      	asrs	r4, r0, #16
  Local_Vector_Components = MCM_Trig_Functions(Theta);
 8001bfa:	0008      	movs	r0, r1
 8001bfc:	f7ff ff6e 	bl	8001adc <MCM_Trig_Functions>
  alpha_tmp1 = Input.q * ((int32_t)Local_Vector_Components.hCos);
 8001c00:	b202      	sxth	r2, r0
  alpha_tmp2 = Input.d * ((int32_t)Local_Vector_Components.hSin);
 8001c02:	1403      	asrs	r3, r0, #16
 8001c04:	0019      	movs	r1, r3
  alpha_tmp1 = Input.q * ((int32_t)Local_Vector_Components.hCos);
 8001c06:	0010      	movs	r0, r2
  alpha_tmp2 = Input.d * ((int32_t)Local_Vector_Components.hSin);
 8001c08:	4361      	muls	r1, r4
  alpha_tmp1 = Input.q * ((int32_t)Local_Vector_Components.hCos);
 8001c0a:	4368      	muls	r0, r5
  beta_tmp2 = Input.d * ((int32_t)Local_Vector_Components.hCos);
 8001c0c:	4354      	muls	r4, r2
  beta_tmp1 = Input.q * ((int32_t)Local_Vector_Components.hSin);
 8001c0e:	436b      	muls	r3, r5
  Output.alpha = (int16_t)(((alpha_tmp1) + (alpha_tmp2)) >> 15);
 8001c10:	1840      	adds	r0, r0, r1
  Output.beta = (int16_t)((beta_tmp2 - beta_tmp1) >> 15);
 8001c12:	1ae4      	subs	r4, r4, r3
  Output.alpha = (int16_t)(((alpha_tmp1) + (alpha_tmp2)) >> 15);
 8001c14:	13c0      	asrs	r0, r0, #15
  Output.beta = (int16_t)((beta_tmp2 - beta_tmp1) >> 15);
 8001c16:	13e4      	asrs	r4, r4, #15
  return (Output);
 8001c18:	0424      	lsls	r4, r4, #16
 8001c1a:	b280      	uxth	r0, r0
 8001c1c:	4320      	orrs	r0, r4
}
 8001c1e:	b005      	add	sp, #20
 8001c20:	bd30      	pop	{r4, r5, pc}

08001c22 <LL_GPIO_LockPin>:
  WRITE_REG(GPIOx->LCKR, GPIO_LCKR_LCKK | PinMask);
 8001c22:	2380      	movs	r3, #128	; 0x80
 8001c24:	025b      	lsls	r3, r3, #9
 8001c26:	430b      	orrs	r3, r1
 8001c28:	61c3      	str	r3, [r0, #28]
  WRITE_REG(GPIOx->LCKR, PinMask);
 8001c2a:	61c1      	str	r1, [r0, #28]
  WRITE_REG(GPIOx->LCKR, GPIO_LCKR_LCKK | PinMask);
 8001c2c:	61c3      	str	r3, [r0, #28]
  temp = READ_REG(GPIOx->LCKR);
 8001c2e:	69c3      	ldr	r3, [r0, #28]
{
 8001c30:	b082      	sub	sp, #8
  temp = READ_REG(GPIOx->LCKR);
 8001c32:	9301      	str	r3, [sp, #4]
  (void) temp;
 8001c34:	9b01      	ldr	r3, [sp, #4]
}
 8001c36:	b002      	add	sp, #8
 8001c38:	4770      	bx	lr
	...

08001c3c <FOC_Clear>:

  ab_t NULL_ab = {((int16_t)0), ((int16_t)0)};
  qd_t NULL_qd = {((int16_t)0), ((int16_t)0)};
  alphabeta_t NULL_alphabeta = {((int16_t)0), ((int16_t)0)};

  FOCVars[bMotor].Iab = NULL_ab;
 8001c3c:	2226      	movs	r2, #38	; 0x26
{
 8001c3e:	b570      	push	{r4, r5, r6, lr}
  FOCVars[bMotor].Iab = NULL_ab;
 8001c40:	2400      	movs	r4, #0
 8001c42:	4342      	muls	r2, r0
 8001c44:	4b11      	ldr	r3, [pc, #68]	; (8001c8c <FOC_Clear+0x50>)
  FOCVars[bMotor].hTeref = (int16_t)0;
  FOCVars[bMotor].Vqd = NULL_qd;
  FOCVars[bMotor].Valphabeta = NULL_alphabeta;
  FOCVars[bMotor].hElAngle = (int16_t)0;

  PID_SetIntegralTerm(pPIDIq[bMotor], ((int32_t)0));
 8001c46:	0085      	lsls	r5, r0, #2
  FOCVars[bMotor].Iab = NULL_ab;
 8001c48:	52d4      	strh	r4, [r2, r3]
 8001c4a:	189b      	adds	r3, r3, r2
 8001c4c:	805c      	strh	r4, [r3, #2]
  FOCVars[bMotor].Ialphabeta = NULL_alphabeta;
 8001c4e:	809c      	strh	r4, [r3, #4]
 8001c50:	80dc      	strh	r4, [r3, #6]
  FOCVars[bMotor].Iqd = NULL_qd;
 8001c52:	819c      	strh	r4, [r3, #12]
 8001c54:	81dc      	strh	r4, [r3, #14]
    FOCVars[bMotor].Iqdref = NULL_qd;
 8001c56:	821c      	strh	r4, [r3, #16]
 8001c58:	825c      	strh	r4, [r3, #18]
  FOCVars[bMotor].hTeref = (int16_t)0;
 8001c5a:	83dc      	strh	r4, [r3, #30]
  FOCVars[bMotor].Vqd = NULL_qd;
 8001c5c:	82dc      	strh	r4, [r3, #22]
 8001c5e:	831c      	strh	r4, [r3, #24]
  FOCVars[bMotor].Valphabeta = NULL_alphabeta;
 8001c60:	835c      	strh	r4, [r3, #26]
 8001c62:	839c      	strh	r4, [r3, #28]
  FOCVars[bMotor].hElAngle = (int16_t)0;
 8001c64:	841c      	strh	r4, [r3, #32]
  PID_SetIntegralTerm(pPIDIq[bMotor], ((int32_t)0));
 8001c66:	4b0a      	ldr	r3, [pc, #40]	; (8001c90 <FOC_Clear+0x54>)
 8001c68:	0021      	movs	r1, r4
 8001c6a:	58e8      	ldr	r0, [r5, r3]
 8001c6c:	f004 fa69 	bl	8006142 <PID_SetIntegralTerm>
  PID_SetIntegralTerm(pPIDId[bMotor], ((int32_t)0));
 8001c70:	4b08      	ldr	r3, [pc, #32]	; (8001c94 <FOC_Clear+0x58>)
 8001c72:	0021      	movs	r1, r4
 8001c74:	58e8      	ldr	r0, [r5, r3]
 8001c76:	f004 fa64 	bl	8006142 <PID_SetIntegralTerm>

  STC_Clear(pSTC[bMotor]);
 8001c7a:	4b07      	ldr	r3, [pc, #28]	; (8001c98 <FOC_Clear+0x5c>)
 8001c7c:	58e8      	ldr	r0, [r5, r3]
 8001c7e:	f004 fbb3 	bl	80063e8 <STC_Clear>

  PWMC_SwitchOffPWM(pwmcHandle[bMotor]);
 8001c82:	4b06      	ldr	r3, [pc, #24]	; (8001c9c <FOC_Clear+0x60>)
 8001c84:	58e8      	ldr	r0, [r5, r3]
 8001c86:	f000 fde1 	bl	800284c <PWMC_SwitchOffPWM>

  /* USER CODE BEGIN FOC_Clear 1 */

  /* USER CODE END FOC_Clear 1 */
}
 8001c8a:	bd70      	pop	{r4, r5, r6, pc}
 8001c8c:	200006c8 	.word	0x200006c8
 8001c90:	200002d0 	.word	0x200002d0
 8001c94:	200002cc 	.word	0x200002cc
 8001c98:	200002d4 	.word	0x200002d4
 8001c9c:	200006f8 	.word	0x200006f8

08001ca0 <MCboot>:
{
 8001ca0:	b5f0      	push	{r4, r5, r6, r7, lr}
 8001ca2:	b085      	sub	sp, #20
 8001ca4:	9000      	str	r0, [sp, #0]
  if (MC_NULL == pMCIList)
 8001ca6:	2800      	cmp	r0, #0
 8001ca8:	d05b      	beq.n	8001d62 <MCboot+0xc2>
    bMCBootCompleted = (uint8_t )0;
 8001caa:	2700      	movs	r7, #0
    pwmcHandle[M1] = &PWM_Handle_M1._Super;
 8001cac:	4e2e      	ldr	r6, [pc, #184]	; (8001d68 <MCboot+0xc8>)
 8001cae:	482f      	ldr	r0, [pc, #188]	; (8001d6c <MCboot+0xcc>)
    bMCBootCompleted = (uint8_t )0;
 8001cb0:	4b2f      	ldr	r3, [pc, #188]	; (8001d70 <MCboot+0xd0>)
    pwmcHandle[M1] = &PWM_Handle_M1._Super;
 8001cb2:	6030      	str	r0, [r6, #0]
    bMCBootCompleted = (uint8_t )0;
 8001cb4:	9301      	str	r3, [sp, #4]
 8001cb6:	701f      	strb	r7, [r3, #0]
    R1_Init(&PWM_Handle_M1);
 8001cb8:	f001 f9fa 	bl	80030b0 <R1_Init>
    ASPEP_start(&aspepOverUartA);
 8001cbc:	482d      	ldr	r0, [pc, #180]	; (8001d74 <MCboot+0xd4>)
 8001cbe:	f7fe fe97 	bl	80009f0 <ASPEP_start>
    PID_HandleInit(&PIDSpeedHandle_M1);
 8001cc2:	4d2d      	ldr	r5, [pc, #180]	; (8001d78 <MCboot+0xd8>)
 8001cc4:	0028      	movs	r0, r5
 8001cc6:	f004 fa2a 	bl	800611e <PID_HandleInit>
    HALL_Init (&HALL_M1);
 8001cca:	4c2c      	ldr	r4, [pc, #176]	; (8001d7c <MCboot+0xdc>)
 8001ccc:	0020      	movs	r0, r4
 8001cce:	f7ff f8c9 	bl	8000e64 <HALL_Init>
    STC_Init(pSTC[M1],&PIDSpeedHandle_M1, &HALL_M1._Super);
 8001cd2:	4b2b      	ldr	r3, [pc, #172]	; (8001d80 <MCboot+0xe0>)
 8001cd4:	0029      	movs	r1, r5
 8001cd6:	0022      	movs	r2, r4
 8001cd8:	6818      	ldr	r0, [r3, #0]
 8001cda:	001c      	movs	r4, r3
 8001cdc:	f004 fb6f 	bl	80063be <STC_Init>
    PID_HandleInit(&PIDIqHandle_M1);
 8001ce0:	4828      	ldr	r0, [pc, #160]	; (8001d84 <MCboot+0xe4>)
 8001ce2:	f004 fa1c 	bl	800611e <PID_HandleInit>
    PID_HandleInit(&PIDIdHandle_M1);
 8001ce6:	4828      	ldr	r0, [pc, #160]	; (8001d88 <MCboot+0xe8>)
 8001ce8:	f004 fa19 	bl	800611e <PID_HandleInit>
    (void)RCM_RegisterRegConv(&VbusRegConv_M1);
 8001cec:	4827      	ldr	r0, [pc, #156]	; (8001d8c <MCboot+0xec>)
 8001cee:	f002 f855 	bl	8003d9c <RCM_RegisterRegConv>
    RVBS_Init(&BusVoltageSensor_M1);
 8001cf2:	4d27      	ldr	r5, [pc, #156]	; (8001d90 <MCboot+0xf0>)
 8001cf4:	0028      	movs	r0, r5
 8001cf6:	f004 fac7 	bl	8006288 <RVBS_Init>
    pMPM[M1]->pVBS = &(BusVoltageSensor_M1._Super);
 8001cfa:	4b26      	ldr	r3, [pc, #152]	; (8001d94 <MCboot+0xf4>)
    NTC_Init(&TempSensor_M1);
 8001cfc:	4826      	ldr	r0, [pc, #152]	; (8001d98 <MCboot+0xf8>)
    pMPM[M1]->pVBS = &(BusVoltageSensor_M1._Super);
 8001cfe:	681b      	ldr	r3, [r3, #0]
 8001d00:	60dd      	str	r5, [r3, #12]
    pMPM[M1]->pFOCVars = &FOCVars[M1];
 8001d02:	4d26      	ldr	r5, [pc, #152]	; (8001d9c <MCboot+0xfc>)
 8001d04:	609d      	str	r5, [r3, #8]
    NTC_Init(&TempSensor_M1);
 8001d06:	f004 f9ee 	bl	80060e6 <NTC_Init>
    REMNG_Init(pREMNG[M1]);
 8001d0a:	4825      	ldr	r0, [pc, #148]	; (8001da0 <MCboot+0x100>)
 8001d0c:	f004 fb0e 	bl	800632c <REMNG_Init>
    FOC_Clear(M1);
 8001d10:	0038      	movs	r0, r7
 8001d12:	f7ff ff93 	bl	8001c3c <FOC_Clear>
    FOCVars[M1].bDriveInput = EXTERNAL;
 8001d16:	2201      	movs	r2, #1
 8001d18:	1d6b      	adds	r3, r5, #5
 8001d1a:	77da      	strb	r2, [r3, #31]
    FOCVars[M1].Iqdref = STC_GetDefaultIqdref(pSTC[M1]);
 8001d1c:	6820      	ldr	r0, [r4, #0]
 8001d1e:	f004 fbe2 	bl	80064e6 <STC_GetDefaultIqdref>
 8001d22:	8228      	strh	r0, [r5, #16]
 8001d24:	0c00      	lsrs	r0, r0, #16
 8001d26:	8268      	strh	r0, [r5, #18]
    FOCVars[M1].UserIdref = STC_GetDefaultIqdref(pSTC[M1]).d;
 8001d28:	6820      	ldr	r0, [r4, #0]
 8001d2a:	f004 fbdc 	bl	80064e6 <STC_GetDefaultIqdref>
 8001d2e:	0c00      	lsrs	r0, r0, #16
 8001d30:	82a8      	strh	r0, [r5, #20]
    MCI_Init(&Mci[M1], pSTC[M1], &FOCVars[M1],pwmcHandle[M1] );
 8001d32:	481c      	ldr	r0, [pc, #112]	; (8001da4 <MCboot+0x104>)
 8001d34:	002a      	movs	r2, r5
 8001d36:	0005      	movs	r5, r0
 8001d38:	6821      	ldr	r1, [r4, #0]
 8001d3a:	6833      	ldr	r3, [r6, #0]
 8001d3c:	f7ff fd98 	bl	8001870 <MCI_Init>
   Mci[M1].pScale = &scaleParams_M1;
 8001d40:	4b19      	ldr	r3, [pc, #100]	; (8001da8 <MCboot+0x108>)
    MCI_ExecSpeedRamp(&Mci[M1],
 8001d42:	6820      	ldr	r0, [r4, #0]
   Mci[M1].pScale = &scaleParams_M1;
 8001d44:	61ab      	str	r3, [r5, #24]
    MCI_ExecSpeedRamp(&Mci[M1],
 8001d46:	f004 fbcb 	bl	80064e0 <STC_GetMecSpeedRefUnitDefault>
 8001d4a:	003a      	movs	r2, r7
 8001d4c:	0001      	movs	r1, r0
 8001d4e:	0028      	movs	r0, r5
 8001d50:	f7ff fd9a 	bl	8001888 <MCI_ExecSpeedRamp>
    pMCIList[M1] = &Mci[M1];
 8001d54:	9b00      	ldr	r3, [sp, #0]
 8001d56:	601d      	str	r5, [r3, #0]
    MC_APP_BootHook();
 8001d58:	f7ff fd88 	bl	800186c <MC_APP_BootHook>
    bMCBootCompleted = 1U;
 8001d5c:	2201      	movs	r2, #1
 8001d5e:	9b01      	ldr	r3, [sp, #4]
 8001d60:	701a      	strb	r2, [r3, #0]
}
 8001d62:	b005      	add	sp, #20
 8001d64:	bdf0      	pop	{r4, r5, r6, r7, pc}
 8001d66:	46c0      	nop			; (mov r8, r8)
 8001d68:	200006f8 	.word	0x200006f8
 8001d6c:	20000180 	.word	0x20000180
 8001d70:	200006ee 	.word	0x200006ee
 8001d74:	20000340 	.word	0x20000340
 8001d78:	20000144 	.word	0x20000144
 8001d7c:	20000020 	.word	0x20000020
 8001d80:	200002d4 	.word	0x200002d4
 8001d84:	20000118 	.word	0x20000118
 8001d88:	200000ec 	.word	0x200000ec
 8001d8c:	200002b8 	.word	0x200002b8
 8001d90:	20000000 	.word	0x20000000
 8001d94:	200002c8 	.word	0x200002c8
 8001d98:	2000029c 	.word	0x2000029c
 8001d9c:	200006c8 	.word	0x200006c8
 8001da0:	20000250 	.word	0x20000250
 8001da4:	2000068c 	.word	0x2000068c
 8001da8:	200002e0 	.word	0x200002e0

08001dac <FOC_InitAdditionalMethods>:
    {
  /* USER CODE BEGIN FOC_InitAdditionalMethods 0 */

  /* USER CODE END FOC_InitAdditionalMethods 0 */
    }
}
 8001dac:	4770      	bx	lr
	...

08001db0 <FOC_CalcCurrRef>:
{

  /* USER CODE BEGIN FOC_CalcCurrRef 0 */

  /* USER CODE END FOC_CalcCurrRef 0 */
  if (INTERNAL == FOCVars[bMotor].bDriveInput)
 8001db0:	2326      	movs	r3, #38	; 0x26
 8001db2:	4343      	muls	r3, r0
{
 8001db4:	b510      	push	{r4, lr}
  if (INTERNAL == FOCVars[bMotor].bDriveInput)
 8001db6:	4c07      	ldr	r4, [pc, #28]	; (8001dd4 <FOC_CalcCurrRef+0x24>)
 8001db8:	18e4      	adds	r4, r4, r3
 8001dba:	1d63      	adds	r3, r4, #5
 8001dbc:	7fdb      	ldrb	r3, [r3, #31]
 8001dbe:	2b00      	cmp	r3, #0
 8001dc0:	d106      	bne.n	8001dd0 <FOC_CalcCurrRef+0x20>
  {
    FOCVars[bMotor].hTeref = STC_CalcTorqueReference(pSTC[bMotor]);
 8001dc2:	4b05      	ldr	r3, [pc, #20]	; (8001dd8 <FOC_CalcCurrRef+0x28>)
 8001dc4:	0080      	lsls	r0, r0, #2
 8001dc6:	58c0      	ldr	r0, [r0, r3]
 8001dc8:	f004 fb63 	bl	8006492 <STC_CalcTorqueReference>
 8001dcc:	83e0      	strh	r0, [r4, #30]
    FOCVars[bMotor].Iqdref.q = FOCVars[bMotor].hTeref;
 8001dce:	8220      	strh	r0, [r4, #16]
    /* Nothing to do */
  }
  /* USER CODE BEGIN FOC_CalcCurrRef 1 */

  /* USER CODE END FOC_CalcCurrRef 1 */
}
 8001dd0:	bd10      	pop	{r4, pc}
 8001dd2:	46c0      	nop			; (mov r8, r8)
 8001dd4:	200006c8 	.word	0x200006c8
 8001dd8:	200002d4 	.word	0x200002d4

08001ddc <TSK_SetChargeBootCapDelayM1>:
  * @param  hTickCount number of ticks to be counted.
  * @retval void
  */
__weak void TSK_SetChargeBootCapDelayM1(uint16_t hTickCount)
{
   hBootCapDelayCounterM1 = hTickCount;
 8001ddc:	4b01      	ldr	r3, [pc, #4]	; (8001de4 <TSK_SetChargeBootCapDelayM1+0x8>)
 8001dde:	8018      	strh	r0, [r3, #0]
}
 8001de0:	4770      	bx	lr
 8001de2:	46c0      	nop			; (mov r8, r8)
 8001de4:	200006f0 	.word	0x200006f0

08001de8 <TSK_ChargeBootCapDelayHasElapsedM1>:
  * @retval bool true if time has elapsed, false otherwise.
  */
__weak bool TSK_ChargeBootCapDelayHasElapsedM1(void)
{
  bool retVal = false;
  if (((uint16_t)0) == hBootCapDelayCounterM1)
 8001de8:	4b02      	ldr	r3, [pc, #8]	; (8001df4 <TSK_ChargeBootCapDelayHasElapsedM1+0xc>)
 8001dea:	8818      	ldrh	r0, [r3, #0]
 8001dec:	4243      	negs	r3, r0
 8001dee:	4158      	adcs	r0, r3
  {
    retVal = true;
  }
  return (retVal);
 8001df0:	b2c0      	uxtb	r0, r0
}
 8001df2:	4770      	bx	lr
 8001df4:	200006f0 	.word	0x200006f0

08001df8 <TSK_SetStopPermanencyTimeM1>:
  * @param  hTickCount number of ticks to be counted.
  * @retval void
  */
__weak void TSK_SetStopPermanencyTimeM1(uint16_t hTickCount)
{
  hStopPermanencyCounterM1 = hTickCount;
 8001df8:	4b01      	ldr	r3, [pc, #4]	; (8001e00 <TSK_SetStopPermanencyTimeM1+0x8>)
 8001dfa:	8018      	strh	r0, [r3, #0]
}
 8001dfc:	4770      	bx	lr
 8001dfe:	46c0      	nop			; (mov r8, r8)
 8001e00:	200006f4 	.word	0x200006f4

08001e04 <TSK_MF_StopProcessing>:
{
 8001e04:	b570      	push	{r4, r5, r6, lr}
 8001e06:	0004      	movs	r4, r0
    R1_SwitchOffPWM(pwmcHandle[motor]);
 8001e08:	4b0b      	ldr	r3, [pc, #44]	; (8001e38 <TSK_MF_StopProcessing+0x34>)
 8001e0a:	0085      	lsls	r5, r0, #2
 8001e0c:	58e8      	ldr	r0, [r5, r3]
 8001e0e:	f001 fb93 	bl	8003538 <R1_SwitchOffPWM>
  FOC_Clear(motor);
 8001e12:	0020      	movs	r0, r4
 8001e14:	f7ff ff12 	bl	8001c3c <FOC_Clear>
  PQD_Clear(pMPM[motor]);
 8001e18:	4b08      	ldr	r3, [pc, #32]	; (8001e3c <TSK_MF_StopProcessing+0x38>)
 8001e1a:	58e8      	ldr	r0, [r5, r3]
 8001e1c:	f004 f9f0 	bl	8006200 <PQD_Clear>
  TSK_SetStopPermanencyTimeM1(STOPPERMANENCY_TICKS);
 8001e20:	20c8      	movs	r0, #200	; 0xc8
 8001e22:	0080      	lsls	r0, r0, #2
 8001e24:	f7ff ffe8 	bl	8001df8 <TSK_SetStopPermanencyTimeM1>
  Mci[motor].State = STOP;
 8001e28:	2228      	movs	r2, #40	; 0x28
 8001e2a:	4362      	muls	r2, r4
 8001e2c:	4b04      	ldr	r3, [pc, #16]	; (8001e40 <TSK_MF_StopProcessing+0x3c>)
 8001e2e:	189b      	adds	r3, r3, r2
 8001e30:	2208      	movs	r2, #8
 8001e32:	77da      	strb	r2, [r3, #31]
}
 8001e34:	bd70      	pop	{r4, r5, r6, pc}
 8001e36:	46c0      	nop			; (mov r8, r8)
 8001e38:	200006f8 	.word	0x200006f8
 8001e3c:	200002c8 	.word	0x200002c8
 8001e40:	2000068c 	.word	0x2000068c

08001e44 <TSK_StopPermanencyTimeHasElapsedM1>:
  * @retval bool true if time is elapsed, false otherwise.
  */
__weak bool TSK_StopPermanencyTimeHasElapsedM1(void)
{
  bool retVal = false;
  if (((uint16_t)0) == hStopPermanencyCounterM1)
 8001e44:	4b02      	ldr	r3, [pc, #8]	; (8001e50 <TSK_StopPermanencyTimeHasElapsedM1+0xc>)
 8001e46:	8818      	ldrh	r0, [r3, #0]
 8001e48:	4243      	negs	r3, r0
 8001e4a:	4158      	adcs	r0, r3
  {
    retVal = true;
  }
  return (retVal);
 8001e4c:	b2c0      	uxtb	r0, r0
}
 8001e4e:	4770      	bx	lr
 8001e50:	200006f4 	.word	0x200006f4

08001e54 <TSK_MediumFrequencyTaskM1>:
{
 8001e54:	b5f7      	push	{r0, r1, r2, r4, r5, r6, r7, lr}
  int16_t wAux = 0;
 8001e56:	466b      	mov	r3, sp
 8001e58:	1d99      	adds	r1, r3, #6
 8001e5a:	2300      	movs	r3, #0
  bool IsSpeedReliable = HALL_CalcAvrgMecSpeedUnit(&HALL_M1, &wAux);
 8001e5c:	4e4f      	ldr	r6, [pc, #316]	; (8001f9c <TSK_MediumFrequencyTaskM1+0x148>)
  int16_t wAux = 0;
 8001e5e:	800b      	strh	r3, [r1, #0]
  bool IsSpeedReliable = HALL_CalcAvrgMecSpeedUnit(&HALL_M1, &wAux);
 8001e60:	0030      	movs	r0, r6
 8001e62:	f7ff f8f9 	bl	8001058 <HALL_CalcAvrgMecSpeedUnit>
  PQD_CalcElMotorPower(pMPM[M1]);
 8001e66:	4f4e      	ldr	r7, [pc, #312]	; (8001fa0 <TSK_MediumFrequencyTaskM1+0x14c>)
  bool IsSpeedReliable = HALL_CalcAvrgMecSpeedUnit(&HALL_M1, &wAux);
 8001e68:	0005      	movs	r5, r0
  PQD_CalcElMotorPower(pMPM[M1]);
 8001e6a:	6838      	ldr	r0, [r7, #0]
 8001e6c:	f004 f9ac 	bl	80061c8 <PQD_CalcElMotorPower>
  if (MCI_GetCurrentFaults(&Mci[M1]) == MC_NO_FAULTS)
 8001e70:	4c4c      	ldr	r4, [pc, #304]	; (8001fa4 <TSK_MediumFrequencyTaskM1+0x150>)
 8001e72:	0020      	movs	r0, r4
 8001e74:	f7ff fd60 	bl	8001938 <MCI_GetCurrentFaults>
    Mci[M1].State = FAULT_NOW;
 8001e78:	230a      	movs	r3, #10
  if (MCI_GetCurrentFaults(&Mci[M1]) == MC_NO_FAULTS)
 8001e7a:	2800      	cmp	r0, #0
 8001e7c:	d123      	bne.n	8001ec6 <TSK_MediumFrequencyTaskM1+0x72>
    if (MCI_GetOccurredFaults(&Mci[M1]) == MC_NO_FAULTS)
 8001e7e:	0020      	movs	r0, r4
 8001e80:	f7ff fd58 	bl	8001934 <MCI_GetOccurredFaults>
 8001e84:	2800      	cmp	r0, #0
 8001e86:	d000      	beq.n	8001e8a <TSK_MediumFrequencyTaskM1+0x36>
 8001e88:	e085      	b.n	8001f96 <TSK_MediumFrequencyTaskM1+0x142>
      switch (Mci[M1].State)
 8001e8a:	7fe0      	ldrb	r0, [r4, #31]
 8001e8c:	2811      	cmp	r0, #17
 8001e8e:	d830      	bhi.n	8001ef2 <TSK_MediumFrequencyTaskM1+0x9e>
 8001e90:	f7fe f944 	bl	800011c <__gnu_thumb1_case_uqi>
 8001e94:	2f2f2f09 	.word	0x2f2f2f09
 8001e98:	2f672f2f 	.word	0x2f672f2f
 8001e9c:	7d812f78 	.word	0x7d812f78
 8001ea0:	2f2f2f2f 	.word	0x2f2f2f2f
 8001ea4:	2943      	.short	0x2943
          if ((MCI_START == Mci[M1].DirectCommand) || (MCI_MEASURE_OFFSETS == Mci[M1].DirectCommand))
 8001ea6:	2302      	movs	r3, #2
 8001ea8:	7fa1      	ldrb	r1, [r4, #30]
 8001eaa:	4399      	bics	r1, r3
 8001eac:	2901      	cmp	r1, #1
 8001eae:	d120      	bne.n	8001ef2 <TSK_MediumFrequencyTaskM1+0x9e>
            if (pwmcHandle[M1]->offsetCalibStatus == false)
 8001eb0:	4d3d      	ldr	r5, [pc, #244]	; (8001fa8 <TSK_MediumFrequencyTaskM1+0x154>)
 8001eb2:	6828      	ldr	r0, [r5, #0]
 8001eb4:	0003      	movs	r3, r0
 8001eb6:	3381      	adds	r3, #129	; 0x81
 8001eb8:	781b      	ldrb	r3, [r3, #0]
 8001eba:	2b00      	cmp	r3, #0
 8001ebc:	d105      	bne.n	8001eca <TSK_MediumFrequencyTaskM1+0x76>
              (void)PWMC_CurrentReadingCalibr(pwmcHandle[M1], CRC_START);
 8001ebe:	0019      	movs	r1, r3
 8001ec0:	f000 fccc 	bl	800285c <PWMC_CurrentReadingCalibr>
              Mci[M1].State = OFFSET_CALIB;
 8001ec4:	2311      	movs	r3, #17
    Mci[M1].State = FAULT_NOW;
 8001ec6:	77e3      	strb	r3, [r4, #31]
}
 8001ec8:	e013      	b.n	8001ef2 <TSK_MediumFrequencyTaskM1+0x9e>
              pwmcHandle[M1]->OffCalibrWaitTimeCounter = 1u;
 8001eca:	0003      	movs	r3, r0
 8001ecc:	3360      	adds	r3, #96	; 0x60
 8001ece:	8019      	strh	r1, [r3, #0]
              (void)PWMC_CurrentReadingCalibr(pwmcHandle[M1], CRC_EXEC);
 8001ed0:	f000 fcc4 	bl	800285c <PWMC_CurrentReadingCalibr>
                R1_TurnOnLowSides(pwmcHandle[M1],M1_CHARGE_BOOT_CAP_DUTY_CYCLES);
 8001ed4:	2100      	movs	r1, #0
 8001ed6:	6828      	ldr	r0, [r5, #0]
 8001ed8:	f001 f9ee 	bl	80032b8 <R1_TurnOnLowSides>
                TSK_SetChargeBootCapDelayM1(M1_CHARGE_BOOT_CAP_TICKS);
 8001edc:	2014      	movs	r0, #20
 8001ede:	f7ff ff7d 	bl	8001ddc <TSK_SetChargeBootCapDelayM1>
                Mci[M1].State = CHARGE_BOOT_CAP;
 8001ee2:	2310      	movs	r3, #16
 8001ee4:	e7ef      	b.n	8001ec6 <TSK_MediumFrequencyTaskM1+0x72>
          if (MCI_STOP == Mci[M1].DirectCommand)
 8001ee6:	7fa3      	ldrb	r3, [r4, #30]
 8001ee8:	2b05      	cmp	r3, #5
 8001eea:	d103      	bne.n	8001ef4 <TSK_MediumFrequencyTaskM1+0xa0>
            TSK_MF_StopProcessing(M1);
 8001eec:	2000      	movs	r0, #0
 8001eee:	f7ff ff89 	bl	8001e04 <TSK_MF_StopProcessing>
}
 8001ef2:	bdf7      	pop	{r0, r1, r2, r4, r5, r6, r7, pc}
            if (PWMC_CurrentReadingCalibr(pwmcHandle[M1], CRC_EXEC))
 8001ef4:	4d2c      	ldr	r5, [pc, #176]	; (8001fa8 <TSK_MediumFrequencyTaskM1+0x154>)
 8001ef6:	2101      	movs	r1, #1
 8001ef8:	6828      	ldr	r0, [r5, #0]
 8001efa:	f000 fcaf 	bl	800285c <PWMC_CurrentReadingCalibr>
 8001efe:	2800      	cmp	r0, #0
 8001f00:	d0f7      	beq.n	8001ef2 <TSK_MediumFrequencyTaskM1+0x9e>
              if (MCI_MEASURE_OFFSETS == Mci[M1].DirectCommand)
 8001f02:	7fa3      	ldrb	r3, [r4, #30]
 8001f04:	2b03      	cmp	r3, #3
 8001f06:	d1e5      	bne.n	8001ed4 <TSK_MediumFrequencyTaskM1+0x80>
                FOC_Clear(M1);
 8001f08:	2000      	movs	r0, #0
 8001f0a:	f7ff fe97 	bl	8001c3c <FOC_Clear>
                PQD_Clear(pMPM[M1]);
 8001f0e:	6838      	ldr	r0, [r7, #0]
 8001f10:	f004 f976 	bl	8006200 <PQD_Clear>
            Mci[M1].DirectCommand = MCI_NO_COMMAND;
 8001f14:	2300      	movs	r3, #0
 8001f16:	83e3      	strh	r3, [r4, #30]
 8001f18:	e7eb      	b.n	8001ef2 <TSK_MediumFrequencyTaskM1+0x9e>
          if (MCI_STOP == Mci[M1].DirectCommand)
 8001f1a:	7fa3      	ldrb	r3, [r4, #30]
 8001f1c:	2b05      	cmp	r3, #5
 8001f1e:	d0e5      	beq.n	8001eec <TSK_MediumFrequencyTaskM1+0x98>
            if (TSK_ChargeBootCapDelayHasElapsedM1())
 8001f20:	f7ff ff62 	bl	8001de8 <TSK_ChargeBootCapDelayHasElapsedM1>
 8001f24:	2800      	cmp	r0, #0
 8001f26:	d0e4      	beq.n	8001ef2 <TSK_MediumFrequencyTaskM1+0x9e>
              R1_SwitchOffPWM(pwmcHandle[M1]);
 8001f28:	4d1f      	ldr	r5, [pc, #124]	; (8001fa8 <TSK_MediumFrequencyTaskM1+0x154>)
 8001f2a:	6828      	ldr	r0, [r5, #0]
 8001f2c:	f001 fb04 	bl	8003538 <R1_SwitchOffPWM>
              HALL_Clear(&HALL_M1);
 8001f30:	0030      	movs	r0, r6
 8001f32:	f7ff f823 	bl	8000f7c <HALL_Clear>
              FOC_Clear( M1 );
 8001f36:	2000      	movs	r0, #0
 8001f38:	f7ff fe80 	bl	8001c3c <FOC_Clear>
              FOC_InitAdditionalMethods(M1);
 8001f3c:	2000      	movs	r0, #0
 8001f3e:	f7ff ff35 	bl	8001dac <FOC_InitAdditionalMethods>
              FOC_CalcCurrRef(M1);
 8001f42:	2000      	movs	r0, #0
 8001f44:	f7ff ff34 	bl	8001db0 <FOC_CalcCurrRef>
              STC_ForceSpeedReferenceToCurrentSpeed( pSTC[M1]); /* Init the reference speed to current speed */
 8001f48:	4b18      	ldr	r3, [pc, #96]	; (8001fac <TSK_MediumFrequencyTaskM1+0x158>)
 8001f4a:	6818      	ldr	r0, [r3, #0]
 8001f4c:	f004 fad3 	bl	80064f6 <STC_ForceSpeedReferenceToCurrentSpeed>
              MCI_ExecBufferedCommands(&Mci[M1]); /* Exec the speed ramp after changing of the speed sensor */
 8001f50:	0020      	movs	r0, r4
 8001f52:	f7ff fcb5 	bl	80018c0 <MCI_ExecBufferedCommands>
              Mci[M1].State = RUN;
 8001f56:	2306      	movs	r3, #6
              PWMC_SwitchOnPWM(pwmcHandle[M1]);
 8001f58:	6828      	ldr	r0, [r5, #0]
              Mci[M1].State = RUN;
 8001f5a:	77e3      	strb	r3, [r4, #31]
              PWMC_SwitchOnPWM(pwmcHandle[M1]);
 8001f5c:	f000 fc7a 	bl	8002854 <PWMC_SwitchOnPWM>
 8001f60:	e7c7      	b.n	8001ef2 <TSK_MediumFrequencyTaskM1+0x9e>
          if (MCI_STOP == Mci[M1].DirectCommand)
 8001f62:	7fa3      	ldrb	r3, [r4, #30]
 8001f64:	2b05      	cmp	r3, #5
 8001f66:	d0c1      	beq.n	8001eec <TSK_MediumFrequencyTaskM1+0x98>
            MCI_ExecBufferedCommands(&Mci[M1]);
 8001f68:	0020      	movs	r0, r4
 8001f6a:	f7ff fca9 	bl	80018c0 <MCI_ExecBufferedCommands>
              FOC_CalcCurrRef(M1);
 8001f6e:	2000      	movs	r0, #0
 8001f70:	f7ff ff1e 	bl	8001db0 <FOC_CalcCurrRef>
              if(!IsSpeedReliable)
 8001f74:	2d00      	cmp	r5, #0
 8001f76:	d1bc      	bne.n	8001ef2 <TSK_MediumFrequencyTaskM1+0x9e>
                MCI_FaultProcessing(&Mci[M1], MC_SPEED_FDBK, 0);
 8001f78:	002a      	movs	r2, r5
 8001f7a:	2120      	movs	r1, #32
 8001f7c:	0020      	movs	r0, r4
 8001f7e:	f7ff fc97 	bl	80018b0 <MCI_FaultProcessing>
 8001f82:	e7b6      	b.n	8001ef2 <TSK_MediumFrequencyTaskM1+0x9e>
          if (TSK_StopPermanencyTimeHasElapsedM1())
 8001f84:	f7ff ff5e 	bl	8001e44 <TSK_StopPermanencyTimeHasElapsedM1>
 8001f88:	2800      	cmp	r0, #0
 8001f8a:	d0b2      	beq.n	8001ef2 <TSK_MediumFrequencyTaskM1+0x9e>
 8001f8c:	e7c2      	b.n	8001f14 <TSK_MediumFrequencyTaskM1+0xc0>
          if (MCI_ACK_FAULTS == Mci[M1].DirectCommand)
 8001f8e:	7fa3      	ldrb	r3, [r4, #30]
 8001f90:	2b02      	cmp	r3, #2
 8001f92:	d1ae      	bne.n	8001ef2 <TSK_MediumFrequencyTaskM1+0x9e>
 8001f94:	e7be      	b.n	8001f14 <TSK_MediumFrequencyTaskM1+0xc0>
      Mci[M1].State = FAULT_OVER;
 8001f96:	230b      	movs	r3, #11
 8001f98:	e795      	b.n	8001ec6 <TSK_MediumFrequencyTaskM1+0x72>
 8001f9a:	46c0      	nop			; (mov r8, r8)
 8001f9c:	20000020 	.word	0x20000020
 8001fa0:	200002c8 	.word	0x200002c8
 8001fa4:	2000068c 	.word	0x2000068c
 8001fa8:	200006f8 	.word	0x200006f8
 8001fac:	200002d4 	.word	0x200002d4

08001fb0 <MC_Scheduler>:
{
 8001fb0:	b570      	push	{r4, r5, r6, lr}
  if (((uint8_t)1) == bMCBootCompleted)
 8001fb2:	4b1d      	ldr	r3, [pc, #116]	; (8002028 <MC_Scheduler+0x78>)
 8001fb4:	781b      	ldrb	r3, [r3, #0]
 8001fb6:	2b01      	cmp	r3, #1
 8001fb8:	d116      	bne.n	8001fe8 <MC_Scheduler+0x38>
    if(hMFTaskCounterM1 > 0u)
 8001fba:	4c1c      	ldr	r4, [pc, #112]	; (800202c <MC_Scheduler+0x7c>)
 8001fbc:	8823      	ldrh	r3, [r4, #0]
 8001fbe:	2b00      	cmp	r3, #0
 8001fc0:	d013      	beq.n	8001fea <MC_Scheduler+0x3a>
      hMFTaskCounterM1--;
 8001fc2:	3b01      	subs	r3, #1
 8001fc4:	b29b      	uxth	r3, r3
    if(hBootCapDelayCounterM1 > 0U)
 8001fc6:	4a1a      	ldr	r2, [pc, #104]	; (8002030 <MC_Scheduler+0x80>)
      hMFTaskCounterM1--;
 8001fc8:	8023      	strh	r3, [r4, #0]
    if(hBootCapDelayCounterM1 > 0U)
 8001fca:	8813      	ldrh	r3, [r2, #0]
 8001fcc:	2b00      	cmp	r3, #0
 8001fce:	d003      	beq.n	8001fd8 <MC_Scheduler+0x28>
      hBootCapDelayCounterM1--;
 8001fd0:	8813      	ldrh	r3, [r2, #0]
 8001fd2:	3b01      	subs	r3, #1
 8001fd4:	b29b      	uxth	r3, r3
 8001fd6:	8013      	strh	r3, [r2, #0]
    if(hStopPermanencyCounterM1 > 0U)
 8001fd8:	4a16      	ldr	r2, [pc, #88]	; (8002034 <MC_Scheduler+0x84>)
 8001fda:	8813      	ldrh	r3, [r2, #0]
 8001fdc:	2b00      	cmp	r3, #0
 8001fde:	d003      	beq.n	8001fe8 <MC_Scheduler+0x38>
      hStopPermanencyCounterM1--;
 8001fe0:	8813      	ldrh	r3, [r2, #0]
 8001fe2:	3b01      	subs	r3, #1
 8001fe4:	b29b      	uxth	r3, r3
 8001fe6:	8013      	strh	r3, [r2, #0]
}
 8001fe8:	bd70      	pop	{r4, r5, r6, pc}
      TSK_MediumFrequencyTaskM1();
 8001fea:	f7ff ff33 	bl	8001e54 <TSK_MediumFrequencyTaskM1>
      MC_APP_PostMediumFrequencyHook_M1();
 8001fee:	f7ff fc3e 	bl	800186e <MC_APP_PostMediumFrequencyHook_M1>
      MCP_Over_UartA.rxBuffer = MCP_Over_UartA.pTransportLayer->fRXPacketProcess(MCP_Over_UartA.pTransportLayer,
 8001ff2:	4d11      	ldr	r5, [pc, #68]	; (8002038 <MC_Scheduler+0x88>)
 8001ff4:	4911      	ldr	r1, [pc, #68]	; (800203c <MC_Scheduler+0x8c>)
 8001ff6:	6828      	ldr	r0, [r5, #0]
 8001ff8:	6883      	ldr	r3, [r0, #8]
 8001ffa:	4798      	blx	r3
 8001ffc:	6068      	str	r0, [r5, #4]
      if ( 0U == MCP_Over_UartA.rxBuffer)
 8001ffe:	2800      	cmp	r0, #0
 8002000:	d00f      	beq.n	8002022 <MC_Scheduler+0x72>
        if (0U == MCP_Over_UartA.pTransportLayer->fGetBuffer(MCP_Over_UartA.pTransportLayer,
 8002002:	6828      	ldr	r0, [r5, #0]
 8002004:	220a      	movs	r2, #10
 8002006:	490e      	ldr	r1, [pc, #56]	; (8002040 <MC_Scheduler+0x90>)
 8002008:	6803      	ldr	r3, [r0, #0]
 800200a:	4798      	blx	r3
 800200c:	2800      	cmp	r0, #0
 800200e:	d008      	beq.n	8002022 <MC_Scheduler+0x72>
          MCP_ReceivedPacket(&MCP_Over_UartA);
 8002010:	0028      	movs	r0, r5
 8002012:	f000 fa1f 	bl	8002454 <MCP_ReceivedPacket>
          MCP_Over_UartA.pTransportLayer->fSendPacket(MCP_Over_UartA.pTransportLayer, MCP_Over_UartA.txBuffer,
 8002016:	6828      	ldr	r0, [r5, #0]
 8002018:	230a      	movs	r3, #10
 800201a:	89ea      	ldrh	r2, [r5, #14]
 800201c:	6846      	ldr	r6, [r0, #4]
 800201e:	68a9      	ldr	r1, [r5, #8]
 8002020:	47b0      	blx	r6
{
 8002022:	2301      	movs	r3, #1
 8002024:	e7cf      	b.n	8001fc6 <MC_Scheduler+0x16>
 8002026:	46c0      	nop			; (mov r8, r8)
 8002028:	200006ee 	.word	0x200006ee
 800202c:	200006f2 	.word	0x200006f2
 8002030:	200006f0 	.word	0x200006f0
 8002034:	200006f4 	.word	0x200006f4
 8002038:	2000031c 	.word	0x2000031c
 800203c:	20000328 	.word	0x20000328
 8002040:	20000324 	.word	0x20000324

08002044 <TSK_HighFrequencyTask>:
  * subsystem (see the state machine(s)).
  *
  * @retval Number of the  motor instance which FOC loop was executed.
  */
__weak uint8_t TSK_HighFrequencyTask(void)
{
 8002044:	b5f0      	push	{r4, r5, r6, r7, lr}
  uint8_t bMotorNbr = 0;
  /* USER CODE BEGIN HighFrequencyTask 0 */

  /* USER CODE END HighFrequencyTask 0 */

  (void)HALL_CalcElAngle(&HALL_M1);
 8002046:	4840      	ldr	r0, [pc, #256]	; (8002148 <TSK_HighFrequencyTask+0x104>)
{
 8002048:	b089      	sub	sp, #36	; 0x24
  (void)HALL_CalcElAngle(&HALL_M1);
 800204a:	f7fe ffbf 	bl	8000fcc <HALL_CalcElAngle>
  ab_t Iab;
  alphabeta_t Ialphabeta, Valphabeta;
  int16_t hElAngle;
  uint16_t hCodeError;
  SpeednPosFdbk_Handle_t *speedHandle;
  speedHandle = STC_GetSpeedSensor(pSTC[M1]);
 800204e:	4b3f      	ldr	r3, [pc, #252]	; (800214c <TSK_HighFrequencyTask+0x108>)
 8002050:	6818      	ldr	r0, [r3, #0]
 8002052:	f004 f9c7 	bl	80063e4 <STC_GetSpeedSensor>
 8002056:	0007      	movs	r7, r0
  hElAngle = SPD_GetElAngle(speedHandle);
 8002058:	f004 f970 	bl	800633c <SPD_GetElAngle>
  PWMC_GetPhaseCurrents(pwmcHandle[M1], &Iab);
 800205c:	4e3c      	ldr	r6, [pc, #240]	; (8002150 <TSK_HighFrequencyTask+0x10c>)
  hElAngle = SPD_GetElAngle(speedHandle);
 800205e:	0005      	movs	r5, r0
  PWMC_GetPhaseCurrents(pwmcHandle[M1], &Iab);
 8002060:	a905      	add	r1, sp, #20
 8002062:	6830      	ldr	r0, [r6, #0]
 8002064:	f000 faaa 	bl	80025bc <PWMC_GetPhaseCurrents>
  RCM_ExecNextConv();
 8002068:	f001 ffa2 	bl	8003fb0 <RCM_ExecNextConv>
  Ialphabeta = MCM_Clarke(Iab);
 800206c:	9805      	ldr	r0, [sp, #20]
 800206e:	f7ff fd0b 	bl	8001a88 <MCM_Clarke>
  Iqd = MCM_Park(Ialphabeta, hElAngle);
 8002072:	0029      	movs	r1, r5
  Ialphabeta = MCM_Clarke(Iab);
 8002074:	9006      	str	r0, [sp, #24]
  Iqd = MCM_Park(Ialphabeta, hElAngle);
 8002076:	f7ff fd77 	bl	8001b68 <MCM_Park>
  Vqd.q = PI_Controller(pPIDIq[M1], (int32_t)(FOCVars[M1].Iqdref.q) - Iqd.q);
 800207a:	4c36      	ldr	r4, [pc, #216]	; (8002154 <TSK_HighFrequencyTask+0x110>)
  Iqd = MCM_Park(Ialphabeta, hElAngle);
 800207c:	9003      	str	r0, [sp, #12]
  Vqd.q = PI_Controller(pPIDIq[M1], (int32_t)(FOCVars[M1].Iqdref.q) - Iqd.q);
 800207e:	2310      	movs	r3, #16
 8002080:	5ee1      	ldrsh	r1, [r4, r3]
 8002082:	4b35      	ldr	r3, [pc, #212]	; (8002158 <TSK_HighFrequencyTask+0x114>)
 8002084:	b200      	sxth	r0, r0
 8002086:	1a09      	subs	r1, r1, r0
 8002088:	6818      	ldr	r0, [r3, #0]
 800208a:	f004 f861 	bl	8006150 <PI_Controller>
 800208e:	9000      	str	r0, [sp, #0]
  Vqd.d = PI_Controller(pPIDId[M1], (int32_t)(FOCVars[M1].Iqdref.d) - Iqd.d);
 8002090:	2312      	movs	r3, #18
 8002092:	5ee1      	ldrsh	r1, [r4, r3]
 8002094:	ab02      	add	r3, sp, #8
 8002096:	2206      	movs	r2, #6
 8002098:	5e9b      	ldrsh	r3, [r3, r2]
 800209a:	1ac9      	subs	r1, r1, r3
 800209c:	4b2f      	ldr	r3, [pc, #188]	; (800215c <TSK_HighFrequencyTask+0x118>)
 800209e:	6818      	ldr	r0, [r3, #0]
 80020a0:	f004 f856 	bl	8006150 <PI_Controller>
  Vqd = Circle_Limitation(&CircleLimitationM1, Vqd);
 80020a4:	9a00      	ldr	r2, [sp, #0]
 80020a6:	ab04      	add	r3, sp, #16
 80020a8:	801a      	strh	r2, [r3, #0]
 80020aa:	8058      	strh	r0, [r3, #2]
 80020ac:	9904      	ldr	r1, [sp, #16]
 80020ae:	482c      	ldr	r0, [pc, #176]	; (8002160 <TSK_HighFrequencyTask+0x11c>)
 80020b0:	f003 fe8e 	bl	8005dd0 <Circle_Limitation>
 80020b4:	b203      	sxth	r3, r0
 80020b6:	9004      	str	r0, [sp, #16]
 80020b8:	9300      	str	r3, [sp, #0]
 80020ba:	1403      	asrs	r3, r0, #16
  hElAngle += SPD_GetInstElSpeedDpp(speedHandle)*REV_PARK_ANGLE_COMPENSATION_FACTOR;
 80020bc:	0038      	movs	r0, r7
  Vqd = Circle_Limitation(&CircleLimitationM1, Vqd);
 80020be:	9301      	str	r3, [sp, #4]
  hElAngle += SPD_GetInstElSpeedDpp(speedHandle)*REV_PARK_ANGLE_COMPENSATION_FACTOR;
 80020c0:	f004 f942 	bl	8006348 <SPD_GetInstElSpeedDpp>
  Valphabeta = MCM_Rev_Park(Vqd, hElAngle);
 80020c4:	0029      	movs	r1, r5
 80020c6:	9804      	ldr	r0, [sp, #16]
 80020c8:	f7ff fd92 	bl	8001bf0 <MCM_Rev_Park>
 80020cc:	9007      	str	r0, [sp, #28]
  RCM_ReadOngoingConv();
 80020ce:	f001 ffa5 	bl	800401c <RCM_ReadOngoingConv>
  hCodeError = PWMC_SetPhaseVoltage(pwmcHandle[M1], Valphabeta);
 80020d2:	9907      	ldr	r1, [sp, #28]
 80020d4:	6830      	ldr	r0, [r6, #0]
 80020d6:	f000 fa75 	bl	80025c4 <PWMC_SetPhaseVoltage>
  PWMC_CalcPhaseCurrentsEst(pwmcHandle[M1],Iqd, hElAngle);
 80020da:	002a      	movs	r2, r5
 80020dc:	9903      	ldr	r1, [sp, #12]
  hCodeError = PWMC_SetPhaseVoltage(pwmcHandle[M1], Valphabeta);
 80020de:	0007      	movs	r7, r0
  PWMC_CalcPhaseCurrentsEst(pwmcHandle[M1],Iqd, hElAngle);
 80020e0:	6830      	ldr	r0, [r6, #0]
 80020e2:	f000 fbd8 	bl	8002896 <PWMC_CalcPhaseCurrentsEst>

  FOCVars[M1].Vqd = Vqd;
 80020e6:	9b00      	ldr	r3, [sp, #0]
  FOCVars[M1].Iab = Iab;
 80020e8:	2204      	movs	r2, #4
  FOCVars[M1].Vqd = Vqd;
 80020ea:	82e3      	strh	r3, [r4, #22]
 80020ec:	9b01      	ldr	r3, [sp, #4]
  FOCVars[M1].Iab = Iab;
 80020ee:	a905      	add	r1, sp, #20
  FOCVars[M1].Vqd = Vqd;
 80020f0:	8323      	strh	r3, [r4, #24]
  FOCVars[M1].Iab = Iab;
 80020f2:	0020      	movs	r0, r4
 80020f4:	f004 fa34 	bl	8006560 <memcpy>
  FOCVars[M1].Ialphabeta = Ialphabeta;
 80020f8:	2204      	movs	r2, #4
 80020fa:	a906      	add	r1, sp, #24
 80020fc:	1d20      	adds	r0, r4, #4
 80020fe:	f004 fa2f 	bl	8006560 <memcpy>
  FOCVars[M1].Iqd = Iqd;
 8002102:	0020      	movs	r0, r4
 8002104:	2204      	movs	r2, #4
 8002106:	a903      	add	r1, sp, #12
 8002108:	300c      	adds	r0, #12
 800210a:	f004 fa29 	bl	8006560 <memcpy>
  FOCVars[M1].Valphabeta = Valphabeta;
 800210e:	0020      	movs	r0, r4
 8002110:	2204      	movs	r2, #4
 8002112:	301a      	adds	r0, #26
 8002114:	a907      	add	r1, sp, #28
 8002116:	f004 fa23 	bl	8006560 <memcpy>
  FOCVars[M1].hElAngle = hElAngle;
 800211a:	8425      	strh	r5, [r4, #32]
  if(hFOCreturn == MC_DURATION)
 800211c:	2f01      	cmp	r7, #1
 800211e:	d104      	bne.n	800212a <TSK_HighFrequencyTask+0xe6>
    MCI_FaultProcessing(&Mci[M1], MC_DURATION, 0);
 8002120:	2200      	movs	r2, #0
 8002122:	0039      	movs	r1, r7
 8002124:	480f      	ldr	r0, [pc, #60]	; (8002164 <TSK_HighFrequencyTask+0x120>)
 8002126:	f7ff fbc3 	bl	80018b0 <MCI_FaultProcessing>
  GLOBAL_TIMESTAMP++;
 800212a:	4a0f      	ldr	r2, [pc, #60]	; (8002168 <TSK_HighFrequencyTask+0x124>)
  if (0U == MCPA_UART_A.Mark)
 800212c:	480f      	ldr	r0, [pc, #60]	; (800216c <TSK_HighFrequencyTask+0x128>)
  GLOBAL_TIMESTAMP++;
 800212e:	6813      	ldr	r3, [r2, #0]
 8002130:	3301      	adds	r3, #1
 8002132:	6013      	str	r3, [r2, #0]
  if (0U == MCPA_UART_A.Mark)
 8002134:	0003      	movs	r3, r0
 8002136:	3329      	adds	r3, #41	; 0x29
 8002138:	781b      	ldrb	r3, [r3, #0]
 800213a:	2b00      	cmp	r3, #0
 800213c:	d001      	beq.n	8002142 <TSK_HighFrequencyTask+0xfe>
    MCPA_dataLog (&MCPA_UART_A);
 800213e:	f003 fe95 	bl	8005e6c <MCPA_dataLog>
}
 8002142:	2000      	movs	r0, #0
 8002144:	b009      	add	sp, #36	; 0x24
 8002146:	bdf0      	pop	{r4, r5, r6, r7, pc}
 8002148:	20000020 	.word	0x20000020
 800214c:	200002d4 	.word	0x200002d4
 8002150:	200006f8 	.word	0x200006f8
 8002154:	200006c8 	.word	0x200006c8
 8002158:	200002d0 	.word	0x200002d0
 800215c:	200002cc 	.word	0x200002cc
 8002160:	2000001c 	.word	0x2000001c
 8002164:	2000068c 	.word	0x2000068c
 8002168:	200009e4 	.word	0x200009e4
 800216c:	200002f0 	.word	0x200002f0

08002170 <TSK_SafetyTask_PWMOFF>:
  * @brief  Safety task implementation if  MC.M1_ON_OVER_VOLTAGE == TURN_OFF_PWM.
  * @param  bMotor Motor reference number defined
  *         \link Motors_reference_number here \endlink.
  */
__weak void TSK_SafetyTask_PWMOFF(uint8_t bMotor)
{
 8002170:	b5f7      	push	{r0, r1, r2, r4, r5, r6, r7, lr}

  /* USER CODE END TSK_SafetyTask_PWMOFF 0 */
  uint16_t CodeReturn = MC_NO_ERROR;
  const uint16_t errMask[NBR_OF_MOTORS] = {VBUS_TEMP_ERR_MASK};
  /* Check for fault if FW protection is activated. It returns MC_OVER_TEMP or MC_NO_ERROR */
  CodeReturn |= PWMC_IsFaultOccurred(pwmcHandle[bMotor]);     /* check for fault. It return MC_OVER_CURR or MC_NO_FAULTS
 8002172:	4b1c      	ldr	r3, [pc, #112]	; (80021e4 <TSK_SafetyTask_PWMOFF+0x74>)
 8002174:	0087      	lsls	r7, r0, #2
{
 8002176:	0004      	movs	r4, r0
  CodeReturn |= PWMC_IsFaultOccurred(pwmcHandle[bMotor]);     /* check for fault. It return MC_OVER_CURR or MC_NO_FAULTS
 8002178:	58f8      	ldr	r0, [r7, r3]
 800217a:	9301      	str	r3, [sp, #4]
 800217c:	f000 fbe1 	bl	8002942 <PWMC_IsFaultOccurred>
 8002180:	0006      	movs	r6, r0
                                                    (for STM32F30x can return MC_OVER_VOLT in case of HW Overvoltage) */
  if (M1 == bMotor)
 8002182:	2c00      	cmp	r4, #0
 8002184:	d10b      	bne.n	800219e <TSK_SafetyTask_PWMOFF+0x2e>
  {
    uint16_t rawValueM1 =  RCM_ExecRegularConv(&VbusRegConv_M1);
 8002186:	4818      	ldr	r0, [pc, #96]	; (80021e8 <TSK_SafetyTask_PWMOFF+0x78>)
 8002188:	f001 fe50 	bl	8003e2c <RCM_ExecRegularConv>
    CodeReturn |= errMask[bMotor] & RVBS_CalcAvVbus(&BusVoltageSensor_M1, rawValueM1);
 800218c:	4b17      	ldr	r3, [pc, #92]	; (80021ec <TSK_SafetyTask_PWMOFF+0x7c>)
    uint16_t rawValueM1 =  RCM_ExecRegularConv(&VbusRegConv_M1);
 800218e:	0001      	movs	r1, r0
    CodeReturn |= errMask[bMotor] & RVBS_CalcAvVbus(&BusVoltageSensor_M1, rawValueM1);
 8002190:	0018      	movs	r0, r3
 8002192:	f004 f8a1 	bl	80062d8 <RVBS_CalcAvVbus>
 8002196:	2308      	movs	r3, #8
 8002198:	4398      	bics	r0, r3
 800219a:	4306      	orrs	r6, r0
 800219c:	b2b6      	uxth	r6, r6
  }
  else
  {
    /* Nothing to do */
  }
  MCI_FaultProcessing(&Mci[bMotor], CodeReturn, ~CodeReturn); /* Process faults */
 800219e:	2528      	movs	r5, #40	; 0x28
 80021a0:	43f2      	mvns	r2, r6
 80021a2:	4365      	muls	r5, r4
 80021a4:	4b12      	ldr	r3, [pc, #72]	; (80021f0 <TSK_SafetyTask_PWMOFF+0x80>)
 80021a6:	0031      	movs	r1, r6
 80021a8:	18ed      	adds	r5, r5, r3
 80021aa:	0028      	movs	r0, r5
 80021ac:	b292      	uxth	r2, r2
 80021ae:	f7ff fb7f 	bl	80018b0 <MCI_FaultProcessing>

  if (MCI_GetFaultState(&Mci[bMotor]) != (uint32_t)MC_NO_FAULTS)
 80021b2:	0028      	movs	r0, r5
 80021b4:	f7ff fc22 	bl	80019fc <MCI_GetFaultState>
 80021b8:	2800      	cmp	r0, #0
 80021ba:	d012      	beq.n	80021e2 <TSK_SafetyTask_PWMOFF+0x72>
  {
    PWMC_SwitchOffPWM(pwmcHandle[bMotor]);
 80021bc:	9b01      	ldr	r3, [sp, #4]
 80021be:	59d8      	ldr	r0, [r3, r7]
 80021c0:	f000 fb44 	bl	800284c <PWMC_SwitchOffPWM>
    if (MCPA_UART_A.Mark != 0U)
 80021c4:	480b      	ldr	r0, [pc, #44]	; (80021f4 <TSK_SafetyTask_PWMOFF+0x84>)
 80021c6:	0003      	movs	r3, r0
 80021c8:	3329      	adds	r3, #41	; 0x29
 80021ca:	781b      	ldrb	r3, [r3, #0]
 80021cc:	2b00      	cmp	r3, #0
 80021ce:	d001      	beq.n	80021d4 <TSK_SafetyTask_PWMOFF+0x64>
    {
      MCPA_flushDataLog (&MCPA_UART_A);
 80021d0:	f003 fefc 	bl	8005fcc <MCPA_flushDataLog>
    }
    else
    {
      /* Nothing to do */
    }
    FOC_Clear(bMotor);
 80021d4:	0020      	movs	r0, r4
 80021d6:	f7ff fd31 	bl	8001c3c <FOC_Clear>
    PQD_Clear(pMPM[bMotor]); //cstat !MISRAC2012-Rule-11.3
 80021da:	4b07      	ldr	r3, [pc, #28]	; (80021f8 <TSK_SafetyTask_PWMOFF+0x88>)
 80021dc:	59d8      	ldr	r0, [r3, r7]
 80021de:	f004 f80f 	bl	8006200 <PQD_Clear>
    /* No errors */
  }
  /* USER CODE BEGIN TSK_SafetyTask_PWMOFF 3 */

  /* USER CODE END TSK_SafetyTask_PWMOFF 3 */
}
 80021e2:	bdf7      	pop	{r0, r1, r2, r4, r5, r6, r7, pc}
 80021e4:	200006f8 	.word	0x200006f8
 80021e8:	200002b8 	.word	0x200002b8
 80021ec:	20000000 	.word	0x20000000
 80021f0:	2000068c 	.word	0x2000068c
 80021f4:	200002f0 	.word	0x200002f0
 80021f8:	200002c8 	.word	0x200002c8

080021fc <TSK_SafetyTask>:
{
 80021fc:	b510      	push	{r4, lr}
  if (1U == bMCBootCompleted)
 80021fe:	4b05      	ldr	r3, [pc, #20]	; (8002214 <TSK_SafetyTask+0x18>)
 8002200:	781b      	ldrb	r3, [r3, #0]
 8002202:	2b01      	cmp	r3, #1
 8002204:	d104      	bne.n	8002210 <TSK_SafetyTask+0x14>
    TSK_SafetyTask_PWMOFF(M1);
 8002206:	2000      	movs	r0, #0
 8002208:	f7ff ffb2 	bl	8002170 <TSK_SafetyTask_PWMOFF>
    RCM_ExecUserConv();
 800220c:	f001 fea0 	bl	8003f50 <RCM_ExecUserConv>
}
 8002210:	bd10      	pop	{r4, pc}
 8002212:	46c0      	nop			; (mov r8, r8)
 8002214:	200006ee 	.word	0x200006ee

08002218 <MC_RunMotorControlTasks>:
{
 8002218:	b510      	push	{r4, lr}
  if (0U == bMCBootCompleted)
 800221a:	4b04      	ldr	r3, [pc, #16]	; (800222c <MC_RunMotorControlTasks+0x14>)
 800221c:	781b      	ldrb	r3, [r3, #0]
 800221e:	2b00      	cmp	r3, #0
 8002220:	d003      	beq.n	800222a <MC_RunMotorControlTasks+0x12>
    MC_Scheduler();
 8002222:	f7ff fec5 	bl	8001fb0 <MC_Scheduler>
    TSK_SafetyTask();
 8002226:	f7ff ffe9 	bl	80021fc <TSK_SafetyTask>
}
 800222a:	bd10      	pop	{r4, pc}
 800222c:	200006ee 	.word	0x200006ee

08002230 <TSK_HardwareFaultTask>:
  *
  *  This function is to be executed when a general hardware failure has been detected
  * by the microcontroller and is used to put the system in safety condition.
  */
__weak void TSK_HardwareFaultTask(void)
{
 8002230:	b510      	push	{r4, lr}
  /* USER CODE BEGIN TSK_HardwareFaultTask 0 */

  /* USER CODE END TSK_HardwareFaultTask 0 */
  R1_SwitchOffPWM(pwmcHandle[M1]);
 8002232:	4b05      	ldr	r3, [pc, #20]	; (8002248 <TSK_HardwareFaultTask+0x18>)
 8002234:	6818      	ldr	r0, [r3, #0]
 8002236:	f001 f97f 	bl	8003538 <R1_SwitchOffPWM>
  MCI_FaultProcessing(&Mci[M1], MC_SW_ERROR, 0);
 800223a:	2200      	movs	r2, #0
 800223c:	2180      	movs	r1, #128	; 0x80
 800223e:	4803      	ldr	r0, [pc, #12]	; (800224c <TSK_HardwareFaultTask+0x1c>)
 8002240:	f7ff fb36 	bl	80018b0 <MCI_FaultProcessing>

  /* USER CODE BEGIN TSK_HardwareFaultTask 1 */

  /* USER CODE END TSK_HardwareFaultTask 1 */
}
 8002244:	bd10      	pop	{r4, pc}
 8002246:	46c0      	nop			; (mov r8, r8)
 8002248:	200006f8 	.word	0x200006f8
 800224c:	2000068c 	.word	0x2000068c

08002250 <UI_HandleStartStopButton_cb>:

__weak void UI_HandleStartStopButton_cb (void)
{
 8002250:	b510      	push	{r4, lr}
/* USER CODE BEGIN START_STOP_BTN */
  if (IDLE == MC_GetSTMStateMotor1())
 8002252:	f7ff fb01 	bl	8001858 <MC_GetSTMStateMotor1>
 8002256:	2800      	cmp	r0, #0
 8002258:	d102      	bne.n	8002260 <UI_HandleStartStopButton_cb+0x10>
  {
    /* Ramp parameters should be tuned for the actual motor */
    (void)MC_StartMotor1();
 800225a:	f7ff faed 	bl	8001838 <MC_StartMotor1>
  else
  {
    (void)MC_StopMotor1();
  }
/* USER CODE END START_STOP_BTN */
}
 800225e:	bd10      	pop	{r4, pc}
    (void)MC_StopMotor1();
 8002260:	f7ff faf2 	bl	8001848 <MC_StopMotor1>
}
 8002264:	e7fb      	b.n	800225e <UI_HandleStartStopButton_cb+0xe>
	...

08002268 <mc_lock_pins>:

 /**
  * @brief  Locks GPIO pins used for Motor Control to prevent accidental reconfiguration.
  */
__weak void mc_lock_pins (void)
{
 8002268:	b570      	push	{r4, r5, r6, lr}
LL_GPIO_LockPin(M1_CURR_AMPL_GPIO_Port, M1_CURR_AMPL_Pin);
 800226a:	2490      	movs	r4, #144	; 0x90
 800226c:	05e4      	lsls	r4, r4, #23
LL_GPIO_LockPin(M1_BUS_VOLTAGE_GPIO_Port, M1_BUS_VOLTAGE_Pin);
 800226e:	4d1f      	ldr	r5, [pc, #124]	; (80022ec <mc_lock_pins+0x84>)
LL_GPIO_LockPin(M1_CURR_AMPL_GPIO_Port, M1_CURR_AMPL_Pin);
 8002270:	0020      	movs	r0, r4
 8002272:	2120      	movs	r1, #32
 8002274:	f7ff fcd5 	bl	8001c22 <LL_GPIO_LockPin>
LL_GPIO_LockPin(M1_BUS_VOLTAGE_GPIO_Port, M1_BUS_VOLTAGE_Pin);
 8002278:	0028      	movs	r0, r5
 800227a:	2102      	movs	r1, #2
 800227c:	f7ff fcd1 	bl	8001c22 <LL_GPIO_LockPin>
LL_GPIO_LockPin(M1_HALL_H2_GPIO_Port, M1_HALL_H2_Pin);
 8002280:	0020      	movs	r0, r4
 8002282:	2102      	movs	r1, #2
 8002284:	f7ff fccd 	bl	8001c22 <LL_GPIO_LockPin>
LL_GPIO_LockPin(M1_HALL_H3_GPIO_Port, M1_HALL_H3_Pin);
 8002288:	0020      	movs	r0, r4
 800228a:	2104      	movs	r1, #4
 800228c:	f7ff fcc9 	bl	8001c22 <LL_GPIO_LockPin>
LL_GPIO_LockPin(M1_HALL_H1_GPIO_Port, M1_HALL_H1_Pin);
 8002290:	0020      	movs	r0, r4
 8002292:	2101      	movs	r1, #1
 8002294:	f7ff fcc5 	bl	8001c22 <LL_GPIO_LockPin>
LL_GPIO_LockPin(M1_PWM_UH_GPIO_Port, M1_PWM_UH_Pin);
 8002298:	2180      	movs	r1, #128	; 0x80
 800229a:	0020      	movs	r0, r4
 800229c:	0049      	lsls	r1, r1, #1
 800229e:	f7ff fcc0 	bl	8001c22 <LL_GPIO_LockPin>
LL_GPIO_LockPin(M1_PWM_VH_GPIO_Port, M1_PWM_VH_Pin);
 80022a2:	2180      	movs	r1, #128	; 0x80
 80022a4:	0020      	movs	r0, r4
 80022a6:	0089      	lsls	r1, r1, #2
 80022a8:	f7ff fcbb 	bl	8001c22 <LL_GPIO_LockPin>
LL_GPIO_LockPin(M1_OCP_GPIO_Port, M1_OCP_Pin);
 80022ac:	2180      	movs	r1, #128	; 0x80
 80022ae:	0028      	movs	r0, r5
 80022b0:	0149      	lsls	r1, r1, #5
 80022b2:	f7ff fcb6 	bl	8001c22 <LL_GPIO_LockPin>
LL_GPIO_LockPin(M1_PWM_VL_GPIO_Port, M1_PWM_VL_Pin);
 80022b6:	2180      	movs	r1, #128	; 0x80
 80022b8:	0028      	movs	r0, r5
 80022ba:	01c9      	lsls	r1, r1, #7
 80022bc:	f7ff fcb1 	bl	8001c22 <LL_GPIO_LockPin>
LL_GPIO_LockPin(M1_PWM_WH_GPIO_Port, M1_PWM_WH_Pin);
 80022c0:	2180      	movs	r1, #128	; 0x80
 80022c2:	0020      	movs	r0, r4
 80022c4:	00c9      	lsls	r1, r1, #3
 80022c6:	f7ff fcac 	bl	8001c22 <LL_GPIO_LockPin>
LL_GPIO_LockPin(M1_PWM_WL_GPIO_Port, M1_PWM_WL_Pin);
 80022ca:	2180      	movs	r1, #128	; 0x80
 80022cc:	0028      	movs	r0, r5
 80022ce:	0209      	lsls	r1, r1, #8
 80022d0:	f7ff fca7 	bl	8001c22 <LL_GPIO_LockPin>
LL_GPIO_LockPin(M1_PWM_UL_GPIO_Port, M1_PWM_UL_Pin);
 80022d4:	2180      	movs	r1, #128	; 0x80
 80022d6:	0028      	movs	r0, r5
 80022d8:	0189      	lsls	r1, r1, #6
 80022da:	f7ff fca2 	bl	8001c22 <LL_GPIO_LockPin>
LL_GPIO_LockPin(M1_EN_DRIVER_GPIO_Port, M1_EN_DRIVER_Pin);
 80022de:	2180      	movs	r1, #128	; 0x80
 80022e0:	0020      	movs	r0, r4
 80022e2:	0109      	lsls	r1, r1, #4
 80022e4:	f7ff fc9d 	bl	8001c22 <LL_GPIO_LockPin>
}
 80022e8:	bd70      	pop	{r4, r5, r6, pc}
 80022ea:	46c0      	nop			; (mov r8, r8)
 80022ec:	48000400 	.word	0x48000400

080022f0 <RI_SetRegCommandParser>:
  * @param  txSyncFreeSpace Space available for synchronous transmission
  *
  * @retval Returns #MCP_CMD_OK if the command is acknowledged and #MCP_CMD_NOK if not.
  */
uint8_t RI_SetRegCommandParser (MCP_Handle_t * pHandle, uint16_t txSyncFreeSpace)
{
 80022f0:	b5f0      	push	{r4, r5, r6, r7, lr}
  else
  {
#endif
    uint16_t * dataElementID;
    uint8_t * rxData = pHandle->rxBuffer;
    uint8_t * txData = pHandle->txBuffer;
 80022f2:	6883      	ldr	r3, [r0, #8]
{
 80022f4:	b08b      	sub	sp, #44	; 0x2c
 80022f6:	9103      	str	r1, [sp, #12]
    uint8_t * txData = pHandle->txBuffer;
 80022f8:	9304      	str	r3, [sp, #16]
    int16_t rxLength = pHandle->rxLength;
 80022fa:	230c      	movs	r3, #12
 80022fc:	5ec2      	ldrsh	r2, [r0, r3]
{
 80022fe:	0004      	movs	r4, r0
    uint8_t * rxData = pHandle->rxBuffer;
 8002300:	6841      	ldr	r1, [r0, #4]
    uint16_t size = 0U;
 8002302:	200e      	movs	r0, #14
 8002304:	2300      	movs	r3, #0
 8002306:	ad04      	add	r5, sp, #16
 8002308:	1940      	adds	r0, r0, r5
 800230a:	8003      	strh	r3, [r0, #0]
    uint8_t accessResult;

    uint16_t regID;
    uint8_t typeID;
    uint8_t motorID;
    uint8_t (*SetRegFcts[NBR_OF_MOTORS+1])(uint16_t, uint8_t, uint8_t*, uint16_t*, int16_t) = {&RI_SetRegisterGlobal, &RI_SetRegisterMotor1};
 800230c:	4829      	ldr	r0, [pc, #164]	; (80023b4 <RI_SetRegCommandParser+0xc4>)
    uint8_t number_of_item =0;
    pHandle->txLength = 0;
 800230e:	81e3      	strh	r3, [r4, #14]
    uint8_t (*SetRegFcts[NBR_OF_MOTORS+1])(uint16_t, uint8_t, uint8_t*, uint16_t*, int16_t) = {&RI_SetRegisterGlobal, &RI_SetRegisterMotor1};
 8002310:	9008      	str	r0, [sp, #32]
 8002312:	4829      	ldr	r0, [pc, #164]	; (80023b8 <RI_SetRegCommandParser+0xc8>)
    uint8_t number_of_item =0;
 8002314:	9302      	str	r3, [sp, #8]
    uint8_t (*SetRegFcts[NBR_OF_MOTORS+1])(uint16_t, uint8_t, uint8_t*, uint16_t*, int16_t) = {&RI_SetRegisterGlobal, &RI_SetRegisterMotor1};
 8002316:	9009      	str	r0, [sp, #36]	; 0x24

    while (rxLength > 0)
 8002318:	001d      	movs	r5, r3
 800231a:	2a00      	cmp	r2, #0
 800231c:	dc05      	bgt.n	800232a <RI_SetRegCommandParser+0x3a>
          }
        }
      }
    }
    /* If all accesses are fine, just one global MCP_CMD_OK is required*/
    if (MCP_CMD_OK == retVal)
 800231e:	2b00      	cmp	r3, #0
 8002320:	d100      	bne.n	8002324 <RI_SetRegCommandParser+0x34>
    {
      pHandle->txLength = 0;
 8002322:	81e3      	strh	r3, [r4, #14]
    }
  #ifdef NULL_PTR_CHECK_REG_INT
  }
#endif
  return (retVal);
}
 8002324:	0028      	movs	r0, r5
 8002326:	b00b      	add	sp, #44	; 0x2c
 8002328:	bdf0      	pop	{r4, r5, r6, r7, pc}
      regID = *dataElementID & REG_MASK;
 800232a:	8808      	ldrh	r0, [r1, #0]
      rxData = rxData+MCP_ID_SIZE; // Shift buffer to the next data
 800232c:	1c8e      	adds	r6, r1, #2
      if (motorID > NBR_OF_MOTORS)
 800232e:	2106      	movs	r1, #6
      number_of_item ++;
 8002330:	9b02      	ldr	r3, [sp, #8]
 8002332:	3301      	adds	r3, #1
 8002334:	b2db      	uxtb	r3, r3
 8002336:	9302      	str	r3, [sp, #8]
      typeID = (uint8_t)*dataElementID & TYPE_MASK;
 8002338:	b2c3      	uxtb	r3, r0
      if (motorID > NBR_OF_MOTORS)
 800233a:	4208      	tst	r0, r1
 800233c:	d138      	bne.n	80023b0 <RI_SetRegCommandParser+0xc0>
      rxLength = rxLength-MCP_ID_SIZE; // We consume 2 byte in the DataID
 800233e:	3a02      	subs	r2, #2
 8002340:	b291      	uxth	r1, r2
      regID = *dataElementID & REG_MASK;
 8002342:	2707      	movs	r7, #7
      rxLength = rxLength-MCP_ID_SIZE; // We consume 2 byte in the DataID
 8002344:	9105      	str	r1, [sp, #20]
        accessResult = SetRegFcts[motorID](regID, typeID, rxData, &size, rxLength);
 8002346:	2138      	movs	r1, #56	; 0x38
 8002348:	b212      	sxth	r2, r2
 800234a:	4019      	ands	r1, r3
 800234c:	403b      	ands	r3, r7
 800234e:	9200      	str	r2, [sp, #0]
 8002350:	009b      	lsls	r3, r3, #2
 8002352:	aa08      	add	r2, sp, #32
 8002354:	43b8      	bics	r0, r7
 8002356:	589f      	ldr	r7, [r3, r2]
 8002358:	230e      	movs	r3, #14
 800235a:	aa04      	add	r2, sp, #16
 800235c:	189b      	adds	r3, r3, r2
 800235e:	0032      	movs	r2, r6
 8002360:	47b8      	blx	r7
        rxLength = (int16_t) (rxLength - size);
 8002362:	aa04      	add	r2, sp, #16
 8002364:	89d1      	ldrh	r1, [r2, #14]
 8002366:	9a05      	ldr	r2, [sp, #20]
        rxData = rxData+size;
 8002368:	1876      	adds	r6, r6, r1
        rxLength = (int16_t) (rxLength - size);
 800236a:	1a52      	subs	r2, r2, r1
        if ((1U == number_of_item) && (0 == rxLength))
 800236c:	9902      	ldr	r1, [sp, #8]
        accessResult = SetRegFcts[motorID](regID, typeID, rxData, &size, rxLength);
 800236e:	0003      	movs	r3, r0
        rxLength = (int16_t) (rxLength - size);
 8002370:	b212      	sxth	r2, r2
        if ((1U == number_of_item) && (0 == rxLength))
 8002372:	2901      	cmp	r1, #1
 8002374:	d101      	bne.n	800237a <RI_SetRegCommandParser+0x8a>
 8002376:	2a00      	cmp	r2, #0
 8002378:	d018      	beq.n	80023ac <RI_SetRegCommandParser+0xbc>
          if (txSyncFreeSpace !=0 )
 800237a:	9b03      	ldr	r3, [sp, #12]
 800237c:	2b00      	cmp	r3, #0
 800237e:	d013      	beq.n	80023a8 <RI_SetRegCommandParser+0xb8>
            *txData = accessResult;
 8002380:	9b04      	ldr	r3, [sp, #16]
 8002382:	7018      	strb	r0, [r3, #0]
            txData = txData+1;
 8002384:	3301      	adds	r3, #1
 8002386:	9304      	str	r3, [sp, #16]
            pHandle->txLength++;
 8002388:	89e3      	ldrh	r3, [r4, #14]
 800238a:	3301      	adds	r3, #1
 800238c:	81e3      	strh	r3, [r4, #14]
            txSyncFreeSpace--; /* decrement one by one no wraparound possible */
 800238e:	9b03      	ldr	r3, [sp, #12]
 8002390:	3b01      	subs	r3, #1
 8002392:	b29b      	uxth	r3, r3
 8002394:	9303      	str	r3, [sp, #12]
            retVal = (accessResult != MCP_CMD_OK) ? MCP_CMD_NOK : retVal;
 8002396:	002b      	movs	r3, r5
 8002398:	2800      	cmp	r0, #0
 800239a:	d007      	beq.n	80023ac <RI_SetRegCommandParser+0xbc>
            if ((accessResult == MCP_ERROR_BAD_DATA_TYPE) || (accessResult == MCP_ERROR_BAD_RAW_FORMAT))
 800239c:	2807      	cmp	r0, #7
 800239e:	d007      	beq.n	80023b0 <RI_SetRegCommandParser+0xc0>
 80023a0:	280a      	cmp	r0, #10
 80023a2:	d005      	beq.n	80023b0 <RI_SetRegCommandParser+0xc0>
            retVal = (accessResult != MCP_CMD_OK) ? MCP_CMD_NOK : retVal;
 80023a4:	2301      	movs	r3, #1
 80023a6:	e001      	b.n	80023ac <RI_SetRegCommandParser+0xbc>
            retVal = MCP_ERROR_NO_TXSYNC_SPACE;
 80023a8:	2308      	movs	r3, #8
            rxLength = 0;
 80023aa:	9a03      	ldr	r2, [sp, #12]
 80023ac:	0031      	movs	r1, r6
 80023ae:	e7b3      	b.n	8002318 <RI_SetRegCommandParser+0x28>
              rxLength = 0;
 80023b0:	2200      	movs	r2, #0
 80023b2:	e7f7      	b.n	80023a4 <RI_SetRegCommandParser+0xb4>
 80023b4:	080037c5 	.word	0x080037c5
 80023b8:	08003869 	.word	0x08003869

080023bc <RI_GetRegCommandParser>:
  {
#endif
    uint16_t * dataElementID;
    uint8_t * rxData = pHandle->rxBuffer;
    uint8_t * txData = pHandle->txBuffer;
    uint16_t size = 0U;
 80023bc:	220e      	movs	r2, #14
{
 80023be:	b5f0      	push	{r4, r5, r6, r7, lr}
    uint8_t * txData = pHandle->txBuffer;
 80023c0:	6883      	ldr	r3, [r0, #8]
{
 80023c2:	b08b      	sub	sp, #44	; 0x2c
    uint8_t * txData = pHandle->txBuffer;
 80023c4:	9303      	str	r3, [sp, #12]
    uint16_t size = 0U;
 80023c6:	2300      	movs	r3, #0
{
 80023c8:	0004      	movs	r4, r0
    uint16_t size = 0U;
 80023ca:	a804      	add	r0, sp, #16
 80023cc:	1812      	adds	r2, r2, r0
  uint8_t retVal = MCP_CMD_NOK;
 80023ce:	2001      	movs	r0, #1
    uint16_t size = 0U;
 80023d0:	8013      	strh	r3, [r2, #0]
    int16_t freeSpaceS16 = (int16_t) txSyncFreeSpace;

    uint16_t regID;
    uint8_t typeID;
    uint8_t motorID;
    uint8_t (*GetRegFcts[NBR_OF_MOTORS+1])(uint16_t, uint8_t, uint8_t*, uint16_t*, int16_t) = {&RI_GetRegisterGlobal, &RI_GetRegisterMotor1};
 80023d2:	4a1e      	ldr	r2, [pc, #120]	; (800244c <RI_GetRegCommandParser+0x90>)
    pHandle->txLength = 0;
 80023d4:	81e3      	strh	r3, [r4, #14]
    uint8_t (*GetRegFcts[NBR_OF_MOTORS+1])(uint16_t, uint8_t, uint8_t*, uint16_t*, int16_t) = {&RI_GetRegisterGlobal, &RI_GetRegisterMotor1};
 80023d6:	9208      	str	r2, [sp, #32]
 80023d8:	6863      	ldr	r3, [r4, #4]
 80023da:	4a1d      	ldr	r2, [pc, #116]	; (8002450 <RI_GetRegCommandParser+0x94>)
    uint16_t rxLength = pHandle->rxLength;
 80023dc:	89a5      	ldrh	r5, [r4, #12]
    int16_t freeSpaceS16 = (int16_t) txSyncFreeSpace;
 80023de:	b20f      	sxth	r7, r1
    uint8_t (*GetRegFcts[NBR_OF_MOTORS+1])(uint16_t, uint8_t, uint8_t*, uint16_t*, int16_t) = {&RI_GetRegisterGlobal, &RI_GetRegisterMotor1};
 80023e0:	9209      	str	r2, [sp, #36]	; 0x24
    while (rxLength > 0U)
 80023e2:	9304      	str	r3, [sp, #16]
 80023e4:	2d00      	cmp	r5, #0
 80023e6:	d101      	bne.n	80023ec <RI_GetRegCommandParser+0x30>
    }
#ifdef NULL_PTR_CHECK_REG_INT
  }
#endif
  return (retVal);
}
 80023e8:	b00b      	add	sp, #44	; 0x2c
 80023ea:	bdf0      	pop	{r4, r5, r6, r7, pc}
      if (motorID > NBR_OF_MOTORS)
 80023ec:	2206      	movs	r2, #6
      regID = *dataElementID & REG_MASK;
 80023ee:	9b04      	ldr	r3, [sp, #16]
 80023f0:	8818      	ldrh	r0, [r3, #0]
      if (motorID > NBR_OF_MOTORS)
 80023f2:	4002      	ands	r2, r0
 80023f4:	9205      	str	r2, [sp, #20]
 80023f6:	2206      	movs	r2, #6
      typeID = (uint8_t)*dataElementID & TYPE_MASK;
 80023f8:	b2c3      	uxtb	r3, r0
      if (motorID > NBR_OF_MOTORS)
 80023fa:	4210      	tst	r0, r2
 80023fc:	d120      	bne.n	8002440 <RI_GetRegCommandParser+0x84>
        retVal = GetRegFcts[motorID](regID, typeID, txData, &size, freeSpaceS16);
 80023fe:	2138      	movs	r1, #56	; 0x38
      regID = *dataElementID & REG_MASK;
 8002400:	3201      	adds	r2, #1
        retVal = GetRegFcts[motorID](regID, typeID, txData, &size, freeSpaceS16);
 8002402:	4019      	ands	r1, r3
 8002404:	4013      	ands	r3, r2
 8002406:	4390      	bics	r0, r2
 8002408:	009b      	lsls	r3, r3, #2
 800240a:	aa08      	add	r2, sp, #32
 800240c:	9700      	str	r7, [sp, #0]
 800240e:	589b      	ldr	r3, [r3, r2]
 8002410:	aa04      	add	r2, sp, #16
 8002412:	001e      	movs	r6, r3
 8002414:	230e      	movs	r3, #14
 8002416:	189b      	adds	r3, r3, r2
 8002418:	9a03      	ldr	r2, [sp, #12]
 800241a:	47b0      	blx	r6
        if (retVal == MCP_CMD_OK )
 800241c:	2800      	cmp	r0, #0
 800241e:	d112      	bne.n	8002446 <RI_GetRegCommandParser+0x8a>
          txData = txData+size;
 8002420:	ab04      	add	r3, sp, #16
 8002422:	89db      	ldrh	r3, [r3, #14]
 8002424:	9a03      	ldr	r2, [sp, #12]
      rxLength = rxLength - MCP_ID_SIZE;
 8002426:	3d02      	subs	r5, #2
          txData = txData+size;
 8002428:	18d2      	adds	r2, r2, r3
 800242a:	9203      	str	r2, [sp, #12]
          pHandle->txLength += size;
 800242c:	89e2      	ldrh	r2, [r4, #14]
          freeSpaceS16 = freeSpaceS16-size;
 800242e:	1aff      	subs	r7, r7, r3
          pHandle->txLength += size;
 8002430:	189a      	adds	r2, r3, r2
      rxLength = rxLength - MCP_ID_SIZE;
 8002432:	b2ad      	uxth	r5, r5
          pHandle->txLength += size;
 8002434:	81e2      	strh	r2, [r4, #14]
          freeSpaceS16 = freeSpaceS16-size;
 8002436:	b23f      	sxth	r7, r7
 8002438:	9b04      	ldr	r3, [sp, #16]
 800243a:	3302      	adds	r3, #2
 800243c:	9304      	str	r3, [sp, #16]
 800243e:	e7d1      	b.n	80023e4 <RI_GetRegCommandParser+0x28>
        rxLength = 0;
 8002440:	2500      	movs	r5, #0
        retVal = MCP_CMD_NOK;
 8002442:	2001      	movs	r0, #1
 8002444:	e7f8      	b.n	8002438 <RI_GetRegCommandParser+0x7c>
          rxLength = 0;
 8002446:	9d05      	ldr	r5, [sp, #20]
 8002448:	e7f6      	b.n	8002438 <RI_GetRegCommandParser+0x7c>
 800244a:	46c0      	nop			; (mov r8, r8)
 800244c:	08003a45 	.word	0x08003a45
 8002450:	08003ad9 	.word	0x08003ad9

08002454 <MCP_ReceivedPacket>:
  * @brief  Parses the header from the received packet and call the required function depending on the command sent by the controller device.
  *
  * @param  pHandle Handler of the current instance of the MCP component
  */
void MCP_ReceivedPacket(MCP_Handle_t *pHandle)
{
 8002454:	b5f7      	push	{r0, r1, r2, r4, r5, r6, r7, lr}
    /* Nothing to do, txBuffer and txLength have not been modified */
  }
  else /* Length is 0, this is a request to send back the last packet */
  {
#endif
    packetHeader = (uint16_t *)pHandle->rxBuffer; //cstat !MISRAC2012-Rule-11.3
 8002456:	6841      	ldr	r1, [r0, #4]
    command = (uint16_t)(*packetHeader & CMD_MASK);
 8002458:	2307      	movs	r3, #7
 800245a:	880e      	ldrh	r6, [r1, #0]
{
 800245c:	0005      	movs	r5, r0
    command = (uint16_t)(*packetHeader & CMD_MASK);
 800245e:	0034      	movs	r4, r6
 8002460:	0032      	movs	r2, r6

    if ((command & MCP_USER_CMD_MASK) == MCP_USER_CMD)
 8002462:	2080      	movs	r0, #128	; 0x80
    command = (uint16_t)(*packetHeader & CMD_MASK);
 8002464:	439c      	bics	r4, r3
    if ((command & MCP_USER_CMD_MASK) == MCP_USER_CMD)
 8002466:	33f8      	adds	r3, #248	; 0xf8
 8002468:	439a      	bics	r2, r3
 800246a:	0040      	lsls	r0, r0, #1
  uint8_t userCommand=0;
 800246c:	2300      	movs	r3, #0
    if ((command & MCP_USER_CMD_MASK) == MCP_USER_CMD)
 800246e:	4282      	cmp	r2, r0
 8002470:	d102      	bne.n	8002478 <MCP_ReceivedPacket+0x24>
    {
      userCommand = ((uint8_t)(command & 0xF8U) >> 3U);
 8002472:	b2e4      	uxtb	r4, r4
 8002474:	08e3      	lsrs	r3, r4, #3
      command = MCP_USER_CMD;
 8002476:	0014      	movs	r4, r2
    {
      /* Nothing to do */
    }

    motorID = (uint8_t)((*packetHeader - 1U) & MOTOR_MASK);
    MCI_Handle_t *pMCI = &Mci[motorID];
 8002478:	2207      	movs	r2, #7
    motorID = (uint8_t)((*packetHeader - 1U) & MOTOR_MASK);
 800247a:	3e01      	subs	r6, #1
    MCI_Handle_t *pMCI = &Mci[motorID];
 800247c:	4016      	ands	r6, r2
 800247e:	3221      	adds	r2, #33	; 0x21
 8002480:	4356      	muls	r6, r2

    /* Removing MCP Header from RxBuffer */
    pHandle->rxLength = pHandle->rxLength - MCP_HEADER_SIZE;
 8002482:	89a8      	ldrh	r0, [r5, #12]
    MCI_Handle_t *pMCI = &Mci[motorID];
 8002484:	4a3e      	ldr	r2, [pc, #248]	; (8002580 <MCP_ReceivedPacket+0x12c>)
    pHandle->rxLength = pHandle->rxLength - MCP_HEADER_SIZE;
 8002486:	3802      	subs	r0, #2
    MCI_Handle_t *pMCI = &Mci[motorID];
 8002488:	18b6      	adds	r6, r6, r2
    pHandle->rxLength = pHandle->rxLength - MCP_HEADER_SIZE;
 800248a:	b280      	uxth	r0, r0
    pHandle->rxBuffer = pHandle->rxBuffer + MCP_HEADER_SIZE;

    /* Commands requiering payload response must be aware of space available for the payload */
    /* Last byte is reserved for MCP response*/
    txSyncFreeSpace = (int16_t)pHandle->pTransportLayer->txSyncMaxPayload - 1;
 800248c:	682a      	ldr	r2, [r5, #0]
    pHandle->rxBuffer = pHandle->rxBuffer + MCP_HEADER_SIZE;
 800248e:	3102      	adds	r1, #2
    pHandle->rxLength = pHandle->rxLength - MCP_HEADER_SIZE;
 8002490:	81a8      	strh	r0, [r5, #12]
    pHandle->rxBuffer = pHandle->rxBuffer + MCP_HEADER_SIZE;
 8002492:	6069      	str	r1, [r5, #4]
    txSyncFreeSpace = (int16_t)pHandle->pTransportLayer->txSyncMaxPayload - 1;
 8002494:	8992      	ldrh	r2, [r2, #12]
 8002496:	3a01      	subs	r2, #1
 8002498:	b297      	uxth	r7, r2
 800249a:	46bc      	mov	ip, r7

    /* Initialization of the tx length, command which send back data has to increment the txLength
     * (case of Read register) */
    pHandle->txLength = 0U;
 800249c:	2700      	movs	r7, #0
    txSyncFreeSpace = (int16_t)pHandle->pTransportLayer->txSyncMaxPayload - 1;
 800249e:	b212      	sxth	r2, r2
    pHandle->txLength = 0U;
 80024a0:	81ef      	strh	r7, [r5, #14]

    switch (command)
 80024a2:	2c28      	cmp	r4, #40	; 0x28
 80024a4:	d04c      	beq.n	8002540 <MCP_ReceivedPacket+0xec>
 80024a6:	d817      	bhi.n	80024d8 <MCP_ReceivedPacket+0x84>
 80024a8:	2c10      	cmp	r4, #16
 80024aa:	d040      	beq.n	800252e <MCP_ReceivedPacket+0xda>
 80024ac:	d80b      	bhi.n	80024c6 <MCP_ReceivedPacket+0x72>
 80024ae:	42bc      	cmp	r4, r7
 80024b0:	d031      	beq.n	8002516 <MCP_ReceivedPacket+0xc2>
 80024b2:	2c08      	cmp	r4, #8
 80024b4:	d035      	beq.n	8002522 <MCP_ReceivedPacket+0xce>
 80024b6:	2402      	movs	r4, #2
      {
        MCPResponse = MCP_CMD_UNKNOWN;
        break;
      }
    }
    pHandle->txBuffer[pHandle->txLength] = MCPResponse;
 80024b8:	89eb      	ldrh	r3, [r5, #14]
 80024ba:	68aa      	ldr	r2, [r5, #8]
 80024bc:	54d4      	strb	r4, [r2, r3]
    pHandle->txLength++;
 80024be:	89eb      	ldrh	r3, [r5, #14]
 80024c0:	3301      	adds	r3, #1
 80024c2:	81eb      	strh	r3, [r5, #14]
#ifdef NULL_PTR_CHECK_MCP
  }
#endif
}
 80024c4:	bdf7      	pop	{r0, r1, r2, r4, r5, r6, r7, pc}
    switch (command)
 80024c6:	2c18      	cmp	r4, #24
 80024c8:	d036      	beq.n	8002538 <MCP_ReceivedPacket+0xe4>
 80024ca:	2c20      	cmp	r4, #32
 80024cc:	d1f3      	bne.n	80024b6 <MCP_ReceivedPacket+0x62>
          (void)MCI_StopMotor(pMCI);
 80024ce:	0030      	movs	r0, r6
 80024d0:	f7ff fa65 	bl	800199e <MCI_StopMotor>
        MCPResponse = MCP_CMD_OK;
 80024d4:	003c      	movs	r4, r7
        break;
 80024d6:	e7ef      	b.n	80024b8 <MCP_ReceivedPacket+0x64>
    switch (command)
 80024d8:	2c48      	cmp	r4, #72	; 0x48
 80024da:	d047      	beq.n	800256c <MCP_ReceivedPacket+0x118>
 80024dc:	d807      	bhi.n	80024ee <MCP_ReceivedPacket+0x9a>
 80024de:	2c30      	cmp	r4, #48	; 0x30
 80024e0:	d038      	beq.n	8002554 <MCP_ReceivedPacket+0x100>
 80024e2:	2c38      	cmp	r4, #56	; 0x38
 80024e4:	d1e7      	bne.n	80024b6 <MCP_ReceivedPacket+0x62>
        (void)MCI_FaultAcknowledged(pMCI);
 80024e6:	0030      	movs	r0, r6
 80024e8:	f7ff fa76 	bl	80019d8 <MCI_FaultAcknowledged>
 80024ec:	e7f2      	b.n	80024d4 <MCP_ReceivedPacket+0x80>
 80024ee:	68af      	ldr	r7, [r5, #8]
    switch (command)
 80024f0:	2c68      	cmp	r4, #104	; 0x68
 80024f2:	d03f      	beq.n	8002574 <MCP_ReceivedPacket+0x120>
 80024f4:	2680      	movs	r6, #128	; 0x80
 80024f6:	0076      	lsls	r6, r6, #1
 80024f8:	42b4      	cmp	r4, r6
 80024fa:	d1dc      	bne.n	80024b6 <MCP_ReceivedPacket+0x62>
          MCPResponse = MCP_ERROR_CALLBACK_NOT_REGISTRED;
 80024fc:	240d      	movs	r4, #13
        if ((userCommand < MCP_USER_CALLBACK_MAX) && (MCP_UserCallBack[userCommand] != NULL))
 80024fe:	2b01      	cmp	r3, #1
 8002500:	d8da      	bhi.n	80024b8 <MCP_ReceivedPacket+0x64>
 8002502:	4e20      	ldr	r6, [pc, #128]	; (8002584 <MCP_ReceivedPacket+0x130>)
 8002504:	009b      	lsls	r3, r3, #2
 8002506:	599e      	ldr	r6, [r3, r6]
 8002508:	2e00      	cmp	r6, #0
 800250a:	d0d5      	beq.n	80024b8 <MCP_ReceivedPacket+0x64>
          MCPResponse = MCP_UserCallBack[userCommand](pHandle->rxLength, pHandle->rxBuffer, txSyncFreeSpace,
 800250c:	002b      	movs	r3, r5
 800250e:	9700      	str	r7, [sp, #0]
 8002510:	330e      	adds	r3, #14
 8002512:	47b0      	blx	r6
 8002514:	e009      	b.n	800252a <MCP_ReceivedPacket+0xd6>
        pHandle->txLength = 4U;
 8002516:	2304      	movs	r3, #4
        *pHandle->txBuffer = MCP_VERSION;
 8002518:	2201      	movs	r2, #1
        pHandle->txLength = 4U;
 800251a:	81eb      	strh	r3, [r5, #14]
        *pHandle->txBuffer = MCP_VERSION;
 800251c:	68ab      	ldr	r3, [r5, #8]
 800251e:	701a      	strb	r2, [r3, #0]
        break;
 8002520:	e7ca      	b.n	80024b8 <MCP_ReceivedPacket+0x64>
        MCPResponse = RI_SetRegCommandParser(pHandle, (uint16_t)txSyncFreeSpace);
 8002522:	4661      	mov	r1, ip
 8002524:	0028      	movs	r0, r5
 8002526:	f7ff fee3 	bl	80022f0 <RI_SetRegCommandParser>
          MCPResponse = MCP_UserCallBack[userCommand](pHandle->rxLength, pHandle->rxBuffer, txSyncFreeSpace,
 800252a:	0004      	movs	r4, r0
 800252c:	e7c4      	b.n	80024b8 <MCP_ReceivedPacket+0x64>
        MCPResponse = RI_GetRegCommandParser(pHandle, (uint16_t)txSyncFreeSpace);
 800252e:	4661      	mov	r1, ip
 8002530:	0028      	movs	r0, r5
 8002532:	f7ff ff43 	bl	80023bc <RI_GetRegCommandParser>
 8002536:	e7f8      	b.n	800252a <MCP_ReceivedPacket+0xd6>
        MCPResponse = (MCI_StartWithPolarizationMotor(pMCI) == false) ? MCP_CMD_OK : MCP_CMD_NOK;
 8002538:	0030      	movs	r0, r6
 800253a:	f7ff fa16 	bl	800196a <MCI_StartWithPolarizationMotor>
 800253e:	e7f4      	b.n	800252a <MCP_ReceivedPacket+0xd6>
        if (RUN == MCI_GetSTMState(pMCI))
 8002540:	0030      	movs	r0, r6
 8002542:	f7ff f9f5 	bl	8001930 <MCI_GetSTMState>
        MCPResponse = MCP_CMD_OK;
 8002546:	003c      	movs	r4, r7
        if (RUN == MCI_GetSTMState(pMCI))
 8002548:	2806      	cmp	r0, #6
 800254a:	d1b5      	bne.n	80024b8 <MCP_ReceivedPacket+0x64>
          MCI_StopRamp(pMCI);
 800254c:	0030      	movs	r0, r6
 800254e:	f7ff fa62 	bl	8001a16 <MCI_StopRamp>
 8002552:	e7b1      	b.n	80024b8 <MCP_ReceivedPacket+0x64>
        if (IDLE == MCI_GetSTMState(pMCI))
 8002554:	0030      	movs	r0, r6
 8002556:	f7ff f9eb 	bl	8001930 <MCI_GetSTMState>
 800255a:	2800      	cmp	r0, #0
 800255c:	d1b7      	bne.n	80024ce <MCP_ReceivedPacket+0x7a>
          MCPResponse = (MCI_StartWithPolarizationMotor(pMCI) == true) ? MCP_CMD_OK : MCP_CMD_NOK;
 800255e:	0030      	movs	r0, r6
 8002560:	f7ff fa03 	bl	800196a <MCI_StartWithPolarizationMotor>
 8002564:	2401      	movs	r4, #1
 8002566:	4044      	eors	r4, r0
 8002568:	b2e4      	uxtb	r4, r4
 800256a:	e7a5      	b.n	80024b8 <MCP_ReceivedPacket+0x64>
        MCI_Clear_Iqdref(pMCI);
 800256c:	0030      	movs	r0, r6
 800256e:	f7ff fa83 	bl	8001a78 <MCI_Clear_Iqdref>
        break;
 8002572:	e7af      	b.n	80024d4 <MCP_ReceivedPacket+0x80>
        MCPResponse = MC_ProfilerCommand(pHandle->rxLength, pHandle->rxBuffer, txSyncFreeSpace, &pHandle->txLength,
 8002574:	002b      	movs	r3, r5
 8002576:	9700      	str	r7, [sp, #0]
 8002578:	330e      	adds	r3, #14
 800257a:	f7ff f975 	bl	8001868 <MC_ProfilerCommand>
 800257e:	e7d4      	b.n	800252a <MCP_ReceivedPacket+0xd6>
 8002580:	2000068c 	.word	0x2000068c
 8002584:	20000918 	.word	0x20000918

08002588 <MX_MotorControl_Init>:
 *
 * CubeMX calls this function after all peripherals initializations and
 * before the NVIC is configured
 */
__weak void MX_MotorControl_Init(void)
{
 8002588:	b510      	push	{r4, lr}
  /* Reconfigure the SysTick interrupt to fire every 500 us. */
  (void)HAL_SYSTICK_Config(HAL_RCC_GetHCLKFreq() / SYS_TICK_FREQUENCY);
 800258a:	f002 fe13 	bl	80051b4 <HAL_RCC_GetHCLKFreq>
 800258e:	21fa      	movs	r1, #250	; 0xfa
 8002590:	00c9      	lsls	r1, r1, #3
 8002592:	f7fd fdcd 	bl	8000130 <__udivsi3>
 8002596:	f002 fa51 	bl	8004a3c <HAL_SYSTICK_Config>
  HAL_NVIC_SetPriority(SysTick_IRQn, uwTickPrio, 0U);
 800259a:	2001      	movs	r0, #1
 800259c:	4b05      	ldr	r3, [pc, #20]	; (80025b4 <MX_MotorControl_Init+0x2c>)
 800259e:	2200      	movs	r2, #0
 80025a0:	6819      	ldr	r1, [r3, #0]
 80025a2:	4240      	negs	r0, r0
 80025a4:	f002 fa14 	bl	80049d0 <HAL_NVIC_SetPriority>

  /* Initialize the Motor Control Subsystem */
  MCboot(pMCI);
 80025a8:	4803      	ldr	r0, [pc, #12]	; (80025b8 <MX_MotorControl_Init+0x30>)
 80025aa:	f7ff fb79 	bl	8001ca0 <MCboot>
  mc_lock_pins();
 80025ae:	f7ff fe5b 	bl	8002268 <mc_lock_pins>
}
 80025b2:	bd10      	pop	{r4, pc}
 80025b4:	200003c0 	.word	0x200003c0
 80025b8:	20000984 	.word	0x20000984

080025bc <PWMC_GetPhaseCurrents>:
  * @param  Iab: Pointer to the structure that will receive motor current
  *         of phases A & B in ElectricalValue format.
  */
//cstat !MISRAC2012-Rule-8.13 !RED-func-no-effect
__weak void PWMC_GetPhaseCurrents(PWMC_Handle_t *pHandle, ab_t *Iab)
{
 80025bc:	b510      	push	{r4, lr}
    /* Nothing to do */
  }
  else
  {
#endif
    pHandle->pFctGetPhaseCurrents(pHandle, Iab);
 80025be:	6803      	ldr	r3, [r0, #0]
 80025c0:	4798      	blx	r3
#ifdef NULL_PTR_CHECK_PWR_CUR_FDB
  }
#endif
}
 80025c2:	bd10      	pop	{r4, pc}

080025c4 <PWMC_SetPhaseVoltage>:
  * @param  Valfa_beta: Voltage Components expressed in the @f$(\alpha, \beta)@f$ reference frame.
  * @retval #MC_NO_ERROR if no error occurred or #MC_DURATION if the duty cycles were
  *         set too late for being taken into account in the next PWM cycle.
  */
__weak uint16_t PWMC_SetPhaseVoltage(PWMC_Handle_t *pHandle, alphabeta_t Valfa_beta)
{
 80025c4:	b5f0      	push	{r4, r5, r6, r7, lr}
 80025c6:	b085      	sub	sp, #20
 80025c8:	9103      	str	r1, [sp, #12]
    int32_t wUBeta;
    int32_t wTimePhA;
    int32_t wTimePhB;
    int32_t wTimePhC;

    wUAlpha = Valfa_beta.alpha * (int32_t)pHandle->hT_Sqrt3;
 80025ca:	b20b      	sxth	r3, r1
{
 80025cc:	000a      	movs	r2, r1
    wUAlpha = Valfa_beta.alpha * (int32_t)pHandle->hT_Sqrt3;
 80025ce:	0001      	movs	r1, r0
 80025d0:	267c      	movs	r6, #124	; 0x7c
 80025d2:	314e      	adds	r1, #78	; 0x4e
 80025d4:	8809      	ldrh	r1, [r1, #0]
 80025d6:	46b4      	mov	ip, r6
 80025d8:	4359      	muls	r1, r3
    wUBeta = -(Valfa_beta.beta * ((int32_t)pHandle->PWMperiod)) * 2;
 80025da:	0003      	movs	r3, r0
 80025dc:	3372      	adds	r3, #114	; 0x72
 80025de:	881f      	ldrh	r7, [r3, #0]
 80025e0:	1412      	asrs	r2, r2, #16
 80025e2:	437a      	muls	r2, r7
 80025e4:	0052      	lsls	r2, r2, #1
 80025e6:	4255      	negs	r5, r2

    wX = wUBeta;
    wY = (wUBeta + wUAlpha) / 2;
 80025e8:	1a8a      	subs	r2, r1, r2
    wZ = (wUBeta - wUAlpha) / 2;
 80025ea:	1a69      	subs	r1, r5, r1
    wY = (wUBeta + wUAlpha) / 2;
 80025ec:	0fd4      	lsrs	r4, r2, #31
    wZ = (wUBeta - wUAlpha) / 2;
 80025ee:	0fcb      	lsrs	r3, r1, #31
    wY = (wUBeta + wUAlpha) / 2;
 80025f0:	18a4      	adds	r4, r4, r2
    wZ = (wUBeta - wUAlpha) / 2;
 80025f2:	185b      	adds	r3, r3, r1
    wY = (wUBeta + wUAlpha) / 2;
 80025f4:	1064      	asrs	r4, r4, #1
    wZ = (wUBeta - wUAlpha) / 2;
 80025f6:	105b      	asrs	r3, r3, #1
    if (wY < 0)
    {
      if (wZ < 0)
      {
        pHandle->Sector = SECTOR_5;
        wTimePhA = (((int32_t)pHandle->PWMperiod) / 4) + ((wY - wZ) / (int32_t)262144);
 80025f8:	08bf      	lsrs	r7, r7, #2
 80025fa:	4484      	add	ip, r0
    if (wY < 0)
 80025fc:	1c56      	adds	r6, r2, #1
 80025fe:	db00      	blt.n	8002602 <PWMC_SetPhaseVoltage+0x3e>
 8002600:	e0a3      	b.n	800274a <PWMC_SetPhaseVoltage+0x186>
        wTimePhB = wTimePhA + (wZ / 131072);
        wTimePhC = wTimePhA - (wY / 131072) ;

        if(true == pHandle->SingleShuntTopology)
 8002602:	0006      	movs	r6, r0
 8002604:	3687      	adds	r6, #135	; 0x87
 8002606:	7836      	ldrb	r6, [r6, #0]
 8002608:	9601      	str	r6, [sp, #4]
      if (wZ < 0)
 800260a:	1c4e      	adds	r6, r1, #1
 800260c:	da1d      	bge.n	800264a <PWMC_SetPhaseVoltage+0x86>
        pHandle->Sector = SECTOR_5;
 800260e:	2504      	movs	r5, #4
 8002610:	4666      	mov	r6, ip
        wTimePhA = (((int32_t)pHandle->PWMperiod) / 4) + ((wY - wZ) / (int32_t)262144);
 8002612:	1ae4      	subs	r4, r4, r3
 8002614:	17e3      	asrs	r3, r4, #31
 8002616:	039b      	lsls	r3, r3, #14
 8002618:	0b9b      	lsrs	r3, r3, #14
 800261a:	191b      	adds	r3, r3, r4
        wTimePhB = wTimePhA + (wZ / 131072);
 800261c:	17cc      	asrs	r4, r1, #31
 800261e:	03a4      	lsls	r4, r4, #14
 8002620:	0ba4      	lsrs	r4, r4, #14
 8002622:	1861      	adds	r1, r4, r1
        wTimePhC = wTimePhA - (wY / 131072) ;
 8002624:	17d4      	asrs	r4, r2, #31
 8002626:	03a4      	lsls	r4, r4, #14
 8002628:	0ba4      	lsrs	r4, r4, #14
 800262a:	18a4      	adds	r4, r4, r2
        wTimePhA = (((int32_t)pHandle->PWMperiod) / 4) + ((wY - wZ) / (int32_t)262144);
 800262c:	149b      	asrs	r3, r3, #18
        if(true == pHandle->SingleShuntTopology)
 800262e:	9a01      	ldr	r2, [sp, #4]
        wTimePhA = (((int32_t)pHandle->PWMperiod) / 4) + ((wY - wZ) / (int32_t)262144);
 8002630:	19db      	adds	r3, r3, r7
        wTimePhB = wTimePhA + (wZ / 131072);
 8002632:	1489      	asrs	r1, r1, #18
        wTimePhC = wTimePhA - (wY / 131072) ;
 8002634:	14a4      	asrs	r4, r4, #18
        pHandle->Sector = SECTOR_5;
 8002636:	7035      	strb	r5, [r6, #0]
        wTimePhB = wTimePhA + (wZ / 131072);
 8002638:	18c9      	adds	r1, r1, r3
        wTimePhC = wTimePhA - (wY / 131072) ;
 800263a:	1b1c      	subs	r4, r3, r4
        if(true == pHandle->SingleShuntTopology)
 800263c:	2a00      	cmp	r2, #0
 800263e:	d000      	beq.n	8002642 <PWMC_SetPhaseVoltage+0x7e>
 8002640:	e0e6      	b.n	8002810 <PWMC_SetPhaseVoltage+0x24c>
          pHandle->midDuty = 0U;
          pHandle->highDuty = 2U;
        }
        else
        {
          pHandle->lowDuty = (uint16_t)wTimePhC;
 8002642:	b2a7      	uxth	r7, r4
          pHandle->midDuty = (uint16_t)wTimePhA;
 8002644:	b29e      	uxth	r6, r3
          }
          else
          {
            pHandle->lowDuty = (uint16_t)wTimePhA;
            pHandle->midDuty = (uint16_t)wTimePhC;
            pHandle->highDuty = (uint16_t)wTimePhB;
 8002646:	b28d      	uxth	r5, r1
 8002648:	e01e      	b.n	8002688 <PWMC_SetPhaseVoltage+0xc4>
        if (wX <= 0)
 800264a:	2d00      	cmp	r5, #0
 800264c:	dc65      	bgt.n	800271a <PWMC_SetPhaseVoltage+0x156>
          pHandle->Sector = SECTOR_4;
 800264e:	2203      	movs	r2, #3
 8002650:	4664      	mov	r4, ip
 8002652:	7022      	strb	r2, [r4, #0]
          wTimePhA = (((int32_t)pHandle->PWMperiod) / 4) + ((wX - wZ) / (int32_t)262144);
 8002654:	1aea      	subs	r2, r5, r3
 8002656:	17d3      	asrs	r3, r2, #31
 8002658:	039b      	lsls	r3, r3, #14
 800265a:	0b9b      	lsrs	r3, r3, #14
 800265c:	189b      	adds	r3, r3, r2
          wTimePhB = wTimePhA + (wZ / 131072);
 800265e:	17ca      	asrs	r2, r1, #31
 8002660:	0392      	lsls	r2, r2, #14
          wTimePhC = wTimePhB - (wX / 131072);
 8002662:	17ec      	asrs	r4, r5, #31
          wTimePhB = wTimePhA + (wZ / 131072);
 8002664:	0b92      	lsrs	r2, r2, #14
          wTimePhC = wTimePhB - (wX / 131072);
 8002666:	03e4      	lsls	r4, r4, #15
          wTimePhB = wTimePhA + (wZ / 131072);
 8002668:	1851      	adds	r1, r2, r1
          wTimePhA = (((int32_t)pHandle->PWMperiod) / 4) + ((wX - wZ) / (int32_t)262144);
 800266a:	149b      	asrs	r3, r3, #18
          wTimePhC = wTimePhB - (wX / 131072);
 800266c:	0be4      	lsrs	r4, r4, #15
          wTimePhA = (((int32_t)pHandle->PWMperiod) / 4) + ((wX - wZ) / (int32_t)262144);
 800266e:	19db      	adds	r3, r3, r7
          wTimePhB = wTimePhA + (wZ / 131072);
 8002670:	1489      	asrs	r1, r1, #18
          wTimePhC = wTimePhB - (wX / 131072);
 8002672:	1964      	adds	r4, r4, r5
          if(true == pHandle->SingleShuntTopology)
 8002674:	9a01      	ldr	r2, [sp, #4]
          wTimePhB = wTimePhA + (wZ / 131072);
 8002676:	18c9      	adds	r1, r1, r3
          wTimePhC = wTimePhB - (wX / 131072);
 8002678:	1464      	asrs	r4, r4, #17
 800267a:	1b0c      	subs	r4, r1, r4
          if(true == pHandle->SingleShuntTopology)
 800267c:	2a00      	cmp	r2, #0
 800267e:	d000      	beq.n	8002682 <PWMC_SetPhaseVoltage+0xbe>
 8002680:	e0ca      	b.n	8002818 <PWMC_SetPhaseVoltage+0x254>
          pHandle->lowDuty = (uint16_t)wTimePhC;
 8002682:	b2a7      	uxth	r7, r4
          pHandle->midDuty = (uint16_t)wTimePhB;
 8002684:	b28e      	uxth	r6, r1
          pHandle->highDuty = (uint16_t)wTimePhA;
 8002686:	b29d      	uxth	r5, r3
          pHandle->lowDuty = (uint16_t)wTimePhC;
 8002688:	0002      	movs	r2, r0
 800268a:	3258      	adds	r2, #88	; 0x58
 800268c:	8017      	strh	r7, [r2, #0]
          pHandle->midDuty = (uint16_t)wTimePhB;
 800268e:	8056      	strh	r6, [r2, #2]
          pHandle->highDuty = (uint16_t)wTimePhA;
 8002690:	8095      	strh	r5, [r2, #4]
            pHandle->highDuty = (uint16_t)wTimePhC;
        }
        }
    }

    pHandle->CntPhA = (uint16_t)(MAX(wTimePhA, 0));
 8002692:	43da      	mvns	r2, r3
 8002694:	43cd      	mvns	r5, r1
 8002696:	43e6      	mvns	r6, r4
 8002698:	17d2      	asrs	r2, r2, #31
 800269a:	17ed      	asrs	r5, r5, #31
 800269c:	4013      	ands	r3, r2
 800269e:	4029      	ands	r1, r5
 80026a0:	17f6      	asrs	r6, r6, #31
 80026a2:	0002      	movs	r2, r0
    pHandle->CntPhB = (uint16_t)(MAX(wTimePhB, 0));
 80026a4:	0005      	movs	r5, r0
    pHandle->CntPhC = (uint16_t)(MAX(wTimePhC, 0));
 80026a6:	0007      	movs	r7, r0
 80026a8:	4034      	ands	r4, r6

    if (1U == pHandle->DTTest)
 80026aa:	0006      	movs	r6, r0
    pHandle->CntPhA = (uint16_t)(MAX(wTimePhA, 0));
 80026ac:	3250      	adds	r2, #80	; 0x50
    pHandle->CntPhB = (uint16_t)(MAX(wTimePhB, 0));
 80026ae:	3552      	adds	r5, #82	; 0x52
 80026b0:	b29b      	uxth	r3, r3
 80026b2:	b289      	uxth	r1, r1
 80026b4:	b2a4      	uxth	r4, r4
    pHandle->CntPhC = (uint16_t)(MAX(wTimePhC, 0));
 80026b6:	3754      	adds	r7, #84	; 0x54
    pHandle->CntPhA = (uint16_t)(MAX(wTimePhA, 0));
 80026b8:	8013      	strh	r3, [r2, #0]
 80026ba:	9201      	str	r2, [sp, #4]
    pHandle->CntPhB = (uint16_t)(MAX(wTimePhB, 0));
 80026bc:	8029      	strh	r1, [r5, #0]
 80026be:	9502      	str	r5, [sp, #8]
    pHandle->CntPhC = (uint16_t)(MAX(wTimePhC, 0));
 80026c0:	803c      	strh	r4, [r7, #0]
    if (1U == pHandle->DTTest)
 80026c2:	3670      	adds	r6, #112	; 0x70
 80026c4:	8836      	ldrh	r6, [r6, #0]
 80026c6:	2e01      	cmp	r6, #1
 80026c8:	d123      	bne.n	8002712 <PWMC_SetPhaseVoltage+0x14e>
    {
      /* Dead time compensation */
      if (pHandle->Ia > 0)
 80026ca:	2262      	movs	r2, #98	; 0x62
 80026cc:	4694      	mov	ip, r2
 80026ce:	4484      	add	ip, r0
 80026d0:	4662      	mov	r2, ip
      {
        pHandle->CntPhA += pHandle->DTCompCnt;
 80026d2:	0006      	movs	r6, r0
      if (pHandle->Ia > 0)
 80026d4:	2500      	movs	r5, #0
 80026d6:	5f52      	ldrsh	r2, [r2, r5]
        pHandle->CntPhA += pHandle->DTCompCnt;
 80026d8:	3674      	adds	r6, #116	; 0x74
 80026da:	8836      	ldrh	r6, [r6, #0]
      if (pHandle->Ia > 0)
 80026dc:	2a00      	cmp	r2, #0
 80026de:	dc00      	bgt.n	80026e2 <PWMC_SetPhaseVoltage+0x11e>
 80026e0:	e0ad      	b.n	800283e <PWMC_SetPhaseVoltage+0x27a>
        pHandle->CntPhA += pHandle->DTCompCnt;
 80026e2:	199b      	adds	r3, r3, r6
 80026e4:	9a01      	ldr	r2, [sp, #4]
      }
      else
      {
        pHandle->CntPhA -= pHandle->DTCompCnt;
 80026e6:	b29b      	uxth	r3, r3
 80026e8:	8013      	strh	r3, [r2, #0]
      }

      if (pHandle->Ib > 0)
 80026ea:	0003      	movs	r3, r0
 80026ec:	3364      	adds	r3, #100	; 0x64
 80026ee:	2200      	movs	r2, #0
 80026f0:	5e9b      	ldrsh	r3, [r3, r2]
 80026f2:	2b00      	cmp	r3, #0
 80026f4:	dc00      	bgt.n	80026f8 <PWMC_SetPhaseVoltage+0x134>
 80026f6:	e0a4      	b.n	8002842 <PWMC_SetPhaseVoltage+0x27e>
      {
        pHandle->CntPhB += pHandle->DTCompCnt;
 80026f8:	1989      	adds	r1, r1, r6
 80026fa:	9b02      	ldr	r3, [sp, #8]
      }
      else
      {
        pHandle->CntPhB -= pHandle->DTCompCnt;
 80026fc:	b289      	uxth	r1, r1
 80026fe:	8019      	strh	r1, [r3, #0]
      }

      if (pHandle->Ic > 0)
 8002700:	0003      	movs	r3, r0
 8002702:	3366      	adds	r3, #102	; 0x66
 8002704:	2200      	movs	r2, #0
 8002706:	5e9b      	ldrsh	r3, [r3, r2]
 8002708:	2b00      	cmp	r3, #0
 800270a:	dc00      	bgt.n	800270e <PWMC_SetPhaseVoltage+0x14a>
 800270c:	e09b      	b.n	8002846 <PWMC_SetPhaseVoltage+0x282>
      {
        pHandle->CntPhC += pHandle->DTCompCnt;
 800270e:	19a6      	adds	r6, r4, r6
 8002710:	803e      	strh	r6, [r7, #0]
      else
      {
        pHandle->CntPhC -= pHandle->DTCompCnt;
      }
    }
    returnValue = pHandle->pFctSetADCSampPointSectX(pHandle);
 8002712:	6943      	ldr	r3, [r0, #20]
 8002714:	4798      	blx	r3
#ifdef NULL_PTR_CHECK_PWR_CUR_FDB
  }
#endif
  return (returnValue);
}
 8002716:	b005      	add	sp, #20
 8002718:	bdf0      	pop	{r4, r5, r6, r7, pc}
          pHandle->Sector = SECTOR_3;
 800271a:	4663      	mov	r3, ip
 800271c:	2602      	movs	r6, #2
          wTimePhA = (((int32_t )pHandle->PWMperiod) / 4)+ ((wY - wX) / (int32_t)262144);
 800271e:	1b64      	subs	r4, r4, r5
          pHandle->Sector = SECTOR_3;
 8002720:	701e      	strb	r6, [r3, #0]
          wTimePhA = (((int32_t )pHandle->PWMperiod) / 4)+ ((wY - wX) / (int32_t)262144);
 8002722:	17e3      	asrs	r3, r4, #31
 8002724:	039b      	lsls	r3, r3, #14
 8002726:	0b9b      	lsrs	r3, r3, #14
 8002728:	191b      	adds	r3, r3, r4
          wTimePhC = wTimePhA - (wY / 131072);
 800272a:	17d4      	asrs	r4, r2, #31
 800272c:	03a4      	lsls	r4, r4, #14
 800272e:	0ba4      	lsrs	r4, r4, #14
 8002730:	18a4      	adds	r4, r4, r2
          wTimePhA = (((int32_t )pHandle->PWMperiod) / 4)+ ((wY - wX) / (int32_t)262144);
 8002732:	149b      	asrs	r3, r3, #18
 8002734:	19db      	adds	r3, r3, r7
          wTimePhC = wTimePhA - (wY / 131072);
 8002736:	14a4      	asrs	r4, r4, #18
          if(true == pHandle->SingleShuntTopology)
 8002738:	9a01      	ldr	r2, [sp, #4]
          wTimePhC = wTimePhA - (wY / 131072);
 800273a:	1b1c      	subs	r4, r3, r4
          wTimePhB = wTimePhC + (wX / 131072);
 800273c:	1469      	asrs	r1, r5, #17
 800273e:	1909      	adds	r1, r1, r4
          if(true == pHandle->SingleShuntTopology)
 8002740:	2a00      	cmp	r2, #0
 8002742:	d16c      	bne.n	800281e <PWMC_SetPhaseVoltage+0x25a>
          pHandle->lowDuty = (uint16_t)wTimePhB;
 8002744:	b28f      	uxth	r7, r1
          pHandle->midDuty = (uint16_t)wTimePhC;
 8002746:	b2a6      	uxth	r6, r4
 8002748:	e79d      	b.n	8002686 <PWMC_SetPhaseVoltage+0xc2>
      if (wZ >= 0)
 800274a:	1c4e      	adds	r6, r1, #1
 800274c:	db1e      	blt.n	800278c <PWMC_SetPhaseVoltage+0x1c8>
        wTimePhA = (((int32_t)pHandle->PWMperiod) / 4) + ((wY - wZ) / (int32_t)262144);
 800274e:	1ae4      	subs	r4, r4, r3
 8002750:	17e3      	asrs	r3, r4, #31
 8002752:	039b      	lsls	r3, r3, #14
 8002754:	0b9b      	lsrs	r3, r3, #14
 8002756:	191b      	adds	r3, r3, r4
        wTimePhB = wTimePhA + (wZ / 131072);
 8002758:	17cc      	asrs	r4, r1, #31
 800275a:	03a4      	lsls	r4, r4, #14
 800275c:	0ba4      	lsrs	r4, r4, #14
 800275e:	1861      	adds	r1, r4, r1
        wTimePhC = wTimePhA - (wY / 131072);
 8002760:	17d4      	asrs	r4, r2, #31
 8002762:	03a4      	lsls	r4, r4, #14
 8002764:	0ba4      	lsrs	r4, r4, #14
 8002766:	18a4      	adds	r4, r4, r2
        pHandle->Sector = SECTOR_2;
 8002768:	2501      	movs	r5, #1
 800276a:	4666      	mov	r6, ip
        if(true == pHandle->SingleShuntTopology)
 800276c:	0002      	movs	r2, r0
        pHandle->Sector = SECTOR_2;
 800276e:	7035      	strb	r5, [r6, #0]
        if(true == pHandle->SingleShuntTopology)
 8002770:	3287      	adds	r2, #135	; 0x87
        wTimePhA = (((int32_t)pHandle->PWMperiod) / 4) + ((wY - wZ) / (int32_t)262144);
 8002772:	149b      	asrs	r3, r3, #18
        if(true == pHandle->SingleShuntTopology)
 8002774:	7812      	ldrb	r2, [r2, #0]
        wTimePhA = (((int32_t)pHandle->PWMperiod) / 4) + ((wY - wZ) / (int32_t)262144);
 8002776:	19db      	adds	r3, r3, r7
        wTimePhB = wTimePhA + (wZ / 131072);
 8002778:	1489      	asrs	r1, r1, #18
        wTimePhC = wTimePhA - (wY / 131072);
 800277a:	14a4      	asrs	r4, r4, #18
        wTimePhB = wTimePhA + (wZ / 131072);
 800277c:	18c9      	adds	r1, r1, r3
        wTimePhC = wTimePhA - (wY / 131072);
 800277e:	1b1c      	subs	r4, r3, r4
        if(true == pHandle->SingleShuntTopology)
 8002780:	2a00      	cmp	r2, #0
 8002782:	d14f      	bne.n	8002824 <PWMC_SetPhaseVoltage+0x260>
        pHandle->lowDuty = (uint16_t)wTimePhB;
 8002784:	b28f      	uxth	r7, r1
        pHandle->midDuty = (uint16_t)wTimePhA;
 8002786:	b29e      	uxth	r6, r3
            pHandle->highDuty = (uint16_t)wTimePhC;
 8002788:	b2a5      	uxth	r5, r4
 800278a:	e77d      	b.n	8002688 <PWMC_SetPhaseVoltage+0xc4>
        if ( wX <= 0 )
 800278c:	17ee      	asrs	r6, r5, #31
 800278e:	2d00      	cmp	r5, #0
 8002790:	dc1c      	bgt.n	80027cc <PWMC_SetPhaseVoltage+0x208>
          pHandle->Sector = SECTOR_6;
 8002792:	2305      	movs	r3, #5
 8002794:	4661      	mov	r1, ip
          wTimePhA = (((int32_t )pHandle->PWMperiod) / 4) + ((wY - wX) / (int32_t)262144);
 8002796:	1b64      	subs	r4, r4, r5
          pHandle->Sector = SECTOR_6;
 8002798:	700b      	strb	r3, [r1, #0]
          wTimePhA = (((int32_t )pHandle->PWMperiod) / 4) + ((wY - wX) / (int32_t)262144);
 800279a:	17e3      	asrs	r3, r4, #31
 800279c:	039b      	lsls	r3, r3, #14
 800279e:	0b9b      	lsrs	r3, r3, #14
 80027a0:	191b      	adds	r3, r3, r4
          wTimePhC = wTimePhA - (wY / 131072);
 80027a2:	17d4      	asrs	r4, r2, #31
 80027a4:	03a4      	lsls	r4, r4, #14
 80027a6:	0ba4      	lsrs	r4, r4, #14
 80027a8:	18a4      	adds	r4, r4, r2
          if(true == pHandle->SingleShuntTopology)
 80027aa:	0002      	movs	r2, r0
          wTimePhB = wTimePhC + (wX / 131072);
 80027ac:	03f1      	lsls	r1, r6, #15
          wTimePhA = (((int32_t )pHandle->PWMperiod) / 4) + ((wY - wX) / (int32_t)262144);
 80027ae:	149b      	asrs	r3, r3, #18
          wTimePhB = wTimePhC + (wX / 131072);
 80027b0:	0bc9      	lsrs	r1, r1, #15
          if(true == pHandle->SingleShuntTopology)
 80027b2:	3287      	adds	r2, #135	; 0x87
          wTimePhA = (((int32_t )pHandle->PWMperiod) / 4) + ((wY - wX) / (int32_t)262144);
 80027b4:	19db      	adds	r3, r3, r7
          wTimePhC = wTimePhA - (wY / 131072);
 80027b6:	14a4      	asrs	r4, r4, #18
          wTimePhB = wTimePhC + (wX / 131072);
 80027b8:	1949      	adds	r1, r1, r5
          if(true == pHandle->SingleShuntTopology)
 80027ba:	7812      	ldrb	r2, [r2, #0]
          wTimePhC = wTimePhA - (wY / 131072);
 80027bc:	1b1c      	subs	r4, r3, r4
          wTimePhB = wTimePhC + (wX / 131072);
 80027be:	1449      	asrs	r1, r1, #17
 80027c0:	1909      	adds	r1, r1, r4
          if(true == pHandle->SingleShuntTopology)
 80027c2:	2a00      	cmp	r2, #0
 80027c4:	d131      	bne.n	800282a <PWMC_SetPhaseVoltage+0x266>
            pHandle->lowDuty = (uint16_t)wTimePhA;
 80027c6:	b29f      	uxth	r7, r3
            pHandle->midDuty = (uint16_t)wTimePhC;
 80027c8:	b2a6      	uxth	r6, r4
 80027ca:	e73c      	b.n	8002646 <PWMC_SetPhaseVoltage+0x82>
          pHandle->Sector = SECTOR_1;
 80027cc:	4664      	mov	r4, ip
 80027ce:	2200      	movs	r2, #0
          wTimePhC = wTimePhB - (wX / 131072);
 80027d0:	03f6      	lsls	r6, r6, #15
 80027d2:	0bf6      	lsrs	r6, r6, #15
          pHandle->Sector = SECTOR_1;
 80027d4:	7022      	strb	r2, [r4, #0]
          wTimePhC = wTimePhB - (wX / 131072);
 80027d6:	1976      	adds	r6, r6, r5
          wTimePhA = (((int32_t)pHandle->PWMperiod) / 4)+ ((wX - wZ) / (int32_t)262144);
 80027d8:	1aec      	subs	r4, r5, r3
          if((pHandle->DPWM_Mode == true) || (pHandle->SingleShuntTopology == true))
 80027da:	0005      	movs	r5, r0
          wTimePhA = (((int32_t)pHandle->PWMperiod) / 4)+ ((wX - wZ) / (int32_t)262144);
 80027dc:	17e3      	asrs	r3, r4, #31
 80027de:	039b      	lsls	r3, r3, #14
 80027e0:	0b9b      	lsrs	r3, r3, #14
 80027e2:	191b      	adds	r3, r3, r4
          wTimePhB = wTimePhA + (wZ / 131072);
 80027e4:	17cc      	asrs	r4, r1, #31
 80027e6:	03a4      	lsls	r4, r4, #14
 80027e8:	0ba4      	lsrs	r4, r4, #14
 80027ea:	1861      	adds	r1, r4, r1
          wTimePhA = (((int32_t)pHandle->PWMperiod) / 4)+ ((wX - wZ) / (int32_t)262144);
 80027ec:	149b      	asrs	r3, r3, #18
          if((pHandle->DPWM_Mode == true) || (pHandle->SingleShuntTopology == true))
 80027ee:	357f      	adds	r5, #127	; 0x7f
          wTimePhA = (((int32_t)pHandle->PWMperiod) / 4)+ ((wX - wZ) / (int32_t)262144);
 80027f0:	19db      	adds	r3, r3, r7
          wTimePhB = wTimePhA + (wZ / 131072);
 80027f2:	1489      	asrs	r1, r1, #18
          if((pHandle->DPWM_Mode == true) || (pHandle->SingleShuntTopology == true))
 80027f4:	782d      	ldrb	r5, [r5, #0]
          wTimePhB = wTimePhA + (wZ / 131072);
 80027f6:	18c9      	adds	r1, r1, r3
          wTimePhC = wTimePhB - (wX / 131072);
 80027f8:	1476      	asrs	r6, r6, #17
 80027fa:	1b8c      	subs	r4, r1, r6
          if((pHandle->DPWM_Mode == true) || (pHandle->SingleShuntTopology == true))
 80027fc:	4295      	cmp	r5, r2
 80027fe:	d118      	bne.n	8002832 <PWMC_SetPhaseVoltage+0x26e>
 8002800:	0002      	movs	r2, r0
 8002802:	3287      	adds	r2, #135	; 0x87
 8002804:	7812      	ldrb	r2, [r2, #0]
 8002806:	2a00      	cmp	r2, #0
 8002808:	d116      	bne.n	8002838 <PWMC_SetPhaseVoltage+0x274>
            pHandle->lowDuty = (uint16_t)wTimePhA;
 800280a:	b29f      	uxth	r7, r3
            pHandle->midDuty = (uint16_t)wTimePhB;
 800280c:	b28e      	uxth	r6, r1
 800280e:	e7bb      	b.n	8002788 <PWMC_SetPhaseVoltage+0x1c4>
 8002810:	2701      	movs	r7, #1
 8002812:	2600      	movs	r6, #0
 8002814:	2502      	movs	r5, #2
 8002816:	e737      	b.n	8002688 <PWMC_SetPhaseVoltage+0xc4>
 8002818:	2700      	movs	r7, #0
 800281a:	2601      	movs	r6, #1
 800281c:	e7fa      	b.n	8002814 <PWMC_SetPhaseVoltage+0x250>
 800281e:	2700      	movs	r7, #0
 8002820:	2501      	movs	r5, #1
 8002822:	e731      	b.n	8002688 <PWMC_SetPhaseVoltage+0xc4>
 8002824:	2702      	movs	r7, #2
 8002826:	2600      	movs	r6, #0
 8002828:	e72e      	b.n	8002688 <PWMC_SetPhaseVoltage+0xc4>
 800282a:	2701      	movs	r7, #1
 800282c:	2602      	movs	r6, #2
 800282e:	2500      	movs	r5, #0
 8002830:	e72a      	b.n	8002688 <PWMC_SetPhaseVoltage+0xc4>
 8002832:	2702      	movs	r7, #2
 8002834:	2601      	movs	r6, #1
 8002836:	e7fa      	b.n	800282e <PWMC_SetPhaseVoltage+0x26a>
 8002838:	2702      	movs	r7, #2
 800283a:	2601      	movs	r6, #1
 800283c:	e724      	b.n	8002688 <PWMC_SetPhaseVoltage+0xc4>
        pHandle->CntPhA -= pHandle->DTCompCnt;
 800283e:	1b9b      	subs	r3, r3, r6
 8002840:	e750      	b.n	80026e4 <PWMC_SetPhaseVoltage+0x120>
        pHandle->CntPhB -= pHandle->DTCompCnt;
 8002842:	1b89      	subs	r1, r1, r6
 8002844:	e759      	b.n	80026fa <PWMC_SetPhaseVoltage+0x136>
        pHandle->CntPhC -= pHandle->DTCompCnt;
 8002846:	1ba4      	subs	r4, r4, r6
 8002848:	803c      	strh	r4, [r7, #0]
 800284a:	e762      	b.n	8002712 <PWMC_SetPhaseVoltage+0x14e>

0800284c <PWMC_SwitchOffPWM>:
  *
  * @param  pHandle: Handler of the current instance of the PWM component.
  */
//cstat !MISRAC2012-Rule-8.13 !RED-func-no-effect
__weak void PWMC_SwitchOffPWM(PWMC_Handle_t *pHandle)
{
 800284c:	b510      	push	{r4, lr}
    /* Nothing to do */
  }
  else
  {
#endif
    pHandle->pFctSwitchOffPwm(pHandle);
 800284e:	6843      	ldr	r3, [r0, #4]
 8002850:	4798      	blx	r3
#ifdef NULL_PTR_CHECK_PWR_CUR_FDB
  }
#endif
}
 8002852:	bd10      	pop	{r4, pc}

08002854 <PWMC_SwitchOnPWM>:
  *
  * @param  pHandle: Handler of the current instance of the PWM component.
  */
//cstat !MISRAC2012-Rule-8.13 !RED-func-no-effect
__weak void PWMC_SwitchOnPWM(PWMC_Handle_t *pHandle)
{
 8002854:	b510      	push	{r4, lr}
    /* Nothing to do */
  }
  else
  {
#endif
    pHandle->pFctSwitchOnPwm(pHandle);
 8002856:	6883      	ldr	r3, [r0, #8]
 8002858:	4798      	blx	r3
#ifdef NULL_PTR_CHECK_PWR_CUR_FDB
  }
#endif
}
 800285a:	bd10      	pop	{r4, pc}

0800285c <PWMC_CurrentReadingCalibr>:
  *         #CRC_EXEC to execute the offset calibration.
  * @retval true if the current calibration has been completed, **false** if it is
  *         still ongoing.
  */
__weak bool PWMC_CurrentReadingCalibr(PWMC_Handle_t *pHandle, CRCAction_t action)
{
 800285c:	b570      	push	{r4, r5, r6, lr}
 800285e:	0005      	movs	r5, r0
 8002860:	1e0c      	subs	r4, r1, #0
    /* Nothing to do */
  }
  else
  {
#endif
    if (CRC_START == action)
 8002862:	d107      	bne.n	8002874 <PWMC_CurrentReadingCalibr+0x18>
    {
      PWMC_SwitchOffPWM(pHandle);
 8002864:	f7ff fff2 	bl	800284c <PWMC_SwitchOffPWM>
      pHandle->pFctCurrReadingCalib(pHandle);
 8002868:	0028      	movs	r0, r5
 800286a:	68eb      	ldr	r3, [r5, #12]
 800286c:	4798      	blx	r3
      retVal = true;
 800286e:	3401      	adds	r4, #1
    }
#ifdef NULL_PTR_CHECK_PWR_CUR_FDB
  }
#endif
  return (retVal);
}
 8002870:	0020      	movs	r0, r4
 8002872:	bd70      	pop	{r4, r5, r6, pc}
    else if (CRC_EXEC == action)
 8002874:	2901      	cmp	r1, #1
 8002876:	d001      	beq.n	800287c <PWMC_CurrentReadingCalibr+0x20>
  bool retVal = false;
 8002878:	2400      	movs	r4, #0
 800287a:	e7f9      	b.n	8002870 <PWMC_CurrentReadingCalibr+0x14>
      if (pHandle->OffCalibrWaitTimeCounter > 0u)
 800287c:	0002      	movs	r2, r0
 800287e:	3260      	adds	r2, #96	; 0x60
 8002880:	8813      	ldrh	r3, [r2, #0]
 8002882:	2b00      	cmp	r3, #0
 8002884:	d0f4      	beq.n	8002870 <PWMC_CurrentReadingCalibr+0x14>
        pHandle->OffCalibrWaitTimeCounter--;
 8002886:	3b01      	subs	r3, #1
 8002888:	b29b      	uxth	r3, r3
 800288a:	8013      	strh	r3, [r2, #0]
        if (0U == pHandle->OffCalibrWaitTimeCounter)
 800288c:	2b00      	cmp	r3, #0
 800288e:	d1f3      	bne.n	8002878 <PWMC_CurrentReadingCalibr+0x1c>
          pHandle->pFctCurrReadingCalib(pHandle);
 8002890:	68c3      	ldr	r3, [r0, #12]
 8002892:	4798      	blx	r3
          retVal = true;
 8002894:	e7ec      	b.n	8002870 <PWMC_CurrentReadingCalibr+0x14>

08002896 <PWMC_CalcPhaseCurrentsEst>:
  * @param  pHandle: Handler of the current instance of the PWM component.
  * @param  Iqd: Structure that will receive Iq and Id currents.
  * @param  hElAngledpp: Electrical angle.
  */
void PWMC_CalcPhaseCurrentsEst(PWMC_Handle_t *pHandle, qd_t Iqd, int16_t hElAngledpp)
{
 8002896:	b57f      	push	{r0, r1, r2, r3, r4, r5, r6, lr}
 8002898:	000d      	movs	r5, r1
 800289a:	9101      	str	r1, [sp, #4]
 800289c:	1c0b      	adds	r3, r1, #0
 800289e:	0011      	movs	r1, r2
#endif
    qd_t idq_ave;
    alphabeta_t ialpha_beta;
    int32_t temp1, temp2;

    idq_ave.q = (int16_t)PWMC_LowPassFilter(Iqd.q, &(pHandle->LPFIqBuf), pHandle->LPFIqd_const);
 80028a0:	0002      	movs	r2, r0
{
 80028a2:	0004      	movs	r4, r0
    idq_ave.q = (int16_t)PWMC_LowPassFilter(Iqd.q, &(pHandle->LPFIqBuf), pHandle->LPFIqd_const);
 80028a4:	326e      	adds	r2, #110	; 0x6e
 80028a6:	2000      	movs	r0, #0
 80028a8:	5e10      	ldrsh	r0, [r2, r0]
    *out_buf = (*out_buf) + ((in - ((*out_buf) >> 15)) * t);
 80028aa:	6b62      	ldr	r2, [r4, #52]	; 0x34
    idq_ave.q = (int16_t)PWMC_LowPassFilter(Iqd.q, &(pHandle->LPFIqBuf), pHandle->LPFIqd_const);
 80028ac:	b21b      	sxth	r3, r3
    *out_buf = (*out_buf) + ((in - ((*out_buf) >> 15)) * t);
 80028ae:	13d6      	asrs	r6, r2, #15
 80028b0:	1b9b      	subs	r3, r3, r6
 80028b2:	4343      	muls	r3, r0
 80028b4:	189b      	adds	r3, r3, r2
 80028b6:	6363      	str	r3, [r4, #52]	; 0x34
    idq_ave.q = (int16_t)PWMC_LowPassFilter(Iqd.q, &(pHandle->LPFIqBuf), pHandle->LPFIqd_const);
 80028b8:	aa02      	add	r2, sp, #8
    x = (*out_buf) >> 15; //cstat !MISRAC2012-Rule-1.3_n !ATH-shift-neg !MISRAC2012-Rule-10.1_R6
 80028ba:	13db      	asrs	r3, r3, #15
    idq_ave.q = (int16_t)PWMC_LowPassFilter(Iqd.q, &(pHandle->LPFIqBuf), pHandle->LPFIqd_const);
 80028bc:	8013      	strh	r3, [r2, #0]
    *out_buf = (*out_buf) + ((in - ((*out_buf) >> 15)) * t);
 80028be:	6ba3      	ldr	r3, [r4, #56]	; 0x38
    idq_ave.d = (int16_t)PWMC_LowPassFilter(Iqd.d, &(pHandle->LPFIdBuf), pHandle->LPFIqd_const);
 80028c0:	142d      	asrs	r5, r5, #16
    *out_buf = (*out_buf) + ((in - ((*out_buf) >> 15)) * t);
 80028c2:	13de      	asrs	r6, r3, #15
 80028c4:	1bad      	subs	r5, r5, r6
 80028c6:	4368      	muls	r0, r5
 80028c8:	18c0      	adds	r0, r0, r3
 80028ca:	63a0      	str	r0, [r4, #56]	; 0x38
    x = (*out_buf) >> 15; //cstat !MISRAC2012-Rule-1.3_n !ATH-shift-neg !MISRAC2012-Rule-10.1_R6
 80028cc:	13c0      	asrs	r0, r0, #15
    idq_ave.d = (int16_t)PWMC_LowPassFilter(Iqd.d, &(pHandle->LPFIdBuf), pHandle->LPFIqd_const);
 80028ce:	8050      	strh	r0, [r2, #2]

    ialpha_beta = MCM_Rev_Park(idq_ave, hElAngledpp);
 80028d0:	9802      	ldr	r0, [sp, #8]
 80028d2:	f7ff f98d 	bl	8001bf0 <MCM_Rev_Park>

    /* Reverse Clarke */

    /*Ia*/
    pHandle->IaEst = ialpha_beta.alpha;
 80028d6:	0022      	movs	r2, r4
    ialpha_beta = MCM_Rev_Park(idq_ave, hElAngledpp);
 80028d8:	b203      	sxth	r3, r0
    pHandle->IaEst = ialpha_beta.alpha;
 80028da:	3268      	adds	r2, #104	; 0x68
 80028dc:	8013      	strh	r3, [r2, #0]

    temp1 = - ialpha_beta.alpha;
 80028de:	425b      	negs	r3, r3
#else
    temp2 = (int32_t)(ialpha_beta.beta) * (int32_t)SQRT3FACTOR / 32768;
#endif

    /* Ib */
    pHandle->IbEst = (int16_t)(temp1 - temp2)/2;
 80028e0:	0c00      	lsrs	r0, r0, #16
 80028e2:	b29b      	uxth	r3, r3
 80028e4:	1a19      	subs	r1, r3, r0
 80028e6:	b209      	sxth	r1, r1
 80028e8:	0fca      	lsrs	r2, r1, #31
 80028ea:	1852      	adds	r2, r2, r1
 80028ec:	0021      	movs	r1, r4

    /* Ic */
    pHandle->IcEst = (int16_t)(temp1 + temp2)/2;
 80028ee:	181b      	adds	r3, r3, r0
    pHandle->IbEst = (int16_t)(temp1 - temp2)/2;
 80028f0:	1052      	asrs	r2, r2, #1
 80028f2:	316a      	adds	r1, #106	; 0x6a
    pHandle->IcEst = (int16_t)(temp1 + temp2)/2;
 80028f4:	b21b      	sxth	r3, r3
    pHandle->IbEst = (int16_t)(temp1 - temp2)/2;
 80028f6:	800a      	strh	r2, [r1, #0]
    pHandle->IcEst = (int16_t)(temp1 + temp2)/2;
 80028f8:	0fda      	lsrs	r2, r3, #31
 80028fa:	18d3      	adds	r3, r2, r3
 80028fc:	105b      	asrs	r3, r3, #1
 80028fe:	346c      	adds	r4, #108	; 0x6c
 8002900:	8023      	strh	r3, [r4, #0]
#ifdef NULL_PTR_CHECK_PWR_CUR_FDB
  }
#endif
}
 8002902:	bd7f      	pop	{r0, r1, r2, r3, r4, r5, r6, pc}

08002904 <PWMC_OCP_Handler>:
    tempPointer = MC_NULL;
  }
  else
  {
#endif
    if (false == pHandle->BrakeActionLock)
 8002904:	0003      	movs	r3, r0
 8002906:	3385      	adds	r3, #133	; 0x85
 8002908:	781b      	ldrb	r3, [r3, #0]
 800290a:	2b00      	cmp	r3, #0
 800290c:	d113      	bne.n	8002936 <PWMC_OCP_Handler+0x32>
    {
      if (ES_GPIO == pHandle->LowSideOutputs)
 800290e:	0003      	movs	r3, r0
 8002910:	337d      	adds	r3, #125	; 0x7d
 8002912:	781b      	ldrb	r3, [r3, #0]
 8002914:	2b02      	cmp	r3, #2
 8002916:	d10e      	bne.n	8002936 <PWMC_OCP_Handler+0x32>
      {
        LL_GPIO_ResetOutputPin(pHandle->pwm_en_u_port, pHandle->pwm_en_u_pin);
 8002918:	0002      	movs	r2, r0
 800291a:	3248      	adds	r2, #72	; 0x48
 800291c:	6bc3      	ldr	r3, [r0, #60]	; 0x3c
 800291e:	8812      	ldrh	r2, [r2, #0]
  *         @arg @ref LL_GPIO_PIN_ALL
  * @retval None
  */
__STATIC_INLINE void LL_GPIO_ResetOutputPin(GPIO_TypeDef *GPIOx, uint32_t PinMask)
{
  WRITE_REG(GPIOx->BRR, PinMask);
 8002920:	629a      	str	r2, [r3, #40]	; 0x28
        LL_GPIO_ResetOutputPin(pHandle->pwm_en_v_port, pHandle->pwm_en_v_pin);
 8002922:	0002      	movs	r2, r0
 8002924:	324a      	adds	r2, #74	; 0x4a
 8002926:	6c03      	ldr	r3, [r0, #64]	; 0x40
 8002928:	8812      	ldrh	r2, [r2, #0]
 800292a:	629a      	str	r2, [r3, #40]	; 0x28
        LL_GPIO_ResetOutputPin(pHandle->pwm_en_w_port, pHandle->pwm_en_w_pin);
 800292c:	0002      	movs	r2, r0
 800292e:	324c      	adds	r2, #76	; 0x4c
 8002930:	6c43      	ldr	r3, [r0, #68]	; 0x44
 8002932:	8812      	ldrh	r2, [r2, #0]
 8002934:	629a      	str	r2, [r3, #40]	; 0x28
    }
    else
    {
      /* Nothing to do */
    }
    pHandle->OverCurrentFlag = true;
 8002936:	0003      	movs	r3, r0
 8002938:	2201      	movs	r2, #1
 800293a:	3382      	adds	r3, #130	; 0x82
    tempPointer = &(pHandle->Motor);
 800293c:	307a      	adds	r0, #122	; 0x7a
    pHandle->OverCurrentFlag = true;
 800293e:	701a      	strb	r2, [r3, #0]
#ifdef NULL_PTR_CHECK_PWR_CUR_FDB
  }
#endif
  return (tempPointer);
}
 8002940:	4770      	bx	lr

08002942 <PWMC_IsFaultOccurred>:
  */
__weak uint16_t PWMC_IsFaultOccurred(PWMC_Handle_t *pHandle)
{
  uint16_t retVal = MC_NO_FAULTS;

  if (true == pHandle->OverVoltageFlag)
 8002942:	0002      	movs	r2, r0
{
 8002944:	0003      	movs	r3, r0
 8002946:	2000      	movs	r0, #0
  if (true == pHandle->OverVoltageFlag)
 8002948:	3283      	adds	r2, #131	; 0x83
 800294a:	7811      	ldrb	r1, [r2, #0]
 800294c:	4281      	cmp	r1, r0
 800294e:	d001      	beq.n	8002954 <PWMC_IsFaultOccurred+0x12>
  {
    retVal = MC_OVER_VOLT;
    pHandle->OverVoltageFlag = false;
 8002950:	7010      	strb	r0, [r2, #0]
    retVal = MC_OVER_VOLT;
 8002952:	3002      	adds	r0, #2
  else
  {
    /* Nothing to do */
  }

  if (true == pHandle->OverCurrentFlag)
 8002954:	001a      	movs	r2, r3
 8002956:	3282      	adds	r2, #130	; 0x82
 8002958:	7811      	ldrb	r1, [r2, #0]
 800295a:	2900      	cmp	r1, #0
 800295c:	d003      	beq.n	8002966 <PWMC_IsFaultOccurred+0x24>
  {
    retVal |= MC_OVER_CURR;
 800295e:	2140      	movs	r1, #64	; 0x40
 8002960:	4308      	orrs	r0, r1
    pHandle->OverCurrentFlag = false;
 8002962:	2100      	movs	r1, #0
 8002964:	7011      	strb	r1, [r2, #0]
  else
  {
    /* Nothing to do */
  }

  if (true == pHandle->driverProtectionFlag)
 8002966:	3384      	adds	r3, #132	; 0x84
 8002968:	781a      	ldrb	r2, [r3, #0]
 800296a:	2a00      	cmp	r2, #0
 800296c:	d004      	beq.n	8002978 <PWMC_IsFaultOccurred+0x36>
  {
    retVal |= MC_DP_FAULT;
 800296e:	2280      	movs	r2, #128	; 0x80
 8002970:	00d2      	lsls	r2, r2, #3
 8002972:	4310      	orrs	r0, r2
    pHandle->driverProtectionFlag = false;
 8002974:	2200      	movs	r2, #0
 8002976:	701a      	strb	r2, [r3, #0]
  {
    /* Nothing to do */
  }

  return (retVal);
}
 8002978:	4770      	bx	lr
	...

0800297c <LL_TIM_OC_DisablePreload>:
  uint8_t iChannel = TIM_GET_CHANNEL_INDEX(Channel);
 800297c:	2940      	cmp	r1, #64	; 0x40
 800297e:	d812      	bhi.n	80029a6 <LL_TIM_OC_DisablePreload+0x2a>
{
 8002980:	2302      	movs	r3, #2
 8002982:	2910      	cmp	r1, #16
 8002984:	d003      	beq.n	800298e <LL_TIM_OC_DisablePreload+0x12>
  uint8_t iChannel = TIM_GET_CHANNEL_INDEX(Channel);
 8002986:	3304      	adds	r3, #4
 8002988:	2901      	cmp	r1, #1
 800298a:	d100      	bne.n	800298e <LL_TIM_OC_DisablePreload+0x12>
{
 800298c:	2300      	movs	r3, #0
  __IO uint32_t *pReg = (__IO uint32_t *)((uint32_t)((uint32_t)(&TIMx->CCMR1) + OFFSET_TAB_CCMRx[iChannel]));
 800298e:	4a09      	ldr	r2, [pc, #36]	; (80029b4 <LL_TIM_OC_DisablePreload+0x38>)
 8002990:	3018      	adds	r0, #24
 8002992:	5cd2      	ldrb	r2, [r2, r3]
 8002994:	1812      	adds	r2, r2, r0
  CLEAR_BIT(*pReg, (TIM_CCMR1_OC1PE << SHIFT_TAB_OCxx[iChannel]));
 8002996:	4808      	ldr	r0, [pc, #32]	; (80029b8 <LL_TIM_OC_DisablePreload+0x3c>)
 8002998:	6811      	ldr	r1, [r2, #0]
 800299a:	5cc0      	ldrb	r0, [r0, r3]
 800299c:	2308      	movs	r3, #8
 800299e:	4083      	lsls	r3, r0
 80029a0:	4399      	bics	r1, r3
 80029a2:	6011      	str	r1, [r2, #0]
}
 80029a4:	4770      	bx	lr
 80029a6:	2280      	movs	r2, #128	; 0x80
  uint8_t iChannel = TIM_GET_CHANNEL_INDEX(Channel);
 80029a8:	2306      	movs	r3, #6
 80029aa:	0052      	lsls	r2, r2, #1
 80029ac:	4291      	cmp	r1, r2
 80029ae:	d1ee      	bne.n	800298e <LL_TIM_OC_DisablePreload+0x12>
{
 80029b0:	3b02      	subs	r3, #2
 80029b2:	e7ec      	b.n	800298e <LL_TIM_OC_DisablePreload+0x12>
 80029b4:	080068f8 	.word	0x080068f8
 80029b8:	080068ff 	.word	0x080068ff

080029bc <LL_DMA_EnableChannel>:
  *         @arg @ref LL_DMA_CHANNEL_7
  * @retval None
  */
__STATIC_INLINE void LL_DMA_EnableChannel(DMA_TypeDef *DMAx, uint32_t Channel)
{
  SET_BIT(((DMA_Channel_TypeDef *)((uint32_t)((uint32_t)DMAx + CHANNEL_OFFSET_TAB[Channel - 1U])))->CCR, DMA_CCR_EN);
 80029bc:	4b04      	ldr	r3, [pc, #16]	; (80029d0 <LL_DMA_EnableChannel+0x14>)
 80029be:	185b      	adds	r3, r3, r1
 80029c0:	3b01      	subs	r3, #1
 80029c2:	781b      	ldrb	r3, [r3, #0]
 80029c4:	18c0      	adds	r0, r0, r3
 80029c6:	2301      	movs	r3, #1
 80029c8:	6802      	ldr	r2, [r0, #0]
 80029ca:	4313      	orrs	r3, r2
 80029cc:	6003      	str	r3, [r0, #0]
}
 80029ce:	4770      	bx	lr
 80029d0:	080068f3 	.word	0x080068f3

080029d4 <LL_DMA_DisableChannel>:
  *         @arg @ref LL_DMA_CHANNEL_7
  * @retval None
  */
__STATIC_INLINE void LL_DMA_DisableChannel(DMA_TypeDef *DMAx, uint32_t Channel)
{
  CLEAR_BIT(((DMA_Channel_TypeDef *)((uint32_t)((uint32_t)DMAx + CHANNEL_OFFSET_TAB[Channel - 1U])))->CCR, DMA_CCR_EN);
 80029d4:	2201      	movs	r2, #1
 80029d6:	4b04      	ldr	r3, [pc, #16]	; (80029e8 <LL_DMA_DisableChannel+0x14>)
 80029d8:	185b      	adds	r3, r3, r1
 80029da:	3b01      	subs	r3, #1
 80029dc:	781b      	ldrb	r3, [r3, #0]
 80029de:	18c0      	adds	r0, r0, r3
 80029e0:	6803      	ldr	r3, [r0, #0]
 80029e2:	4393      	bics	r3, r2
 80029e4:	6003      	str	r3, [r0, #0]
}
 80029e6:	4770      	bx	lr
 80029e8:	080068f3 	.word	0x080068f3

080029ec <LL_DMA_SetDataLength>:
  * @param  NbData Between Min_Data = 0 and Max_Data = 0x0000FFFF
  * @retval None
  */
__STATIC_INLINE void LL_DMA_SetDataLength(DMA_TypeDef *DMAx, uint32_t Channel, uint32_t NbData)
{
  MODIFY_REG(((DMA_Channel_TypeDef *)((uint32_t)((uint32_t)DMAx + CHANNEL_OFFSET_TAB[Channel - 1U])))->CNDTR,
 80029ec:	4b05      	ldr	r3, [pc, #20]	; (8002a04 <LL_DMA_SetDataLength+0x18>)
 80029ee:	185b      	adds	r3, r3, r1
 80029f0:	3b01      	subs	r3, #1
 80029f2:	781b      	ldrb	r3, [r3, #0]
 80029f4:	18c0      	adds	r0, r0, r3
 80029f6:	6843      	ldr	r3, [r0, #4]
 80029f8:	0c1b      	lsrs	r3, r3, #16
 80029fa:	041b      	lsls	r3, r3, #16
 80029fc:	4313      	orrs	r3, r2
 80029fe:	6043      	str	r3, [r0, #4]
             DMA_CNDTR_NDT, NbData);
}
 8002a00:	4770      	bx	lr
 8002a02:	46c0      	nop			; (mov r8, r8)
 8002a04:	080068f3 	.word	0x080068f3

08002a08 <LL_DMA_EnableIT_TC>:
  *         @arg @ref LL_DMA_CHANNEL_7
  * @retval None
  */
__STATIC_INLINE void LL_DMA_EnableIT_TC(DMA_TypeDef *DMAx, uint32_t Channel)
{
  SET_BIT(((DMA_Channel_TypeDef *)((uint32_t)((uint32_t)DMAx + CHANNEL_OFFSET_TAB[Channel - 1U])))->CCR, DMA_CCR_TCIE);
 8002a08:	4b04      	ldr	r3, [pc, #16]	; (8002a1c <LL_DMA_EnableIT_TC+0x14>)
 8002a0a:	185b      	adds	r3, r3, r1
 8002a0c:	3b01      	subs	r3, #1
 8002a0e:	781b      	ldrb	r3, [r3, #0]
 8002a10:	18c0      	adds	r0, r0, r3
 8002a12:	2302      	movs	r3, #2
 8002a14:	6802      	ldr	r2, [r0, #0]
 8002a16:	4313      	orrs	r3, r2
 8002a18:	6003      	str	r3, [r0, #0]
}
 8002a1a:	4770      	bx	lr
 8002a1c:	080068f3 	.word	0x080068f3

08002a20 <R1_1ShuntMotorVarsInit>:
void R1_1ShuntMotorVarsInit(PWMC_Handle_t * pHdl)
{
  PWMC_R1_Handle_t * pHandle = (PWMC_R1_Handle_t *)pHdl;

  /* Init motor vars */
  pHandle->iflag = 0;
 8002a20:	0003      	movs	r3, r0
 8002a22:	2100      	movs	r1, #0
  pHandle->FOCDurationFlag = false;
  pHandle->Half_PWMPeriod = (pHandle->_Super.PWMperiod/2u);
 8002a24:	0002      	movs	r2, r0
{
 8002a26:	b570      	push	{r4, r5, r6, lr}

  pHandle->CntSmp1 = ((uint32_t)(pHandle->Half_PWMPeriod) >> 1)
 8002a28:	0006      	movs	r6, r0
  pHandle->iflag = 0;
 8002a2a:	33c5      	adds	r3, #197	; 0xc5
 8002a2c:	7019      	strb	r1, [r3, #0]
  pHandle->FOCDurationFlag = false;
 8002a2e:	70d9      	strb	r1, [r3, #3]
  pHandle->Half_PWMPeriod = (pHandle->_Super.PWMperiod/2u);
 8002a30:	3b53      	subs	r3, #83	; 0x53
 8002a32:	881b      	ldrh	r3, [r3, #0]
 8002a34:	32b8      	adds	r2, #184	; 0xb8
                   - (uint32_t)(pHandle->pParams_str->hTADConv + pHandle->pParams_str->TSample);
 8002a36:	6955      	ldr	r5, [r2, #20]
  pHandle->Half_PWMPeriod = (pHandle->_Super.PWMperiod/2u);
 8002a38:	085c      	lsrs	r4, r3, #1
 8002a3a:	8014      	strh	r4, [r2, #0]
                   - (uint32_t)(pHandle->pParams_str->hTADConv + pHandle->pParams_str->TSample);
 8002a3c:	8c2a      	ldrh	r2, [r5, #32]
 8002a3e:	8bed      	ldrh	r5, [r5, #30]
 8002a40:	089b      	lsrs	r3, r3, #2
 8002a42:	1952      	adds	r2, r2, r5
 8002a44:	b292      	uxth	r2, r2
 8002a46:	1a9d      	subs	r5, r3, r2
  pHandle->CntSmp2 = ((uint32_t)(pHandle->Half_PWMPeriod) >> 1)
                   + (uint32_t)(pHandle->pParams_str->hTADConv + pHandle->pParams_str->TSample);
 8002a48:	189a      	adds	r2, r3, r2
                   - (uint32_t)(pHandle->pParams_str->hTADConv + pHandle->pParams_str->TSample);
 8002a4a:	b2ad      	uxth	r5, r5
  pHandle->CntSmp1 = ((uint32_t)(pHandle->Half_PWMPeriod) >> 1)
 8002a4c:	36ba      	adds	r6, #186	; 0xba
                   + (uint32_t)(pHandle->pParams_str->hTADConv + pHandle->pParams_str->TSample);
 8002a4e:	b292      	uxth	r2, r2
  pHandle->CntSmp1 = ((uint32_t)(pHandle->Half_PWMPeriod) >> 1)
 8002a50:	8035      	strh	r5, [r6, #0]
  pHandle->CntSmp2 = ((uint32_t)(pHandle->Half_PWMPeriod) >> 1)
 8002a52:	8072      	strh	r2, [r6, #2]

  pHandle->_Super.CntPhA = pHandle->Half_PWMPeriod >> 1;
 8002a54:	3e6a      	subs	r6, #106	; 0x6a
 8002a56:	8033      	strh	r3, [r6, #0]
  pHandle->_Super.CntPhB = pHandle->Half_PWMPeriod >> 1;
  pHandle->_Super.CntPhC = pHandle->Half_PWMPeriod >> 1;

  /* initialize buffer with the default duty cycle value */
  pHandle->DmaBuffCCR[0]       = pHandle->_Super.CntPhA;      /* CCR1 value overwritten during first half PWM period */
 8002a58:	8733      	strh	r3, [r6, #56]	; 0x38
  pHandle->_Super.CntPhB = pHandle->Half_PWMPeriod >> 1;
 8002a5a:	8073      	strh	r3, [r6, #2]
  pHandle->_Super.CntPhC = pHandle->Half_PWMPeriod >> 1;
 8002a5c:	80b3      	strh	r3, [r6, #4]
  pHandle->DmaBuffCCR[0]       = pHandle->_Super.CntPhA;      /* CCR1 value overwritten during first half PWM period */
 8002a5e:	3638      	adds	r6, #56	; 0x38
  pHandle->DmaBuffCCR_latch[0] = pHandle->_Super.CntPhA;      /* CCR1 value overwritten during first half PWM period */
 8002a60:	81b3      	strh	r3, [r6, #12]
  pHandle->DmaBuffCCR[1]       = pHandle->_Super.CntPhB;      /* CCR2 value overwritten during first half PWM period */
 8002a62:	3602      	adds	r6, #2
 8002a64:	8033      	strh	r3, [r6, #0]
  pHandle->DmaBuffCCR_latch[1] = pHandle->_Super.CntPhB;      /* CCR2 value overwritten during first half PWM period */
 8002a66:	81b3      	strh	r3, [r6, #12]
  pHandle->DmaBuffCCR[2]       = pHandle->_Super.CntPhC;      /* CCR3 value overwritten during first half PWM period */
 8002a68:	3602      	adds	r6, #2
 8002a6a:	8033      	strh	r3, [r6, #0]
  pHandle->DmaBuffCCR_latch[2] = pHandle->_Super.CntPhC;      /* CCR3 value overwritten during first half PWM period */
 8002a6c:	81b3      	strh	r3, [r6, #12]

  pHandle->DmaBuffCCR[3]       = pHandle->_Super.CntPhA;      /* CCR1 value overwritten during second half PWM period */
 8002a6e:	3602      	adds	r6, #2
 8002a70:	8033      	strh	r3, [r6, #0]
  pHandle->DmaBuffCCR_latch[3] = pHandle->_Super.CntPhA;      /* CCR1 value overwritten during second half PWM period */
 8002a72:	81b3      	strh	r3, [r6, #12]
  pHandle->DmaBuffCCR[4]       = pHandle->_Super.CntPhB;      /* CCR2 value overwritten during second half PWM period */
 8002a74:	3602      	adds	r6, #2
 8002a76:	8033      	strh	r3, [r6, #0]
  pHandle->DmaBuffCCR_latch[4] = pHandle->_Super.CntPhB;      /* CCR2 value overwritten during second half PWM period */
 8002a78:	81b3      	strh	r3, [r6, #12]
  pHandle->DmaBuffCCR[5]       = pHandle->_Super.CntPhC;      /* CCR3 value overwritten during second half PWM period */
 8002a7a:	8073      	strh	r3, [r6, #2]
  pHandle->DmaBuffCCR_latch[5] = pHandle->_Super.CntPhC;      /* CCR3 value overwritten during second half PWM period */
 8002a7c:	81f3      	strh	r3, [r6, #14]

  /* initialize buffer with default sampling value */
  pHandle->DmaBuffCCR_ADCTrig[0] = pHandle->CntSmp2;
 8002a7e:	0003      	movs	r3, r0
  pHandle->DmaBuffCCR_ADCTrig[1] = pHandle->Half_PWMPeriod-1u;
 8002a80:	3c01      	subs	r4, #1
  pHandle->DmaBuffCCR_ADCTrig[0] = pHandle->CntSmp2;
 8002a82:	33ae      	adds	r3, #174	; 0xae
  pHandle->DmaBuffCCR_ADCTrig[2] = pHandle->CntSmp1;

  pHandle->_Super.BrakeActionLock = false;
 8002a84:	3085      	adds	r0, #133	; 0x85
  pHandle->DmaBuffCCR[5]       = pHandle->_Super.CntPhC;      /* CCR3 value overwritten during second half PWM period */
 8002a86:	3602      	adds	r6, #2
  pHandle->DmaBuffCCR_ADCTrig[2] = pHandle->CntSmp1;
 8002a88:	809d      	strh	r5, [r3, #4]
  pHandle->DmaBuffCCR_ADCTrig[0] = pHandle->CntSmp2;
 8002a8a:	801a      	strh	r2, [r3, #0]
  pHandle->DmaBuffCCR_ADCTrig[1] = pHandle->Half_PWMPeriod-1u;
 8002a8c:	805c      	strh	r4, [r3, #2]
  pHandle->_Super.BrakeActionLock = false;
 8002a8e:	7001      	strb	r1, [r0, #0]
}
 8002a90:	bd70      	pop	{r4, r5, r6, pc}
	...

08002a94 <R1_GetPhaseCurrents>:
  * @retval Ia and Ib current in Curr_Components format
  */
__weak void R1_GetPhaseCurrents(PWMC_Handle_t * pHdl, ab_t * pStator_Currents)
{
  PWMC_R1_Handle_t * pHandle = (PWMC_R1_Handle_t *)pHdl;
  TIM_TypeDef * TIMx = pHandle->pParams_str->TIMx;
 8002a94:	0003      	movs	r3, r0
 8002a96:	33cc      	adds	r3, #204	; 0xcc
 8002a98:	681b      	ldr	r3, [r3, #0]
{
 8002a9a:	b570      	push	{r4, r5, r6, lr}
  TIM_TypeDef * TIMx = pHandle->pParams_str->TIMx;
 8002a9c:	685a      	ldr	r2, [r3, #4]
  int16_t hCurrA = 0;
  int16_t hCurrB = 0;
  int16_t hCurrC = 0;

  /* Clear flag used for FOC duration check */
  pHandle->FOCDurationFlag = false;
 8002a9e:	0003      	movs	r3, r0
{
 8002aa0:	0004      	movs	r4, r0
  pHandle->FOCDurationFlag = false;
 8002aa2:	2000      	movs	r0, #0
 8002aa4:	33c8      	adds	r3, #200	; 0xc8
 8002aa6:	7018      	strb	r0, [r3, #0]
  MODIFY_REG(TIMx->CR2, TIM_CR2_MMS, TimerSynchronization);
 8002aa8:	6853      	ldr	r3, [r2, #4]
 8002aaa:	3070      	adds	r0, #112	; 0x70
 8002aac:	4383      	bics	r3, r0
 8002aae:	6053      	str	r3, [r2, #4]

  /* Disabling the External triggering for ADCx */
  LL_TIM_SetTriggerOutput(TIMx, LL_TIM_TRGO_RESET);
  /* First sampling point */
  wAux1 = (int32_t) pHandle->CurConv[0] ;
 8002ab0:	0023      	movs	r3, r4
 8002ab2:	33b4      	adds	r3, #180	; 0xb4
 8002ab4:	881d      	ldrh	r5, [r3, #0]
  wAux1 -= (int32_t)(pHandle->PhaseOffset);
 8002ab6:	3b14      	subs	r3, #20
 8002ab8:	681a      	ldr	r2, [r3, #0]

  /* Check saturation */
  if (wAux1 > -INT16_MAX)
 8002aba:	4b87      	ldr	r3, [pc, #540]	; (8002cd8 <R1_GetPhaseCurrents+0x244>)
  wAux1 -= (int32_t)(pHandle->PhaseOffset);
 8002abc:	1aad      	subs	r5, r5, r2
  if (wAux1 > -INT16_MAX)
 8002abe:	429d      	cmp	r5, r3
 8002ac0:	db1b      	blt.n	8002afa <R1_GetPhaseCurrents+0x66>
  {
    if (wAux1 < INT16_MAX)
 8002ac2:	4886      	ldr	r0, [pc, #536]	; (8002cdc <R1_GetPhaseCurrents+0x248>)
 8002ac4:	4285      	cmp	r5, r0
 8002ac6:	dd00      	ble.n	8002aca <R1_GetPhaseCurrents+0x36>
    {
    }
    else
    {
      wAux1 = INT16_MAX;
 8002ac8:	4d85      	ldr	r5, [pc, #532]	; (8002ce0 <R1_GetPhaseCurrents+0x24c>)
  else
  {
    wAux1 = -INT16_MAX;
  }
   /* Second sampling point */
  wAux2 = (int32_t) pHandle->CurConv[1] ;
 8002aca:	0020      	movs	r0, r4
 8002acc:	30b6      	adds	r0, #182	; 0xb6
 8002ace:	8806      	ldrh	r6, [r0, #0]
  wAux2 -= (int32_t)(pHandle->PhaseOffset);
 8002ad0:	1ab6      	subs	r6, r6, r2

  /* Check saturation */
  if (wAux2 > -INT16_MAX)
 8002ad2:	429e      	cmp	r6, r3
 8002ad4:	db13      	blt.n	8002afe <R1_GetPhaseCurrents+0x6a>
  {
    if (wAux2 < INT16_MAX)
 8002ad6:	4b81      	ldr	r3, [pc, #516]	; (8002cdc <R1_GetPhaseCurrents+0x248>)
 8002ad8:	429e      	cmp	r6, r3
 8002ada:	dd00      	ble.n	8002ade <R1_GetPhaseCurrents+0x4a>
    {
    }
    else
    {
      wAux2 = INT16_MAX;
 8002adc:	4e80      	ldr	r6, [pc, #512]	; (8002ce0 <R1_GetPhaseCurrents+0x24c>)
  else
  {
    wAux2 = -INT16_MAX;
  }

  switch (pHandle->_Super.Sector)
 8002ade:	0023      	movs	r3, r4
 8002ae0:	2200      	movs	r2, #0
 8002ae2:	337c      	adds	r3, #124	; 0x7c
 8002ae4:	7818      	ldrb	r0, [r3, #0]
 8002ae6:	0013      	movs	r3, r2
 8002ae8:	2805      	cmp	r0, #5
 8002aea:	d828      	bhi.n	8002b3e <R1_GetPhaseCurrents+0xaa>
 8002aec:	0023      	movs	r3, r4
 8002aee:	33c5      	adds	r3, #197	; 0xc5
 8002af0:	f7fd fb14 	bl	800011c <__gnu_thumb1_case_uqi>
 8002af4:	7e523007 	.word	0x7e523007
 8002af8:	cea6      	.short	0xcea6
    wAux1 = -INT16_MAX;
 8002afa:	4d7a      	ldr	r5, [pc, #488]	; (8002ce4 <R1_GetPhaseCurrents+0x250>)
 8002afc:	e7e5      	b.n	8002aca <R1_GetPhaseCurrents+0x36>
    wAux2 = -INT16_MAX;
 8002afe:	4e79      	ldr	r6, [pc, #484]	; (8002ce4 <R1_GetPhaseCurrents+0x250>)
 8002b00:	e7ed      	b.n	8002ade <R1_GetPhaseCurrents+0x4a>
  {
    case SECTOR_1:
    {
      if((pHandle->iflag & (IA_OK | IC_OK)) == (IA_OK | IC_OK)) /* iA and -iC are available to be sampled */
 8002b02:	2205      	movs	r2, #5
 8002b04:	781b      	ldrb	r3, [r3, #0]
 8002b06:	4013      	ands	r3, r2
 8002b08:	4293      	cmp	r3, r2
 8002b0a:	d102      	bne.n	8002b12 <R1_GetPhaseCurrents+0x7e>
      {
        hCurrA = (int16_t) wAux2;
 8002b0c:	b233      	sxth	r3, r6
      if((pHandle->iflag & (IA_OK | IC_OK)) == (IA_OK | IC_OK)) /* iC,-iA are available to be sampled */
      {
        hCurrC = (int16_t) wAux2;
        wAux1 = -wAux1;
        hCurrA = (int16_t) wAux1;
        hCurrB = -hCurrA-hCurrC;
 8002b0e:	1baa      	subs	r2, r5, r6
 8002b10:	e040      	b.n	8002b94 <R1_GetPhaseCurrents+0x100>
        if((pHandle->iflag & (IA_OK | IC_OK)) != 0x00) /* iA or -iC is available to be sampled */
 8002b12:	2b00      	cmp	r3, #0
 8002b14:	d100      	bne.n	8002b18 <R1_GetPhaseCurrents+0x84>
 8002b16:	e089      	b.n	8002c2c <R1_GetPhaseCurrents+0x198>
          if(pHandle->_Super.AlignFlag == 0x01) /* START Position Aligning_angle=30 degree */
 8002b18:	0022      	movs	r2, r4
 8002b1a:	327b      	adds	r2, #123	; 0x7b
 8002b1c:	7812      	ldrb	r2, [r2, #0]
 8002b1e:	2a01      	cmp	r2, #1
 8002b20:	d106      	bne.n	8002b30 <R1_GetPhaseCurrents+0x9c>
            if((pHandle->iflag & (IA_OK | IC_OK)) == IA_OK) /* iA is available to be sampled and not iC */
 8002b22:	2b01      	cmp	r3, #1
 8002b24:	d102      	bne.n	8002b2c <R1_GetPhaseCurrents+0x98>
              hCurrA = (int16_t) wAux2;
 8002b26:	b233      	sxth	r3, r6
            }
            else  /* 0x01 -ia */
            {
              wAux1 = -wAux1;
              hCurrA = (int16_t) wAux1;
              hCurrB = 0;
 8002b28:	2200      	movs	r2, #0
 8002b2a:	e008      	b.n	8002b3e <R1_GetPhaseCurrents+0xaa>
              hCurrA = -hCurrC;
 8002b2c:	b22b      	sxth	r3, r5
              hCurrB = 0;
 8002b2e:	e7fb      	b.n	8002b28 <R1_GetPhaseCurrents+0x94>
              hCurrB = pHandle->_Super.IbEst;
 8002b30:	0022      	movs	r2, r4
 8002b32:	326a      	adds	r2, #106	; 0x6a
 8002b34:	2000      	movs	r0, #0
 8002b36:	5e12      	ldrsh	r2, [r2, r0]
            if((pHandle->iflag & (IA_OK | IC_OK)) == IA_OK) /* iA, is available to be sampled */
 8002b38:	2b01      	cmp	r3, #1
 8002b3a:	d108      	bne.n	8002b4e <R1_GetPhaseCurrents+0xba>
              hCurrA = (int16_t) wAux2;
 8002b3c:	b233      	sxth	r3, r6

    default:
      break;
    }

  pHandle->CurrAOld = hCurrA;
 8002b3e:	0020      	movs	r0, r4
 8002b40:	30c0      	adds	r0, #192	; 0xc0
  pHandle->CurrBOld = hCurrB;
 8002b42:	34c2      	adds	r4, #194	; 0xc2
  pHandle->CurrAOld = hCurrA;
 8002b44:	8003      	strh	r3, [r0, #0]
  pHandle->CurrBOld = hCurrB;
 8002b46:	8022      	strh	r2, [r4, #0]

  pStator_Currents->a = hCurrA;
 8002b48:	800b      	strh	r3, [r1, #0]
  pStator_Currents->b = hCurrB;
 8002b4a:	804a      	strh	r2, [r1, #2]
}
 8002b4c:	bd70      	pop	{r4, r5, r6, pc}
              hCurrA = -hCurrB-hCurrC;
 8002b4e:	1aab      	subs	r3, r5, r2
          hCurrA = -hCurrB-hCurrC;
 8002b50:	b21b      	sxth	r3, r3
 8002b52:	e7f4      	b.n	8002b3e <R1_GetPhaseCurrents+0xaa>
      if((pHandle->iflag & (IB_OK | IC_OK)) == (IB_OK | IC_OK)) /* iB,-iC are available to be sampled */
 8002b54:	781a      	ldrb	r2, [r3, #0]
 8002b56:	2306      	movs	r3, #6
 8002b58:	401a      	ands	r2, r3
 8002b5a:	429a      	cmp	r2, r3
 8002b5c:	d102      	bne.n	8002b64 <R1_GetPhaseCurrents+0xd0>
        hCurrB = (int16_t) wAux2;
 8002b5e:	b232      	sxth	r2, r6
        hCurrA = -hCurrB-hCurrC;
 8002b60:	1bab      	subs	r3, r5, r6
 8002b62:	e7f5      	b.n	8002b50 <R1_GetPhaseCurrents+0xbc>
          if(pHandle->_Super.AlignFlag == 0x01) /* START Position Aligning_angle=90 degree */
 8002b64:	0023      	movs	r3, r4
        if((pHandle->iflag & (IB_OK | IC_OK)) != 0x00) /* iB, or -iC is available to be sampled */
 8002b66:	2a00      	cmp	r2, #0
 8002b68:	d100      	bne.n	8002b6c <R1_GetPhaseCurrents+0xd8>
 8002b6a:	e088      	b.n	8002c7e <R1_GetPhaseCurrents+0x1ea>
          if(pHandle->_Super.AlignFlag == 0x01) /* START Position Aligning_angle=90 degree */
 8002b6c:	337b      	adds	r3, #123	; 0x7b
 8002b6e:	781b      	ldrb	r3, [r3, #0]
 8002b70:	2b01      	cmp	r3, #1
 8002b72:	d106      	bne.n	8002b82 <R1_GetPhaseCurrents+0xee>
            if((pHandle->iflag & (IB_OK | IC_OK)) == IB_OK) /* iB, is available to be sampled */
 8002b74:	2a02      	cmp	r2, #2
 8002b76:	d102      	bne.n	8002b7e <R1_GetPhaseCurrents+0xea>
              hCurrB = (int16_t) wAux2;
 8002b78:	b232      	sxth	r2, r6
              hCurrA = 0;
 8002b7a:	2300      	movs	r3, #0
 8002b7c:	e7df      	b.n	8002b3e <R1_GetPhaseCurrents+0xaa>
              hCurrB = -hCurrC;
 8002b7e:	b22a      	sxth	r2, r5
 8002b80:	e7fb      	b.n	8002b7a <R1_GetPhaseCurrents+0xe6>
          hCurrA = pHandle->_Super.IaEst;
 8002b82:	0023      	movs	r3, r4
 8002b84:	3368      	adds	r3, #104	; 0x68
 8002b86:	2000      	movs	r0, #0
 8002b88:	5e1b      	ldrsh	r3, [r3, r0]
            if((pHandle->iflag & (IB_OK | IC_OK)) == IB_OK) /* iB, is available to be sampled */
 8002b8a:	2a02      	cmp	r2, #2
 8002b8c:	d101      	bne.n	8002b92 <R1_GetPhaseCurrents+0xfe>
              hCurrB = (int16_t) wAux2;
 8002b8e:	b232      	sxth	r2, r6
              hCurrA = pHandle->_Super.IaEst;
 8002b90:	e7d5      	b.n	8002b3e <R1_GetPhaseCurrents+0xaa>
              hCurrB = -hCurrA-hCurrC;
 8002b92:	1aea      	subs	r2, r5, r3
              hCurrB = -hCurrA;
 8002b94:	b212      	sxth	r2, r2
 8002b96:	e7d2      	b.n	8002b3e <R1_GetPhaseCurrents+0xaa>
      if((pHandle->iflag & (IA_OK | IB_OK)) == (IA_OK | IB_OK)) /* iB,-iA are available to be sampled */
 8002b98:	2203      	movs	r2, #3
 8002b9a:	781b      	ldrb	r3, [r3, #0]
 8002b9c:	4013      	ands	r3, r2
 8002b9e:	4293      	cmp	r3, r2
 8002ba0:	d102      	bne.n	8002ba8 <R1_GetPhaseCurrents+0x114>
        hCurrB = (int16_t) wAux2;
 8002ba2:	b232      	sxth	r2, r6
              wAux1 = -wAux1;
 8002ba4:	426b      	negs	r3, r5
 8002ba6:	e7d3      	b.n	8002b50 <R1_GetPhaseCurrents+0xbc>
        if((pHandle->iflag & (IA_OK | IB_OK)) != 0x00) /* iB, or -iA is available to be sampled */
 8002ba8:	2b00      	cmp	r3, #0
 8002baa:	d01c      	beq.n	8002be6 <R1_GetPhaseCurrents+0x152>
          if(pHandle->_Super.AlignFlag == 0x01) /* START Position Aligning_angle=150 degree */
 8002bac:	0022      	movs	r2, r4
 8002bae:	327b      	adds	r2, #123	; 0x7b
 8002bb0:	7812      	ldrb	r2, [r2, #0]
 8002bb2:	2a01      	cmp	r2, #1
 8002bb4:	d108      	bne.n	8002bc8 <R1_GetPhaseCurrents+0x134>
            if((pHandle->iflag & (IA_OK | IB_OK)) == IB_OK) /* iB, is available to be sampled */
 8002bb6:	2b02      	cmp	r3, #2
 8002bb8:	d102      	bne.n	8002bc0 <R1_GetPhaseCurrents+0x12c>
              hCurrB = (int16_t) wAux2;
 8002bba:	b232      	sxth	r2, r6
              hCurrA = -hCurrB-hCurrC;
 8002bbc:	4273      	negs	r3, r6
 8002bbe:	e7c7      	b.n	8002b50 <R1_GetPhaseCurrents+0xbc>
              wAux1 = -wAux1;
 8002bc0:	426b      	negs	r3, r5
              hCurrA = (int16_t) wAux1;
 8002bc2:	b21b      	sxth	r3, r3
              hCurrB = -hCurrA;
 8002bc4:	b22a      	sxth	r2, r5
 8002bc6:	e7ba      	b.n	8002b3e <R1_GetPhaseCurrents+0xaa>
            if((pHandle->iflag & (IA_OK | IB_OK)) == IB_OK) /* iB, is available to be sampled */
 8002bc8:	2b02      	cmp	r3, #2
 8002bca:	d105      	bne.n	8002bd8 <R1_GetPhaseCurrents+0x144>
              hCurrB = (int16_t) wAux2;
 8002bcc:	b232      	sxth	r2, r6
              hCurrA = pHandle->_Super.IaEst;
 8002bce:	0023      	movs	r3, r4
 8002bd0:	3368      	adds	r3, #104	; 0x68
 8002bd2:	2000      	movs	r0, #0
 8002bd4:	5e1b      	ldrsh	r3, [r3, r0]
 8002bd6:	e7b2      	b.n	8002b3e <R1_GetPhaseCurrents+0xaa>
              wAux1 = -wAux1;
 8002bd8:	426b      	negs	r3, r5
              hCurrA = (int16_t) wAux1;
 8002bda:	b21b      	sxth	r3, r3
          hCurrB = pHandle->_Super.IbEst;
 8002bdc:	0022      	movs	r2, r4
 8002bde:	326a      	adds	r2, #106	; 0x6a
 8002be0:	2000      	movs	r0, #0
 8002be2:	5e12      	ldrsh	r2, [r2, r0]
 8002be4:	e7ab      	b.n	8002b3e <R1_GetPhaseCurrents+0xaa>
          hCurrB = pHandle->_Super.IbEst;
 8002be6:	0023      	movs	r3, r4
 8002be8:	336a      	adds	r3, #106	; 0x6a
 8002bea:	2200      	movs	r2, #0
 8002bec:	5e9a      	ldrsh	r2, [r3, r2]
          hCurrA = pHandle->_Super.IaEst;
 8002bee:	e7ee      	b.n	8002bce <R1_GetPhaseCurrents+0x13a>
      if((pHandle->iflag & (IA_OK | IC_OK)) == (IA_OK | IC_OK)) /* iC,-iA are available to be sampled */
 8002bf0:	2205      	movs	r2, #5
 8002bf2:	781b      	ldrb	r3, [r3, #0]
 8002bf4:	4013      	ands	r3, r2
 8002bf6:	4293      	cmp	r3, r2
 8002bf8:	d102      	bne.n	8002c00 <R1_GetPhaseCurrents+0x16c>
        wAux1 = -wAux1;
 8002bfa:	426b      	negs	r3, r5
        hCurrA = (int16_t) wAux1;
 8002bfc:	b21b      	sxth	r3, r3
 8002bfe:	e786      	b.n	8002b0e <R1_GetPhaseCurrents+0x7a>
        if((pHandle->iflag & (IA_OK | IC_OK)) != 0x00) /* iC, or -iA is available to be sampled */
 8002c00:	2b00      	cmp	r3, #0
 8002c02:	d013      	beq.n	8002c2c <R1_GetPhaseCurrents+0x198>
          if(pHandle->_Super.AlignFlag == 0x01) /* START Position Aligning_angle=210 degree */
 8002c04:	0022      	movs	r2, r4
 8002c06:	327b      	adds	r2, #123	; 0x7b
 8002c08:	7812      	ldrb	r2, [r2, #0]
 8002c0a:	2a01      	cmp	r2, #1
 8002c0c:	d106      	bne.n	8002c1c <R1_GetPhaseCurrents+0x188>
            if((pHandle->iflag & (IA_OK | IC_OK)) == IC_OK) /* iC, is available to be sampled */
 8002c0e:	2b04      	cmp	r3, #4
 8002c10:	d102      	bne.n	8002c18 <R1_GetPhaseCurrents+0x184>
              hCurrA = -hCurrC;
 8002c12:	4273      	negs	r3, r6
              hCurrA = (int16_t) wAux1;
 8002c14:	b21b      	sxth	r3, r3
 8002c16:	e787      	b.n	8002b28 <R1_GetPhaseCurrents+0x94>
              wAux1 = -wAux1;
 8002c18:	426b      	negs	r3, r5
 8002c1a:	e7fb      	b.n	8002c14 <R1_GetPhaseCurrents+0x180>
              hCurrB = pHandle->_Super.IbEst;
 8002c1c:	0022      	movs	r2, r4
 8002c1e:	326a      	adds	r2, #106	; 0x6a
 8002c20:	2000      	movs	r0, #0
 8002c22:	5e12      	ldrsh	r2, [r2, r0]
            if((pHandle->iflag & (IA_OK | IC_OK)) == IC_OK) /* iC, is available to be sampled */
 8002c24:	2b04      	cmp	r3, #4
 8002c26:	d1bd      	bne.n	8002ba4 <R1_GetPhaseCurrents+0x110>
              hCurrA = -hCurrB-hCurrC;
 8002c28:	1996      	adds	r6, r2, r6
 8002c2a:	e7c7      	b.n	8002bbc <R1_GetPhaseCurrents+0x128>
          hCurrA = pHandle->_Super.IaEst;
 8002c2c:	0023      	movs	r3, r4
 8002c2e:	3368      	adds	r3, #104	; 0x68
 8002c30:	2200      	movs	r2, #0
 8002c32:	5e9b      	ldrsh	r3, [r3, r2]
          hCurrC = pHandle->_Super.IcEst;
 8002c34:	0022      	movs	r2, r4
 8002c36:	326c      	adds	r2, #108	; 0x6c
          hCurrB = -hCurrA-hCurrC;
 8002c38:	8812      	ldrh	r2, [r2, #0]
 8002c3a:	18d2      	adds	r2, r2, r3
 8002c3c:	4252      	negs	r2, r2
 8002c3e:	e7a9      	b.n	8002b94 <R1_GetPhaseCurrents+0x100>
      if((pHandle->iflag & (IB_OK | IC_OK)) == (IB_OK | IC_OK)) /* iC,-iB are available to be sampled */
 8002c40:	781a      	ldrb	r2, [r3, #0]
 8002c42:	2306      	movs	r3, #6
 8002c44:	401a      	ands	r2, r3
 8002c46:	429a      	cmp	r2, r3
 8002c48:	d102      	bne.n	8002c50 <R1_GetPhaseCurrents+0x1bc>
        wAux1 = -wAux1;
 8002c4a:	426a      	negs	r2, r5
        hCurrB = (int16_t) wAux1;
 8002c4c:	b212      	sxth	r2, r2
 8002c4e:	e787      	b.n	8002b60 <R1_GetPhaseCurrents+0xcc>
          if(pHandle->_Super.AlignFlag == 0x01) /* START Position Aligning_angle=270 degree */
 8002c50:	0023      	movs	r3, r4
        if((pHandle->iflag & (IB_OK | IC_OK)) != 0x00) /* iC, or -iB is available to be sampled */
 8002c52:	2a00      	cmp	r2, #0
 8002c54:	d013      	beq.n	8002c7e <R1_GetPhaseCurrents+0x1ea>
          if(pHandle->_Super.AlignFlag == 0x01) /* START Position Aligning_angle=270 degree */
 8002c56:	337b      	adds	r3, #123	; 0x7b
 8002c58:	781b      	ldrb	r3, [r3, #0]
 8002c5a:	2b01      	cmp	r3, #1
 8002c5c:	d106      	bne.n	8002c6c <R1_GetPhaseCurrents+0x1d8>
            if((pHandle->iflag & (IB_OK | IC_OK)) == IC_OK) /* iC, is available to be sampled */
 8002c5e:	2a04      	cmp	r2, #4
 8002c60:	d102      	bne.n	8002c68 <R1_GetPhaseCurrents+0x1d4>
              hCurrB = -hCurrC;
 8002c62:	4272      	negs	r2, r6
              hCurrB = (int16_t) wAux1;
 8002c64:	b212      	sxth	r2, r2
 8002c66:	e788      	b.n	8002b7a <R1_GetPhaseCurrents+0xe6>
              wAux1 = -wAux1;
 8002c68:	426a      	negs	r2, r5
 8002c6a:	e7fb      	b.n	8002c64 <R1_GetPhaseCurrents+0x1d0>
          hCurrA = pHandle->_Super.IaEst;
 8002c6c:	0023      	movs	r3, r4
 8002c6e:	3368      	adds	r3, #104	; 0x68
 8002c70:	2000      	movs	r0, #0
 8002c72:	5e1b      	ldrsh	r3, [r3, r0]
              hCurrB = -hCurrA-hCurrC;
 8002c74:	199e      	adds	r6, r3, r6
            if((pHandle->iflag & (IB_OK | IC_OK)) == IC_OK) /* iC, is available to be sampled */
 8002c76:	2a04      	cmp	r2, #4
 8002c78:	d01b      	beq.n	8002cb2 <R1_GetPhaseCurrents+0x21e>
        wAux1 = -wAux1;
 8002c7a:	426a      	negs	r2, r5
 8002c7c:	e78a      	b.n	8002b94 <R1_GetPhaseCurrents+0x100>
          hCurrB = pHandle->_Super.IbEst;
 8002c7e:	336a      	adds	r3, #106	; 0x6a
 8002c80:	2200      	movs	r2, #0
 8002c82:	5e9a      	ldrsh	r2, [r3, r2]
          hCurrC = pHandle->_Super.IcEst;
 8002c84:	0023      	movs	r3, r4
 8002c86:	336c      	adds	r3, #108	; 0x6c
          hCurrA = -hCurrB-hCurrC;
 8002c88:	881b      	ldrh	r3, [r3, #0]
 8002c8a:	189b      	adds	r3, r3, r2
 8002c8c:	425b      	negs	r3, r3
 8002c8e:	e75f      	b.n	8002b50 <R1_GetPhaseCurrents+0xbc>
      if((pHandle->iflag & (IA_OK | IB_OK)) == (IA_OK | IB_OK)) /* iA,-iB are available to be sampled */
 8002c90:	2203      	movs	r2, #3
 8002c92:	781b      	ldrb	r3, [r3, #0]
 8002c94:	4013      	ands	r3, r2
 8002c96:	4293      	cmp	r3, r2
 8002c98:	d101      	bne.n	8002c9e <R1_GetPhaseCurrents+0x20a>
        hCurrA = (int16_t) wAux2;
 8002c9a:	b233      	sxth	r3, r6
 8002c9c:	e7ed      	b.n	8002c7a <R1_GetPhaseCurrents+0x1e6>
        if((pHandle->iflag & (IA_OK | IB_OK)) != 0x00) /* iA, or -iB is available to be sampled */
 8002c9e:	2b00      	cmp	r3, #0
 8002ca0:	d014      	beq.n	8002ccc <R1_GetPhaseCurrents+0x238>
          if(pHandle->_Super.AlignFlag == 0x01) /* START Position Aligning_angle=330 degree */
 8002ca2:	0022      	movs	r2, r4
 8002ca4:	327b      	adds	r2, #123	; 0x7b
 8002ca6:	7812      	ldrb	r2, [r2, #0]
 8002ca8:	2a01      	cmp	r2, #1
 8002caa:	d108      	bne.n	8002cbe <R1_GetPhaseCurrents+0x22a>
            if((pHandle->iflag & (IA_OK | IB_OK)) == IA_OK) /* iA, is available to be sampled */
 8002cac:	2b01      	cmp	r3, #1
 8002cae:	d102      	bne.n	8002cb6 <R1_GetPhaseCurrents+0x222>
              hCurrA = (int16_t) wAux2;
 8002cb0:	b233      	sxth	r3, r6
              hCurrB = -hCurrA;
 8002cb2:	4272      	negs	r2, r6
 8002cb4:	e76e      	b.n	8002b94 <R1_GetPhaseCurrents+0x100>
              wAux1 = -wAux1;
 8002cb6:	426a      	negs	r2, r5
              hCurrB = (int16_t) wAux1;
 8002cb8:	b212      	sxth	r2, r2
              hCurrA = -hCurrB;
 8002cba:	b22b      	sxth	r3, r5
 8002cbc:	e73f      	b.n	8002b3e <R1_GetPhaseCurrents+0xaa>
            if((pHandle->iflag & (IA_OK | IB_OK)) == IA_OK) /* iA, is available to be sampled */
 8002cbe:	2b01      	cmp	r3, #1
 8002cc0:	d101      	bne.n	8002cc6 <R1_GetPhaseCurrents+0x232>
              hCurrA = (int16_t) wAux2;
 8002cc2:	b233      	sxth	r3, r6
              hCurrB = pHandle->_Super.IbEst;
 8002cc4:	e78a      	b.n	8002bdc <R1_GetPhaseCurrents+0x148>
              wAux1 = -wAux1;
 8002cc6:	426d      	negs	r5, r5
              hCurrB = (int16_t) wAux1;
 8002cc8:	b22a      	sxth	r2, r5
 8002cca:	e780      	b.n	8002bce <R1_GetPhaseCurrents+0x13a>
          hCurrA = pHandle->_Super.IaEst;
 8002ccc:	0023      	movs	r3, r4
 8002cce:	3368      	adds	r3, #104	; 0x68
 8002cd0:	2200      	movs	r2, #0
 8002cd2:	5e9b      	ldrsh	r3, [r3, r2]
 8002cd4:	e782      	b.n	8002bdc <R1_GetPhaseCurrents+0x148>
 8002cd6:	46c0      	nop			; (mov r8, r8)
 8002cd8:	ffff8002 	.word	0xffff8002
 8002cdc:	00007ffe 	.word	0x00007ffe
 8002ce0:	00007fff 	.word	0x00007fff
 8002ce4:	ffff8001 	.word	0xffff8001

08002ce8 <R1_HFCurrentsCalibration>:
  */
static void R1_HFCurrentsCalibration(PWMC_Handle_t *pHdl, ab_t *pStator_Currents)
{
  /* Derived class members container */
  PWMC_R1_Handle_t *pHandle = (PWMC_R1_Handle_t *)pHdl;
  TIM_TypeDef *TIMx = pHandle->pParams_str->TIMx;
 8002ce8:	0003      	movs	r3, r0
 8002cea:	33cc      	adds	r3, #204	; 0xcc
 8002cec:	681b      	ldr	r3, [r3, #0]
{
 8002cee:	b510      	push	{r4, lr}
  TIM_TypeDef *TIMx = pHandle->pParams_str->TIMx;
 8002cf0:	685a      	ldr	r2, [r3, #4]
  /* Clear flag used for FOC duration check */
  pHandle->FOCDurationFlag = false;
 8002cf2:	0003      	movs	r3, r0
 8002cf4:	2400      	movs	r4, #0
 8002cf6:	33c8      	adds	r3, #200	; 0xc8
 8002cf8:	701c      	strb	r4, [r3, #0]
 8002cfa:	6853      	ldr	r3, [r2, #4]
 8002cfc:	3470      	adds	r4, #112	; 0x70
 8002cfe:	43a3      	bics	r3, r4
 8002d00:	6053      	str	r3, [r2, #4]

  /* Disabling the External triggering for ADCx */
  LL_TIM_SetTriggerOutput(TIMx, LL_TIM_TRGO_RESET);
  if (pHandle->Index < NB_CONVERSIONS)
 8002d02:	0002      	movs	r2, r0
 8002d04:	32c4      	adds	r2, #196	; 0xc4
 8002d06:	7813      	ldrb	r3, [r2, #0]
 8002d08:	2b0f      	cmp	r3, #15
 8002d0a:	d80a      	bhi.n	8002d22 <R1_HFCurrentsCalibration+0x3a>
  {
    pHandle->PhaseOffset += pHandle->CurConv[1] ;
 8002d0c:	0004      	movs	r4, r0
 8002d0e:	30b6      	adds	r0, #182	; 0xb6
 8002d10:	34a0      	adds	r4, #160	; 0xa0
 8002d12:	8800      	ldrh	r0, [r0, #0]
 8002d14:	6823      	ldr	r3, [r4, #0]
 8002d16:	181b      	adds	r3, r3, r0
 8002d18:	6023      	str	r3, [r4, #0]
    pHandle->Index++;
 8002d1a:	7813      	ldrb	r3, [r2, #0]
 8002d1c:	3301      	adds	r3, #1
 8002d1e:	b2db      	uxtb	r3, r3
 8002d20:	7013      	strb	r3, [r2, #0]
  }

  /* During offset calibration no current is flowing in the phases */
  pStator_Currents->a = 0;
 8002d22:	2300      	movs	r3, #0
 8002d24:	800b      	strh	r3, [r1, #0]
  pStator_Currents->b = 0;
 8002d26:	804b      	strh	r3, [r1, #2]

}
 8002d28:	bd10      	pop	{r4, pc}
	...

08002d2c <R1_SetADCSampPointPolarization>:
{
  /* Derived class members container */
  PWMC_R1_Handle_t *pHandle = (PWMC_R1_Handle_t *)pHdl;

  uint16_t hAux;
  pHandle->CntSmp1 = ((uint32_t)(pHandle->Half_PWMPeriod) >> 1)
 8002d2c:	0003      	movs	r3, r0
{
 8002d2e:	b530      	push	{r4, r5, lr}
  pHandle->CntSmp1 = ((uint32_t)(pHandle->Half_PWMPeriod) >> 1)
 8002d30:	33b8      	adds	r3, #184	; 0xb8
                   - (uint32_t)(pHandle->pParams_str->hTADConv + pHandle->pParams_str->TSample);
 8002d32:	881a      	ldrh	r2, [r3, #0]
 8002d34:	3314      	adds	r3, #20
 8002d36:	681b      	ldr	r3, [r3, #0]
 8002d38:	0852      	lsrs	r2, r2, #1
 8002d3a:	8bdc      	ldrh	r4, [r3, #30]
 8002d3c:	8c19      	ldrh	r1, [r3, #32]
 8002d3e:	1909      	adds	r1, r1, r4
 8002d40:	b289      	uxth	r1, r1
 8002d42:	1a55      	subs	r5, r2, r1
  pHandle->CntSmp1 = ((uint32_t)(pHandle->Half_PWMPeriod) >> 1)
 8002d44:	0004      	movs	r4, r0
  pHandle->CntSmp2 = ((uint32_t)(pHandle->Half_PWMPeriod) >> 1)
                   + (uint32_t)(pHandle->pParams_str->hTADConv + pHandle->pParams_str->TSample);
 8002d46:	1852      	adds	r2, r2, r1
  pHandle->CntSmp2 = ((uint32_t)(pHandle->Half_PWMPeriod) >> 1)
 8002d48:	0001      	movs	r1, r0
  pHandle->CntSmp1 = ((uint32_t)(pHandle->Half_PWMPeriod) >> 1)
 8002d4a:	34ba      	adds	r4, #186	; 0xba
  pHandle->CntSmp2 = ((uint32_t)(pHandle->Half_PWMPeriod) >> 1)
 8002d4c:	31bc      	adds	r1, #188	; 0xbc
  pHandle->CntSmp1 = ((uint32_t)(pHandle->Half_PWMPeriod) >> 1)
 8002d4e:	8025      	strh	r5, [r4, #0]
  pHandle->CntSmp2 = ((uint32_t)(pHandle->Half_PWMPeriod) >> 1)
 8002d50:	800a      	strh	r2, [r1, #0]
  LL_ADC_REG_SetSequencerChannels(ADC1, __LL_ADC_DECIMAL_NB_TO_CHANNEL (pHandle->pParams_str->IChannel));
 8002d52:	1cda      	adds	r2, r3, #3
 8002d54:	7fd1      	ldrb	r1, [r2, #31]
  */
__STATIC_INLINE void LL_ADC_REG_SetSequencerChannels(ADC_TypeDef *ADCx, uint32_t Channel)
{
  /* Parameter "Channel" is used with masks because containing                */
  /* other bits reserved for other purpose.                                   */
  WRITE_REG(ADCx->CHSELR, (Channel & ADC_CHANNEL_ID_BITFIELD_MASK));
 8002d56:	2280      	movs	r2, #128	; 0x80
 8002d58:	0192      	lsls	r2, r2, #6
 8002d5a:	408a      	lsls	r2, r1
  MODIFY_REG(ADCx->SMPR, ADC_SMPR_SMP, SamplingTime);
 8002d5c:	2407      	movs	r4, #7
  WRITE_REG(ADCx->CHSELR, (Channel & ADC_CHANNEL_ID_BITFIELD_MASK));
 8002d5e:	490e      	ldr	r1, [pc, #56]	; (8002d98 <R1_SetADCSampPointPolarization+0x6c>)
 8002d60:	0b52      	lsrs	r2, r2, #13
 8002d62:	628a      	str	r2, [r1, #40]	; 0x28
  MODIFY_REG(ADCx->SMPR, ADC_SMPR_SMP, SamplingTime);
 8002d64:	694a      	ldr	r2, [r1, #20]
  LL_ADC_SetSamplingTimeCommonChannels (ADC1, pHandle->pParams_str->ISamplingTime);
 8002d66:	3304      	adds	r3, #4
 8002d68:	7fdb      	ldrb	r3, [r3, #31]
 8002d6a:	43a2      	bics	r2, r4
 8002d6c:	4313      	orrs	r3, r2
 8002d6e:	614b      	str	r3, [r1, #20]
  MODIFY_REG(ADCx->CFGR1, ADC_CFGR1_EXTEN | ADC_CFGR1_EXTSEL, TriggerSource);
 8002d70:	68ca      	ldr	r2, [r1, #12]
 8002d72:	4b0a      	ldr	r3, [pc, #40]	; (8002d9c <R1_SetADCSampPointPolarization+0x70>)
 8002d74:	401a      	ands	r2, r3
 8002d76:	2388      	movs	r3, #136	; 0x88
 8002d78:	00db      	lsls	r3, r3, #3
 8002d7a:	4313      	orrs	r3, r2
 8002d7c:	60cb      	str	r3, [r1, #12]
  LL_ADC_REG_SetTriggerSource(ADC1, LL_ADC_REG_TRIG_EXT_TIM1_CH4);

  /* Check software error */
  if (pHandle->FOCDurationFlag == true)
 8002d7e:	0003      	movs	r3, r0
 8002d80:	33c8      	adds	r3, #200	; 0xc8
 8002d82:	781a      	ldrb	r2, [r3, #0]
  }
  else
  {
    hAux = MC_NO_ERROR;
  }
  if (pHandle->_Super.SWerror == 1u)
 8002d84:	3b72      	subs	r3, #114	; 0x72
 8002d86:	8818      	ldrh	r0, [r3, #0]
 8002d88:	2801      	cmp	r0, #1
 8002d8a:	d001      	beq.n	8002d90 <R1_SetADCSampPointPolarization+0x64>
    hAux = MC_DURATION;
 8002d8c:	b290      	uxth	r0, r2
  else
  {
    /* Nothing to do */
  }
  return (hAux);
}
 8002d8e:	bd30      	pop	{r4, r5, pc}
    pHandle->_Super.SWerror = 0u;
 8002d90:	2200      	movs	r2, #0
 8002d92:	801a      	strh	r2, [r3, #0]
 8002d94:	e7fb      	b.n	8002d8e <R1_SetADCSampPointPolarization+0x62>
 8002d96:	46c0      	nop			; (mov r8, r8)
 8002d98:	40012400 	.word	0x40012400
 8002d9c:	fffff23f 	.word	0xfffff23f

08002da0 <R1_CalcDutyCycles>:
  *         before the end of FOC algorithm else returns MC_NO_ERROR
  */
__weak uint16_t R1_CalcDutyCycles(PWMC_Handle_t *pHdl)
{
  PWMC_R1_Handle_t *pHandle = (PWMC_R1_Handle_t *)pHdl;
  DMA_TypeDef *DMAx = pHandle->pParams_str->DMAx;
 8002da0:	0003      	movs	r3, r0
{
 8002da2:	b5f0      	push	{r4, r5, r6, r7, lr}
  DMA_TypeDef *DMAx = pHandle->pParams_str->DMAx;
 8002da4:	33cc      	adds	r3, #204	; 0xcc
 8002da6:	681b      	ldr	r3, [r3, #0]
{
 8002da8:	b093      	sub	sp, #76	; 0x4c
  DMA_TypeDef *DMAx = pHandle->pParams_str->DMAx;
 8002daa:	9301      	str	r3, [sp, #4]
 8002dac:	689b      	ldr	r3, [r3, #8]
  midVal = (uint8_t)pHandle->_Super.midDuty;
  minVal = (uint8_t)pHandle->_Super.lowDuty;
  pHandle->iflag=0x00;

  /* Phase-shift and set iflag */
  submax_mid = aCCRval[maxVal] - aCCRval[midVal];
 8002dae:	a910      	add	r1, sp, #64	; 0x40
  DMA_TypeDef *DMAx = pHandle->pParams_str->DMAx;
 8002db0:	930c      	str	r3, [sp, #48]	; 0x30
  aCCRval[0] = (int16_t)pHandle->_Super.CntPhA;
 8002db2:	0003      	movs	r3, r0
 8002db4:	3350      	adds	r3, #80	; 0x50
 8002db6:	881b      	ldrh	r3, [r3, #0]
  pHandle->iflag=0x00;
 8002db8:	0006      	movs	r6, r0
  aCCRval[0] = (int16_t)pHandle->_Super.CntPhA;
 8002dba:	9308      	str	r3, [sp, #32]
  aCCRval[1] = (int16_t)pHandle->_Super.CntPhB;
 8002dbc:	0003      	movs	r3, r0
 8002dbe:	3352      	adds	r3, #82	; 0x52
 8002dc0:	881b      	ldrh	r3, [r3, #0]
  pHandle->iflag=0x00;
 8002dc2:	2500      	movs	r5, #0
  aCCRval[1] = (int16_t)pHandle->_Super.CntPhB;
 8002dc4:	9309      	str	r3, [sp, #36]	; 0x24
  aCCRval[0] = (int16_t)pHandle->_Super.CntPhA;
 8002dc6:	6d03      	ldr	r3, [r0, #80]	; 0x50
{
 8002dc8:	0004      	movs	r4, r0
  aCCRval[0] = (int16_t)pHandle->_Super.CntPhA;
 8002dca:	9310      	str	r3, [sp, #64]	; 0x40
  aCCRval[2] = (int16_t)pHandle->_Super.CntPhC;
 8002dcc:	0003      	movs	r3, r0
 8002dce:	3354      	adds	r3, #84	; 0x54
 8002dd0:	881b      	ldrh	r3, [r3, #0]
  pHandle->iflag=0x00;
 8002dd2:	36c5      	adds	r6, #197	; 0xc5
  aCCRval[2] = (int16_t)pHandle->_Super.CntPhC;
 8002dd4:	9304      	str	r3, [sp, #16]
 8002dd6:	9a04      	ldr	r2, [sp, #16]
 8002dd8:	ab10      	add	r3, sp, #64	; 0x40
 8002dda:	809a      	strh	r2, [r3, #4]
  maxVal = (uint8_t)pHandle->_Super.highDuty;
 8002ddc:	0003      	movs	r3, r0
 8002dde:	335c      	adds	r3, #92	; 0x5c
 8002de0:	781b      	ldrb	r3, [r3, #0]
  minVal = (uint8_t)pHandle->_Super.lowDuty;
 8002de2:	0002      	movs	r2, r0
  maxVal = (uint8_t)pHandle->_Super.highDuty;
 8002de4:	9302      	str	r3, [sp, #8]
  midVal = (uint8_t)pHandle->_Super.midDuty;
 8002de6:	0003      	movs	r3, r0
  minVal = (uint8_t)pHandle->_Super.lowDuty;
 8002de8:	3258      	adds	r2, #88	; 0x58
 8002dea:	7812      	ldrb	r2, [r2, #0]
  midVal = (uint8_t)pHandle->_Super.midDuty;
 8002dec:	335a      	adds	r3, #90	; 0x5a
 8002dee:	781b      	ldrb	r3, [r3, #0]
  minVal = (uint8_t)pHandle->_Super.lowDuty;
 8002df0:	9206      	str	r2, [sp, #24]
  submax_mid = aCCRval[maxVal] - aCCRval[midVal];
 8002df2:	9a02      	ldr	r2, [sp, #8]
 8002df4:	005b      	lsls	r3, r3, #1
 8002df6:	0052      	lsls	r2, r2, #1
 8002df8:	5e52      	ldrsh	r2, [r2, r1]
  pHandle->iflag=0x00;
 8002dfa:	7035      	strb	r5, [r6, #0]
  submax_mid = aCCRval[maxVal] - aCCRval[midVal];
 8002dfc:	9207      	str	r2, [sp, #28]
 8002dfe:	466a      	mov	r2, sp
 8002e00:	8b92      	ldrh	r2, [r2, #28]
  submax_mid_deltmin = submax_mid - (int16_t)pHandle->pParams_str->TMin;
  submid_min = aCCRval[midVal] - aCCRval[minVal];
 8002e02:	af10      	add	r7, sp, #64	; 0x40
  submax_mid = aCCRval[maxVal] - aCCRval[midVal];
 8002e04:	920a      	str	r2, [sp, #40]	; 0x28
 8002e06:	aa10      	add	r2, sp, #64	; 0x40
 8002e08:	5e9b      	ldrsh	r3, [r3, r2]
  submax_mid_deltmin = submax_mid - (int16_t)pHandle->pParams_str->TMin;
 8002e0a:	9a0a      	ldr	r2, [sp, #40]	; 0x28
  submax_mid = aCCRval[maxVal] - aCCRval[midVal];
 8002e0c:	9305      	str	r3, [sp, #20]
 8002e0e:	466b      	mov	r3, sp
 8002e10:	8a99      	ldrh	r1, [r3, #20]
  submax_mid_deltmin = submax_mid - (int16_t)pHandle->pParams_str->TMin;
 8002e12:	9b01      	ldr	r3, [sp, #4]
 8002e14:	8b9b      	ldrh	r3, [r3, #28]
  submid_min = aCCRval[midVal] - aCCRval[minVal];
 8002e16:	9806      	ldr	r0, [sp, #24]
  submax_mid_deltmin = submax_mid - (int16_t)pHandle->pParams_str->TMin;
 8002e18:	1ad2      	subs	r2, r2, r3
  submid_min = aCCRval[midVal] - aCCRval[minVal];
 8002e1a:	0040      	lsls	r0, r0, #1
 8002e1c:	5fc0      	ldrsh	r0, [r0, r7]
  submax_mid_deltmin = submax_mid - (int16_t)pHandle->pParams_str->TMin;
 8002e1e:	1a52      	subs	r2, r2, r1
  submid_min = aCCRval[midVal] - aCCRval[minVal];
 8002e20:	900b      	str	r0, [sp, #44]	; 0x2c
  submid_min_deltmin = submid_min - (int16_t)pHandle->pParams_str->TMin;
 8002e22:	9f0b      	ldr	r7, [sp, #44]	; 0x2c
 8002e24:	1ac8      	subs	r0, r1, r3
 8002e26:	1bc0      	subs	r0, r0, r7
 8002e28:	b287      	uxth	r7, r0
 8002e2a:	b200      	sxth	r0, r0
 8002e2c:	900d      	str	r0, [sp, #52]	; 0x34
  pHandle->aShiftval[0]=0;
 8002e2e:	0020      	movs	r0, r4
 8002e30:	30a8      	adds	r0, #168	; 0xa8
 8002e32:	6005      	str	r5, [r0, #0]
  pHandle->aShiftval[1]=0;
  pHandle->aShiftval[2]=0;
 8002e34:	8085      	strh	r5, [r0, #4]
  {
    pHandle->iflag |= ALFLAG[maxVal];
  }
  else
  {
    if ((1 - submax_mid_deltmin + aCCRval[maxVal] + (int16_t) pHandle->pParams_str->hTADConv)
 8002e36:	9801      	ldr	r0, [sp, #4]
  submid_min_deltmin = submid_min - (int16_t)pHandle->pParams_str->TMin;
 8002e38:	970f      	str	r7, [sp, #60]	; 0x3c
    if ((1 - submax_mid_deltmin + aCCRval[maxVal] + (int16_t) pHandle->pParams_str->hTADConv)
 8002e3a:	8c00      	ldrh	r0, [r0, #32]
  submax_mid_deltmin = submax_mid - (int16_t)pHandle->pParams_str->TMin;
 8002e3c:	b212      	sxth	r2, r2
    if ((1 - submax_mid_deltmin + aCCRval[maxVal] + (int16_t) pHandle->pParams_str->hTADConv)
 8002e3e:	9003      	str	r0, [sp, #12]
 8002e40:	9801      	ldr	r0, [sp, #4]
 8002e42:	2720      	movs	r7, #32
 8002e44:	5fc0      	ldrsh	r0, [r0, r7]
 8002e46:	900e      	str	r0, [sp, #56]	; 0x38
       > (int16_t)(pHandle->Half_PWMPeriod))
 8002e48:	0020      	movs	r0, r4
 8002e4a:	30b8      	adds	r0, #184	; 0xb8
 8002e4c:	2700      	movs	r7, #0
 8002e4e:	5fc0      	ldrsh	r0, [r0, r7]
 8002e50:	4684      	mov	ip, r0
  if(submax_mid_deltmin > 0)
 8002e52:	42aa      	cmp	r2, r5
 8002e54:	dd13      	ble.n	8002e7e <R1_CalcDutyCycles+0xde>
    pHandle->iflag |= ALFLAG[maxVal];
 8002e56:	4a91      	ldr	r2, [pc, #580]	; (800309c <R1_CalcDutyCycles+0x2fc>)
 8002e58:	9802      	ldr	r0, [sp, #8]
 8002e5a:	5c12      	ldrb	r2, [r2, r0]
 8002e5c:	7032      	strb	r2, [r6, #0]
  max_bad_flag = 0;
 8002e5e:	0028      	movs	r0, r5
    }
  }

  if(submid_min_deltmin > 0)
  {
    pHandle->iflag |= ALFLAG[minVal];
 8002e60:	0026      	movs	r6, r4
 8002e62:	36c5      	adds	r6, #197	; 0xc5
 8002e64:	7832      	ldrb	r2, [r6, #0]
 8002e66:	4d8d      	ldr	r5, [pc, #564]	; (800309c <R1_CalcDutyCycles+0x2fc>)
 8002e68:	9f06      	ldr	r7, [sp, #24]
 8002e6a:	9207      	str	r2, [sp, #28]
  if(submid_min_deltmin > 0)
 8002e6c:	9a0d      	ldr	r2, [sp, #52]	; 0x34
    pHandle->iflag |= ALFLAG[minVal];
 8002e6e:	57ed      	ldrsb	r5, [r5, r7]
  if(submid_min_deltmin > 0)
 8002e70:	2a00      	cmp	r2, #0
 8002e72:	dd18      	ble.n	8002ea6 <R1_CalcDutyCycles+0x106>
    pHandle->iflag |= ALFLAG[minVal];
 8002e74:	9a07      	ldr	r2, [sp, #28]
 8002e76:	432a      	orrs	r2, r5
 8002e78:	7032      	strb	r2, [r6, #0]
  min_bad_flag = 0;
 8002e7a:	2600      	movs	r6, #0
 8002e7c:	e01c      	b.n	8002eb8 <R1_CalcDutyCycles+0x118>
    if ((1 - submax_mid_deltmin + aCCRval[maxVal] + (int16_t) pHandle->pParams_str->hTADConv)
 8002e7e:	2001      	movs	r0, #1
 8002e80:	9f07      	ldr	r7, [sp, #28]
 8002e82:	1a82      	subs	r2, r0, r2
 8002e84:	19d2      	adds	r2, r2, r7
 8002e86:	9f0e      	ldr	r7, [sp, #56]	; 0x38
 8002e88:	19d2      	adds	r2, r2, r7
 8002e8a:	4562      	cmp	r2, ip
 8002e8c:	dce8      	bgt.n	8002e60 <R1_CalcDutyCycles+0xc0>
      pHandle->iflag |= ALFLAG[maxVal];
 8002e8e:	9802      	ldr	r0, [sp, #8]
 8002e90:	4a82      	ldr	r2, [pc, #520]	; (800309c <R1_CalcDutyCycles+0x2fc>)
 8002e92:	5c12      	ldrb	r2, [r2, r0]
      pHandle->aShiftval[maxVal] = 1U - (uint16_t)submax_mid_deltmin;
 8002e94:	3054      	adds	r0, #84	; 0x54
      pHandle->iflag |= ALFLAG[maxVal];
 8002e96:	7032      	strb	r2, [r6, #0]
      pHandle->aShiftval[maxVal] = 1U - (uint16_t)submax_mid_deltmin;
 8002e98:	9e0a      	ldr	r6, [sp, #40]	; 0x28
 8002e9a:	1c5a      	adds	r2, r3, #1
 8002e9c:	188a      	adds	r2, r1, r2
 8002e9e:	0040      	lsls	r0, r0, #1
 8002ea0:	1b92      	subs	r2, r2, r6
 8002ea2:	5302      	strh	r2, [r0, r4]
 8002ea4:	e7db      	b.n	8002e5e <R1_CalcDutyCycles+0xbe>
  }
  else
  {
    if ((submid_min_deltmin - 1 + aCCRval[minVal]) < 0)
 8002ea6:	9f0d      	ldr	r7, [sp, #52]	; 0x34
 8002ea8:	9a0b      	ldr	r2, [sp, #44]	; 0x2c
 8002eaa:	3f01      	subs	r7, #1
 8002eac:	42d7      	cmn	r7, r2
 8002eae:	d50e      	bpl.n	8002ece <R1_CalcDutyCycles+0x12e>
    {
      pHandle->iflag &= ~ALFLAG[minVal];
 8002eb0:	9a07      	ldr	r2, [sp, #28]
 8002eb2:	43aa      	bics	r2, r5
 8002eb4:	7032      	strb	r2, [r6, #0]
      min_bad_flag = 1;
 8002eb6:	2601      	movs	r6, #1
      pHandle->iflag |= ALFLAG[minVal];
      pHandle->aShiftval[minVal] = (uint16_t)submid_min_deltmin - 1U;
    }
  }

  if ((0U == max_bad_flag) && (0U == min_bad_flag))
 8002eb8:	0007      	movs	r7, r0
  {
    SamplePoint1 = (int16_t)aCCRval[midVal] - (int16_t)pHandle->pParams_str->TSample;
 8002eba:	9a01      	ldr	r2, [sp, #4]
  if ((0U == max_bad_flag) && (0U == min_bad_flag))
 8002ebc:	4337      	orrs	r7, r6
    SamplePoint1 = (int16_t)aCCRval[midVal] - (int16_t)pHandle->pParams_str->TSample;
 8002ebe:	8bd2      	ldrh	r2, [r2, #30]
  if ((0U == max_bad_flag) && (0U == min_bad_flag))
 8002ec0:	2f00      	cmp	r7, #0
 8002ec2:	d10e      	bne.n	8002ee2 <R1_CalcDutyCycles+0x142>
    SamplePoint1 = (int16_t)aCCRval[midVal] - (int16_t)pHandle->pParams_str->TSample;
 8002ec4:	1a88      	subs	r0, r1, r2
 8002ec6:	b200      	sxth	r0, r0
    SamplePoint2 = aCCRval[midVal] + (int16_t)pHandle->pParams_str->TMin - (int16_t)pHandle->pParams_str->TSample;
 8002ec8:	1a9b      	subs	r3, r3, r2
    SamplePoint2 = SamplePoint1 + (int16_t)pHandle->pParams_str->TSample + (int16_t)pHandle->pParams_str->hTADConv;
  }
  else if (1U == max_bad_flag)
  {
    SamplePoint1 = aCCRval[midVal] - (int16_t)pHandle->pParams_str->TSample;
    SamplePoint2 = aCCRval[midVal] + (int16_t)pHandle->pParams_str->hTADConv;
 8002eca:	18cb      	adds	r3, r1, r3
 8002ecc:	e016      	b.n	8002efc <R1_CalcDutyCycles+0x15c>
      pHandle->iflag |= ALFLAG[minVal];
 8002ece:	9a07      	ldr	r2, [sp, #28]
 8002ed0:	432a      	orrs	r2, r5
 8002ed2:	7032      	strb	r2, [r6, #0]
      pHandle->aShiftval[minVal] = (uint16_t)submid_min_deltmin - 1U;
 8002ed4:	9a06      	ldr	r2, [sp, #24]
 8002ed6:	9e0f      	ldr	r6, [sp, #60]	; 0x3c
 8002ed8:	3254      	adds	r2, #84	; 0x54
 8002eda:	0052      	lsls	r2, r2, #1
 8002edc:	3e01      	subs	r6, #1
 8002ede:	5316      	strh	r6, [r2, r4]
 8002ee0:	e7cb      	b.n	8002e7a <R1_CalcDutyCycles+0xda>
  else if ((1U == max_bad_flag) && (1U == min_bad_flag))
 8002ee2:	2801      	cmp	r0, #1
 8002ee4:	d000      	beq.n	8002ee8 <R1_CalcDutyCycles+0x148>
 8002ee6:	e0d1      	b.n	800308c <R1_CalcDutyCycles+0x2ec>
 8002ee8:	2e01      	cmp	r6, #1
 8002eea:	d000      	beq.n	8002eee <R1_CalcDutyCycles+0x14e>
 8002eec:	e0ca      	b.n	8003084 <R1_CalcDutyCycles+0x2e4>
    SamplePoint1 = (int16_t)pHandle->Half_PWMPeriod / 2;
 8002eee:	4663      	mov	r3, ip
 8002ef0:	0fd8      	lsrs	r0, r3, #31
    SamplePoint2 = SamplePoint1 + (int16_t)pHandle->pParams_str->TSample + (int16_t)pHandle->pParams_str->hTADConv;
 8002ef2:	9b03      	ldr	r3, [sp, #12]
    SamplePoint1 = (int16_t)pHandle->Half_PWMPeriod / 2;
 8002ef4:	4460      	add	r0, ip
 8002ef6:	1040      	asrs	r0, r0, #1
    SamplePoint2 = SamplePoint1 + (int16_t)pHandle->pParams_str->TSample + (int16_t)pHandle->pParams_str->hTADConv;
 8002ef8:	189b      	adds	r3, r3, r2
 8002efa:	181b      	adds	r3, r3, r0
 8002efc:	b21b      	sxth	r3, r3
  {
    SamplePoint2 = aCCRval[midVal] + (int16_t)pHandle->pParams_str->TMin - (int16_t)pHandle->pParams_str->TSample;
    SamplePoint1 = aCCRval[midVal];
  }

  if ((SamplePoint2-SamplePoint1) < (int16_t)pHandle->pParams_str->hTADConv)
 8002efe:	9f0e      	ldr	r7, [sp, #56]	; 0x38
 8002f00:	1a1e      	subs	r6, r3, r0
 8002f02:	42be      	cmp	r6, r7
 8002f04:	da10      	bge.n	8002f28 <R1_CalcDutyCycles+0x188>
  {
    pHandle->iflag &=  ALFLAG[maxVal];
 8002f06:	0023      	movs	r3, r4
 8002f08:	4864      	ldr	r0, [pc, #400]	; (800309c <R1_CalcDutyCycles+0x2fc>)
 8002f0a:	9f02      	ldr	r7, [sp, #8]
 8002f0c:	33c5      	adds	r3, #197	; 0xc5
 8002f0e:	781e      	ldrb	r6, [r3, #0]
 8002f10:	5dc0      	ldrb	r0, [r0, r7]
 8002f12:	4030      	ands	r0, r6
    pHandle->iflag &= ~ALFLAG[minVal];
 8002f14:	43a8      	bics	r0, r5
 8002f16:	7018      	strb	r0, [r3, #0]
    SamplePoint1 = (int16_t)pHandle->Half_PWMPeriod /2 ;
 8002f18:	4663      	mov	r3, ip
 8002f1a:	0fd8      	lsrs	r0, r3, #31
    SamplePoint2 = SamplePoint1 + (int16_t)pHandle->pParams_str->TSample + (int16_t)pHandle->pParams_str->hTADConv;
 8002f1c:	9b03      	ldr	r3, [sp, #12]
    SamplePoint1 = (int16_t)pHandle->Half_PWMPeriod /2 ;
 8002f1e:	4460      	add	r0, ip
    SamplePoint2 = SamplePoint1 + (int16_t)pHandle->pParams_str->TSample + (int16_t)pHandle->pParams_str->hTADConv;
 8002f20:	189a      	adds	r2, r3, r2
    SamplePoint1 = (int16_t)pHandle->Half_PWMPeriod /2 ;
 8002f22:	1040      	asrs	r0, r0, #1
    SamplePoint2 = SamplePoint1 + (int16_t)pHandle->pParams_str->TSample + (int16_t)pHandle->pParams_str->hTADConv;
 8002f24:	1812      	adds	r2, r2, r0
 8002f26:	b213      	sxth	r3, r2
  {
    /* Nothing to do */
  }

  /* Saturate sampling point */
  if ((SamplePoint2 >= (int16_t)(pHandle->Half_PWMPeriod)) || (SamplePoint2 <= 0))
 8002f28:	4563      	cmp	r3, ip
 8002f2a:	da01      	bge.n	8002f30 <R1_CalcDutyCycles+0x190>
 8002f2c:	2b00      	cmp	r3, #0
 8002f2e:	dc0a      	bgt.n	8002f46 <R1_CalcDutyCycles+0x1a6>
  {
    pHandle->iflag &=  ALFLAG[maxVal];
 8002f30:	0023      	movs	r3, r4
 8002f32:	4a5a      	ldr	r2, [pc, #360]	; (800309c <R1_CalcDutyCycles+0x2fc>)
 8002f34:	9f02      	ldr	r7, [sp, #8]
 8002f36:	33c5      	adds	r3, #197	; 0xc5
 8002f38:	781e      	ldrb	r6, [r3, #0]
 8002f3a:	5dd2      	ldrb	r2, [r2, r7]
 8002f3c:	4032      	ands	r2, r6
 8002f3e:	701a      	strb	r2, [r3, #0]
    SamplePoint2 = aCCRval[midVal] + (int16_t)pHandle->pParams_str->hTADConv;
 8002f40:	9b03      	ldr	r3, [sp, #12]
 8002f42:	18c9      	adds	r1, r1, r3
 8002f44:	b20b      	sxth	r3, r1
  }
  else
  {
    /* Nothing to do */
  }
  if ((SamplePoint1 >= (int16_t)pHandle->Half_PWMPeriod) || (SamplePoint1 <= 0))
 8002f46:	4560      	cmp	r0, ip
 8002f48:	da01      	bge.n	8002f4e <R1_CalcDutyCycles+0x1ae>
 8002f4a:	2800      	cmp	r0, #0
 8002f4c:	dc05      	bgt.n	8002f5a <R1_CalcDutyCycles+0x1ba>
  {
    pHandle->iflag &= ~ALFLAG[minVal];
 8002f4e:	0021      	movs	r1, r4
 8002f50:	31c5      	adds	r1, #197	; 0xc5
 8002f52:	780a      	ldrb	r2, [r1, #0]
    SamplePoint1 = aCCRval[midVal];
 8002f54:	9805      	ldr	r0, [sp, #20]
    pHandle->iflag &= ~ALFLAG[minVal];
 8002f56:	43aa      	bics	r2, r5
 8002f58:	700a      	strb	r2, [r1, #0]
  else
  {
    /* Nothing to do */
  }

  pHandle->CntSmp1 = SamplePoint1;
 8002f5a:	b282      	uxth	r2, r0
 8002f5c:	9202      	str	r2, [sp, #8]
 8002f5e:	0022      	movs	r2, r4
  pHandle->CntSmp2 = SamplePoint2;
 8002f60:	b29b      	uxth	r3, r3
 8002f62:	9303      	str	r3, [sp, #12]
 8002f64:	0023      	movs	r3, r4
  *         @arg @ref LL_DMA_CHANNEL_7
  * @retval None
  */
__STATIC_INLINE void LL_DMA_DisableIT_TC(DMA_TypeDef *DMAx, uint32_t Channel)
{
  CLEAR_BIT(((DMA_Channel_TypeDef *)((uint32_t)((uint32_t)DMAx + CHANNEL_OFFSET_TAB[Channel - 1U])))->CCR, DMA_CCR_TCIE);
 8002f66:	2002      	movs	r0, #2
  pHandle->CntSmp1 = SamplePoint1;
 8002f68:	9902      	ldr	r1, [sp, #8]
 8002f6a:	32ba      	adds	r2, #186	; 0xba
 8002f6c:	8011      	strh	r1, [r2, #0]
  pHandle->CntSmp2 = SamplePoint2;
 8002f6e:	9a03      	ldr	r2, [sp, #12]
 8002f70:	33bc      	adds	r3, #188	; 0xbc
 8002f72:	801a      	strh	r2, [r3, #0]

  /* Critical section start */
  LL_DMA_DisableIT_TC(DMAx, pHandle->pParams_str->DMAChannelX);
 8002f74:	9b01      	ldr	r3, [sp, #4]

  pHandle->DmaBuffCCR_latch[0] = pHandle->_Super.CntPhA + pHandle->aShiftval[0];
  pHandle->DmaBuffCCR_latch[1] = pHandle->_Super.CntPhB + pHandle->aShiftval[1];
  pHandle->DmaBuffCCR_latch[2] = pHandle->_Super.CntPhC + pHandle->aShiftval[2];
 8002f76:	2198      	movs	r1, #152	; 0x98
  LL_DMA_DisableIT_TC(DMAx, pHandle->pParams_str->DMAChannelX);
 8002f78:	68db      	ldr	r3, [r3, #12]
  pHandle->DmaBuffCCR_latch[2] = pHandle->_Super.CntPhC + pHandle->aShiftval[2];
 8002f7a:	468c      	mov	ip, r1
  LL_DMA_DisableIT_TC(DMAx, pHandle->pParams_str->DMAChannelX);
 8002f7c:	9305      	str	r3, [sp, #20]
 8002f7e:	9a05      	ldr	r2, [sp, #20]
 8002f80:	4b47      	ldr	r3, [pc, #284]	; (80030a0 <R1_CalcDutyCycles+0x300>)
  pHandle->DmaBuffCCR_latch[2] = pHandle->_Super.CntPhC + pHandle->aShiftval[2];
 8002f82:	44a4      	add	ip, r4
 8002f84:	189b      	adds	r3, r3, r2
 8002f86:	3b01      	subs	r3, #1
 8002f88:	9a0c      	ldr	r2, [sp, #48]	; 0x30
 8002f8a:	781b      	ldrb	r3, [r3, #0]
 8002f8c:	4661      	mov	r1, ip
 8002f8e:	18d3      	adds	r3, r2, r3
 8002f90:	681a      	ldr	r2, [r3, #0]
 8002f92:	9d04      	ldr	r5, [sp, #16]
 8002f94:	4382      	bics	r2, r0
 8002f96:	601a      	str	r2, [r3, #0]
  pHandle->DmaBuffCCR_latch[0] = pHandle->_Super.CntPhA + pHandle->aShiftval[0];
 8002f98:	0023      	movs	r3, r4
 8002f9a:	33a8      	adds	r3, #168	; 0xa8
 8002f9c:	8818      	ldrh	r0, [r3, #0]
 8002f9e:	9b08      	ldr	r3, [sp, #32]
 8002fa0:	181f      	adds	r7, r3, r0
 8002fa2:	0023      	movs	r3, r4
 8002fa4:	b2bf      	uxth	r7, r7
 8002fa6:	3394      	adds	r3, #148	; 0x94
 8002fa8:	801f      	strh	r7, [r3, #0]
  pHandle->DmaBuffCCR_latch[1] = pHandle->_Super.CntPhB + pHandle->aShiftval[1];
 8002faa:	8ada      	ldrh	r2, [r3, #22]
 8002fac:	9b09      	ldr	r3, [sp, #36]	; 0x24
 8002fae:	189e      	adds	r6, r3, r2
 8002fb0:	0023      	movs	r3, r4
 8002fb2:	b2b6      	uxth	r6, r6
 8002fb4:	3396      	adds	r3, #150	; 0x96
 8002fb6:	801e      	strh	r6, [r3, #0]
  pHandle->DmaBuffCCR_latch[2] = pHandle->_Super.CntPhC + pHandle->aShiftval[2];
 8002fb8:	3316      	adds	r3, #22
 8002fba:	881b      	ldrh	r3, [r3, #0]
 8002fbc:	18ed      	adds	r5, r5, r3
 8002fbe:	b2ad      	uxth	r5, r5
 8002fc0:	800d      	strh	r5, [r1, #0]
  /* Second half PWM period CCR value transfered by DMA */
  pHandle->DmaBuffCCR_latch[3]= pHandle->_Super.CntPhA - pHandle->aShiftval[0];
 8002fc2:	9908      	ldr	r1, [sp, #32]
 8002fc4:	1a08      	subs	r0, r1, r0
 8002fc6:	219a      	movs	r1, #154	; 0x9a
 8002fc8:	468c      	mov	ip, r1
 8002fca:	44a4      	add	ip, r4
 8002fcc:	4661      	mov	r1, ip
 8002fce:	b280      	uxth	r0, r0
 8002fd0:	8008      	strh	r0, [r1, #0]
  pHandle->DmaBuffCCR_latch[4]= pHandle->_Super.CntPhB - pHandle->aShiftval[1];
 8002fd2:	9909      	ldr	r1, [sp, #36]	; 0x24
 8002fd4:	1a8a      	subs	r2, r1, r2
 8002fd6:	219c      	movs	r1, #156	; 0x9c
 8002fd8:	468c      	mov	ip, r1
 8002fda:	44a4      	add	ip, r4
 8002fdc:	4661      	mov	r1, ip
 8002fde:	b292      	uxth	r2, r2
 8002fe0:	800a      	strh	r2, [r1, #0]
  pHandle->DmaBuffCCR_latch[5]= pHandle->_Super.CntPhC - pHandle->aShiftval[2];
 8002fe2:	9904      	ldr	r1, [sp, #16]
 8002fe4:	1acb      	subs	r3, r1, r3
 8002fe6:	219e      	movs	r1, #158	; 0x9e
 8002fe8:	468c      	mov	ip, r1
 8002fea:	44a4      	add	ip, r4
 8002fec:	4661      	mov	r1, ip
 8002fee:	b29b      	uxth	r3, r3
 8002ff0:	800b      	strh	r3, [r1, #0]

  if (pHandle->TCDoneFlag == true)
 8002ff2:	21c9      	movs	r1, #201	; 0xc9
 8002ff4:	468c      	mov	ip, r1
 8002ff6:	44a4      	add	ip, r4
 8002ff8:	4661      	mov	r1, ip
 8002ffa:	7809      	ldrb	r1, [r1, #0]
 8002ffc:	2900      	cmp	r1, #0
 8002ffe:	d016      	beq.n	800302e <R1_CalcDutyCycles+0x28e>
  {
    /* First half PWM period CCR value transfered by DMA */
    pHandle->DmaBuffCCR[0] = pHandle->DmaBuffCCR_latch[0];
 8003000:	2188      	movs	r1, #136	; 0x88
 8003002:	468c      	mov	ip, r1
 8003004:	44a4      	add	ip, r4
 8003006:	4661      	mov	r1, ip
 8003008:	800f      	strh	r7, [r1, #0]
    pHandle->DmaBuffCCR[1] = pHandle->DmaBuffCCR_latch[1];
 800300a:	0027      	movs	r7, r4
 800300c:	378a      	adds	r7, #138	; 0x8a
 800300e:	803e      	strh	r6, [r7, #0]
    pHandle->DmaBuffCCR[2] = pHandle->DmaBuffCCR_latch[2];
 8003010:	0026      	movs	r6, r4
 8003012:	368c      	adds	r6, #140	; 0x8c
 8003014:	8035      	strh	r5, [r6, #0]
    /* Second half PWM period CCR value transfered by DMA */
    pHandle->DmaBuffCCR[3]= pHandle->DmaBuffCCR_latch[3];
 8003016:	0025      	movs	r5, r4
 8003018:	358e      	adds	r5, #142	; 0x8e
 800301a:	8028      	strh	r0, [r5, #0]
    pHandle->DmaBuffCCR[4]= pHandle->DmaBuffCCR_latch[4];
 800301c:	0020      	movs	r0, r4
 800301e:	3090      	adds	r0, #144	; 0x90
 8003020:	8002      	strh	r2, [r0, #0]
    pHandle->DmaBuffCCR[5]= pHandle->DmaBuffCCR_latch[5];
 8003022:	0022      	movs	r2, r4
 8003024:	3292      	adds	r2, #146	; 0x92
 8003026:	8013      	strh	r3, [r2, #0]
  WRITE_REG(TIMx->CCR4, CompareValue);
 8003028:	4b1e      	ldr	r3, [pc, #120]	; (80030a4 <R1_CalcDutyCycles+0x304>)
 800302a:	9a02      	ldr	r2, [sp, #8]
 800302c:	641a      	str	r2, [r3, #64]	; 0x40
  else
  {
    /* Do nothing, it will be applied during DMA transfer complete IRQ */
  }
  /* Critical section end */
  LL_DMA_EnableIT_TC(DMAx, pHandle->pParams_str->DMAChannelX);
 800302e:	9905      	ldr	r1, [sp, #20]
 8003030:	980c      	ldr	r0, [sp, #48]	; 0x30
 8003032:	f7ff fce9 	bl	8002a08 <LL_DMA_EnableIT_TC>

  LL_ADC_REG_SetSequencerChannels(ADC1, __LL_ADC_DECIMAL_NB_TO_CHANNEL (pHandle->pParams_str->IChannel));
 8003036:	9b01      	ldr	r3, [sp, #4]
  MODIFY_REG(ADCx->SMPR, ADC_SMPR_SMP, SamplingTime);
 8003038:	2007      	movs	r0, #7
 800303a:	3303      	adds	r3, #3
 800303c:	7fda      	ldrb	r2, [r3, #31]
  WRITE_REG(ADCx->CHSELR, (Channel & ADC_CHANNEL_ID_BITFIELD_MASK));
 800303e:	2380      	movs	r3, #128	; 0x80
 8003040:	019b      	lsls	r3, r3, #6
 8003042:	4093      	lsls	r3, r2
 8003044:	4a18      	ldr	r2, [pc, #96]	; (80030a8 <R1_CalcDutyCycles+0x308>)
 8003046:	0b5b      	lsrs	r3, r3, #13
 8003048:	6293      	str	r3, [r2, #40]	; 0x28
  LL_ADC_SetSamplingTimeCommonChannels (ADC1, pHandle->pParams_str->ISamplingTime);
 800304a:	9b01      	ldr	r3, [sp, #4]
  MODIFY_REG(ADCx->SMPR, ADC_SMPR_SMP, SamplingTime);
 800304c:	6951      	ldr	r1, [r2, #20]
 800304e:	3304      	adds	r3, #4
 8003050:	7fdb      	ldrb	r3, [r3, #31]
 8003052:	4381      	bics	r1, r0
 8003054:	430b      	orrs	r3, r1
 8003056:	6153      	str	r3, [r2, #20]
  MODIFY_REG(ADCx->CFGR1, ADC_CFGR1_EXTEN | ADC_CFGR1_EXTSEL, TriggerSource);
 8003058:	68d1      	ldr	r1, [r2, #12]
 800305a:	4b14      	ldr	r3, [pc, #80]	; (80030ac <R1_CalcDutyCycles+0x30c>)
 800305c:	4019      	ands	r1, r3
 800305e:	2388      	movs	r3, #136	; 0x88
 8003060:	00db      	lsls	r3, r3, #3
 8003062:	430b      	orrs	r3, r1
 8003064:	60d3      	str	r3, [r2, #12]
  LL_ADC_REG_SetTriggerSource(ADC1, LL_ADC_REG_TRIG_EXT_TIM1_CH4);

  pHandle->DmaBuffCCR_ADCTrig[0] = SamplePoint2;
 8003066:	0023      	movs	r3, r4
 8003068:	9a03      	ldr	r2, [sp, #12]
 800306a:	33ae      	adds	r3, #174	; 0xae
 800306c:	801a      	strh	r2, [r3, #0]
  pHandle->DmaBuffCCR_ADCTrig[2] = SamplePoint1;
 800306e:	9a02      	ldr	r2, [sp, #8]
  }
  else
  {
    hAux = MC_NO_ERROR;
  }
  if (pHandle->_Super.SWerror == 1u)
 8003070:	3456      	adds	r4, #86	; 0x56
  pHandle->DmaBuffCCR_ADCTrig[2] = SamplePoint1;
 8003072:	809a      	strh	r2, [r3, #4]
  if (pHandle->_Super.SWerror == 1u)
 8003074:	8820      	ldrh	r0, [r4, #0]
  if (pHandle->FOCDurationFlag == true)
 8003076:	331a      	adds	r3, #26
 8003078:	781b      	ldrb	r3, [r3, #0]
  if (pHandle->_Super.SWerror == 1u)
 800307a:	2801      	cmp	r0, #1
 800307c:	d00b      	beq.n	8003096 <R1_CalcDutyCycles+0x2f6>
    hAux = MC_DURATION;
 800307e:	b298      	uxth	r0, r3
  {
    /* Nothing to do */
  }

  return (hAux);
}
 8003080:	b013      	add	sp, #76	; 0x4c
 8003082:	bdf0      	pop	{r4, r5, r6, r7, pc}
    SamplePoint1 = aCCRval[midVal] - (int16_t)pHandle->pParams_str->TSample;
 8003084:	1a88      	subs	r0, r1, r2
    SamplePoint2 = aCCRval[midVal] + (int16_t)pHandle->pParams_str->hTADConv;
 8003086:	9b03      	ldr	r3, [sp, #12]
    SamplePoint1 = aCCRval[midVal] - (int16_t)pHandle->pParams_str->TSample;
 8003088:	b200      	sxth	r0, r0
    SamplePoint2 = aCCRval[midVal] + (int16_t)pHandle->pParams_str->hTADConv;
 800308a:	e71e      	b.n	8002eca <R1_CalcDutyCycles+0x12a>
    SamplePoint2 = aCCRval[midVal] + (int16_t)pHandle->pParams_str->TMin - (int16_t)pHandle->pParams_str->TSample;
 800308c:	1a9b      	subs	r3, r3, r2
 800308e:	18cb      	adds	r3, r1, r3
    SamplePoint1 = aCCRval[midVal];
 8003090:	9805      	ldr	r0, [sp, #20]
    SamplePoint2 = aCCRval[midVal] + (int16_t)pHandle->pParams_str->TMin - (int16_t)pHandle->pParams_str->TSample;
 8003092:	b21b      	sxth	r3, r3
    SamplePoint1 = aCCRval[midVal];
 8003094:	e733      	b.n	8002efe <R1_CalcDutyCycles+0x15e>
    pHandle->_Super.SWerror = 0u;
 8003096:	2300      	movs	r3, #0
 8003098:	8023      	strh	r3, [r4, #0]
 800309a:	e7f1      	b.n	8003080 <R1_CalcDutyCycles+0x2e0>
 800309c:	080068f0 	.word	0x080068f0
 80030a0:	080068f3 	.word	0x080068f3
 80030a4:	40012c00 	.word	0x40012c00
 80030a8:	40012400 	.word	0x40012400
 80030ac:	fffff23f 	.word	0xfffff23f

080030b0 <R1_Init>:
  TIM_TypeDef * TIMx = pHandle->pParams_str->TIMx;
 80030b0:	0003      	movs	r3, r0
{
 80030b2:	b5f0      	push	{r4, r5, r6, r7, lr}
  TIM_TypeDef * TIMx = pHandle->pParams_str->TIMx;
 80030b4:	33cc      	adds	r3, #204	; 0xcc
 80030b6:	681e      	ldr	r6, [r3, #0]
{
 80030b8:	b087      	sub	sp, #28
  DMA_TypeDef * DMAx = pHandle->pParams_str->DMAx;
 80030ba:	68b3      	ldr	r3, [r6, #8]
  TIM_TypeDef * TIMx = pHandle->pParams_str->TIMx;
 80030bc:	6874      	ldr	r4, [r6, #4]
  ADC_TypeDef * ADCx = pHandle->pParams_str->ADCx;
 80030be:	6835      	ldr	r5, [r6, #0]
{
 80030c0:	9002      	str	r0, [sp, #8]
  DMA_TypeDef * DMAx = pHandle->pParams_str->DMAx;
 80030c2:	9301      	str	r3, [sp, #4]
  R1_1ShuntMotorVarsInit(&pHandle->_Super);
 80030c4:	f7ff fcac 	bl	8002a20 <R1_1ShuntMotorVarsInit>
  * @retval None
*/
__STATIC_INLINE void LL_APB1_GRP2_EnableClock(uint32_t Periphs)
{
  __IO uint32_t tmpreg;
  SET_BIT(RCC->APB2ENR, Periphs);
 80030c8:	2180      	movs	r1, #128	; 0x80
 80030ca:	4b69      	ldr	r3, [pc, #420]	; (8003270 <R1_Init+0x1c0>)
 80030cc:	03c9      	lsls	r1, r1, #15
 80030ce:	699a      	ldr	r2, [r3, #24]
  LL_TIM_OC_DisablePreload(TIMx, LL_TIM_CHANNEL_CH4);
 80030d0:	2780      	movs	r7, #128	; 0x80
 80030d2:	430a      	orrs	r2, r1
 80030d4:	619a      	str	r2, [r3, #24]
  /* Delay after an RCC peripheral clock enabling */
  tmpreg = READ_BIT(RCC->APB2ENR, Periphs);
 80030d6:	699b      	ldr	r3, [r3, #24]
  *         (*) value not defined in all devices
  * @retval None
  */
__STATIC_INLINE void LL_DBGMCU_APB1_GRP2_FreezePeriph(uint32_t Periphs)
{
  SET_BIT(DBGMCU->APB2FZ, Periphs);
 80030d8:	4a66      	ldr	r2, [pc, #408]	; (8003274 <R1_Init+0x1c4>)
 80030da:	400b      	ands	r3, r1
 80030dc:	9305      	str	r3, [sp, #20]
  (void)tmpreg;
 80030de:	9b05      	ldr	r3, [sp, #20]
 80030e0:	2380      	movs	r3, #128	; 0x80
 80030e2:	68d1      	ldr	r1, [r2, #12]
 80030e4:	011b      	lsls	r3, r3, #4
 80030e6:	430b      	orrs	r3, r1
  CLEAR_BIT(TIMx->CR1, TIM_CR1_CEN);
 80030e8:	2101      	movs	r1, #1
 80030ea:	60d3      	str	r3, [r2, #12]
 80030ec:	6823      	ldr	r3, [r4, #0]
  MODIFY_REG(TIMx->CR1, (TIM_CR1_DIR | TIM_CR1_CMS), CounterMode);
 80030ee:	2270      	movs	r2, #112	; 0x70
  CLEAR_BIT(TIMx->CR1, TIM_CR1_CEN);
 80030f0:	438b      	bics	r3, r1
 80030f2:	6023      	str	r3, [r4, #0]
  MODIFY_REG(TIMx->CR1, (TIM_CR1_DIR | TIM_CR1_CMS), CounterMode);
 80030f4:	2340      	movs	r3, #64	; 0x40
 80030f6:	6820      	ldr	r0, [r4, #0]
 80030f8:	017f      	lsls	r7, r7, #5
 80030fa:	4390      	bics	r0, r2
 80030fc:	4303      	orrs	r3, r0
 80030fe:	6023      	str	r3, [r4, #0]
  MODIFY_REG(TIMx->CR2, TIM_CR2_MMS, TimerSynchronization);
 8003100:	6863      	ldr	r3, [r4, #4]
  LL_TIM_OC_DisablePreload(TIMx, LL_TIM_CHANNEL_CH1);
 8003102:	0020      	movs	r0, r4
 8003104:	4393      	bics	r3, r2
 8003106:	6063      	str	r3, [r4, #4]
 8003108:	f7ff fc38 	bl	800297c <LL_TIM_OC_DisablePreload>
  LL_TIM_OC_DisablePreload(TIMx, LL_TIM_CHANNEL_CH2);
 800310c:	0020      	movs	r0, r4
 800310e:	2110      	movs	r1, #16
 8003110:	f7ff fc34 	bl	800297c <LL_TIM_OC_DisablePreload>
  LL_TIM_OC_DisablePreload(TIMx, LL_TIM_CHANNEL_CH3);
 8003114:	2180      	movs	r1, #128	; 0x80
 8003116:	0020      	movs	r0, r4
 8003118:	0049      	lsls	r1, r1, #1
 800311a:	f7ff fc2f 	bl	800297c <LL_TIM_OC_DisablePreload>
  LL_TIM_OC_DisablePreload(TIMx, LL_TIM_CHANNEL_CH4);
 800311e:	0039      	movs	r1, r7
 8003120:	0020      	movs	r0, r4
 8003122:	f7ff fc2b 	bl	800297c <LL_TIM_OC_DisablePreload>
  SET_BIT(TIMx->CCER, Channels);
 8003126:	6a23      	ldr	r3, [r4, #32]
  MODIFY_REG(((DMA_Channel_TypeDef *)((uint32_t)((uint32_t)DMAx + CHANNEL_OFFSET_TAB[Channel - 1U])))->CCR,
 8003128:	4953      	ldr	r1, [pc, #332]	; (8003278 <R1_Init+0x1c8>)
 800312a:	431f      	orrs	r7, r3
  WRITE_REG(TIMx->RCR, RepetitionCounter);
 800312c:	2300      	movs	r3, #0
  SET_BIT(TIMx->CCER, Channels);
 800312e:	6227      	str	r7, [r4, #32]
  WRITE_REG(TIMx->RCR, RepetitionCounter);
 8003130:	6323      	str	r3, [r4, #48]	; 0x30
  WRITE_REG(TIMx->SR, ~(TIM_SR_BIF));
 8003132:	3b81      	subs	r3, #129	; 0x81
 8003134:	6123      	str	r3, [r4, #16]
  SET_BIT(TIMx->DIER, TIM_DIER_BIE);
 8003136:	68e2      	ldr	r2, [r4, #12]
 8003138:	3302      	adds	r3, #2
 800313a:	33ff      	adds	r3, #255	; 0xff
 800313c:	4313      	orrs	r3, r2
 800313e:	60e3      	str	r3, [r4, #12]
  SET_BIT(TIMx->CCER, Channels);
 8003140:	6a22      	ldr	r2, [r4, #32]
 8003142:	4b4e      	ldr	r3, [pc, #312]	; (800327c <R1_Init+0x1cc>)
  LL_DMA_ConfigTransfer(DMAx, pHandle->pParams_str->DMAChannelX, DMA_CFG); /* To be removed should be done by cubeMX */
 8003144:	68f7      	ldr	r7, [r6, #12]
 8003146:	4313      	orrs	r3, r2
 8003148:	6223      	str	r3, [r4, #32]
 800314a:	4b4d      	ldr	r3, [pc, #308]	; (8003280 <R1_Init+0x1d0>)
 800314c:	9a01      	ldr	r2, [sp, #4]
 800314e:	9303      	str	r3, [sp, #12]
 8003150:	19db      	adds	r3, r3, r7
 8003152:	3b01      	subs	r3, #1
 8003154:	781b      	ldrb	r3, [r3, #0]
  LL_DMA_SetDataLength(DMAx, pHandle->pParams_str->DMAChannelX, DMA_TRANSFER_LENGTH_CCR);
 8003156:	9801      	ldr	r0, [sp, #4]
 8003158:	189b      	adds	r3, r3, r2
 800315a:	681a      	ldr	r2, [r3, #0]
 800315c:	400a      	ands	r2, r1
 800315e:	4949      	ldr	r1, [pc, #292]	; (8003284 <R1_Init+0x1d4>)
 8003160:	430a      	orrs	r2, r1
 8003162:	601a      	str	r2, [r3, #0]
  MODIFY_REG(TIMx->DCR, (TIM_DCR_DBL | TIM_DCR_DBA), (DMABurstBaseAddress | DMABurstLength));
 8003164:	6ca1      	ldr	r1, [r4, #72]	; 0x48
 8003166:	4a48      	ldr	r2, [pc, #288]	; (8003288 <R1_Init+0x1d8>)
 8003168:	4011      	ands	r1, r2
 800316a:	4a48      	ldr	r2, [pc, #288]	; (800328c <R1_Init+0x1dc>)
 800316c:	430a      	orrs	r2, r1
 800316e:	64a2      	str	r2, [r4, #72]	; 0x48
  LL_DMA_SetMemoryAddress(DMAx, pHandle->pParams_str->DMAChannelX, (uint32_t)&pHandle->DmaBuffCCR[0]);
 8003170:	9a02      	ldr	r2, [sp, #8]
  LL_DMA_SetDataLength(DMAx, pHandle->pParams_str->DMAChannelX, DMA_TRANSFER_LENGTH_CCR);
 8003172:	0039      	movs	r1, r7
  LL_DMA_SetMemoryAddress(DMAx, pHandle->pParams_str->DMAChannelX, (uint32_t)&pHandle->DmaBuffCCR[0]);
 8003174:	3288      	adds	r2, #136	; 0x88
  WRITE_REG(((DMA_Channel_TypeDef *)((uint32_t)((uint32_t)DMAx + CHANNEL_OFFSET_TAB[Channel - 1U])))->CMAR, MemoryAddress);
 8003176:	60da      	str	r2, [r3, #12]
  LL_DMA_SetPeriphAddress(DMAx, pHandle->pParams_str->DMAChannelX, (uint32_t) &TIMx->DMAR);
 8003178:	0022      	movs	r2, r4
 800317a:	324c      	adds	r2, #76	; 0x4c
  WRITE_REG(((DMA_Channel_TypeDef *)((uint32_t)((uint32_t)DMAx + CHANNEL_OFFSET_TAB[Channel - 1U])))->CPAR, PeriphAddress);
 800317c:	609a      	str	r2, [r3, #8]
  LL_DMA_SetDataLength(DMAx, pHandle->pParams_str->DMAChannelX, DMA_TRANSFER_LENGTH_CCR);
 800317e:	2206      	movs	r2, #6
 8003180:	f7ff fc34 	bl	80029ec <LL_DMA_SetDataLength>
  LL_DMA_ConfigTransfer(DMAx, pHandle->pParams_str->DMASamplingPtChannelX, DMA_CFG); /* To be removed should be done by cubeMX */
 8003184:	6931      	ldr	r1, [r6, #16]
  MODIFY_REG(((DMA_Channel_TypeDef *)((uint32_t)((uint32_t)DMAx + CHANNEL_OFFSET_TAB[Channel - 1U])))->CCR,
 8003186:	9b03      	ldr	r3, [sp, #12]
 8003188:	9a01      	ldr	r2, [sp, #4]
 800318a:	185b      	adds	r3, r3, r1
 800318c:	3b01      	subs	r3, #1
 800318e:	781b      	ldrb	r3, [r3, #0]
 8003190:	4839      	ldr	r0, [pc, #228]	; (8003278 <R1_Init+0x1c8>)
 8003192:	189b      	adds	r3, r3, r2
 8003194:	681a      	ldr	r2, [r3, #0]
  LL_DMA_SetPeriphAddress(DMAx, pHandle->pParams_str->DMASamplingPtChannelX, (uint32_t) &TIMx->CCR4);
 8003196:	3440      	adds	r4, #64	; 0x40
 8003198:	4002      	ands	r2, r0
 800319a:	483a      	ldr	r0, [pc, #232]	; (8003284 <R1_Init+0x1d4>)
 800319c:	4302      	orrs	r2, r0
 800319e:	601a      	str	r2, [r3, #0]
  LL_DMA_SetMemoryAddress(DMAx, pHandle->pParams_str->DMASamplingPtChannelX, (uint32_t)&pHandle->DmaBuffCCR_ADCTrig[0]);
 80031a0:	9a02      	ldr	r2, [sp, #8]
  LL_DMA_SetDataLength(DMAx, pHandle->pParams_str->DMASamplingPtChannelX, DMA_TRANSFER_LENGTH_SAMPLING_POINT);
 80031a2:	9801      	ldr	r0, [sp, #4]
  LL_DMA_SetMemoryAddress(DMAx, pHandle->pParams_str->DMASamplingPtChannelX, (uint32_t)&pHandle->DmaBuffCCR_ADCTrig[0]);
 80031a4:	32ae      	adds	r2, #174	; 0xae
  WRITE_REG(((DMA_Channel_TypeDef *)((uint32_t)((uint32_t)DMAx + CHANNEL_OFFSET_TAB[Channel - 1U])))->CMAR, MemoryAddress);
 80031a6:	60da      	str	r2, [r3, #12]
  WRITE_REG(((DMA_Channel_TypeDef *)((uint32_t)((uint32_t)DMAx + CHANNEL_OFFSET_TAB[Channel - 1U])))->CPAR, PeriphAddress);
 80031a8:	609c      	str	r4, [r3, #8]
  LL_DMA_SetDataLength(DMAx, pHandle->pParams_str->DMASamplingPtChannelX, DMA_TRANSFER_LENGTH_SAMPLING_POINT);
 80031aa:	2203      	movs	r2, #3
 80031ac:	f7ff fc1e 	bl	80029ec <LL_DMA_SetDataLength>
  LL_DMA_EnableIT_TC(DMAx, pHandle->pParams_str->DMAChannelX);
 80031b0:	0039      	movs	r1, r7
 80031b2:	9801      	ldr	r0, [sp, #4]
 80031b4:	f7ff fc28 	bl	8002a08 <LL_DMA_EnableIT_TC>
  LL_DMA_SetMemoryAddress(DMAx, pHandle->pParams_str->DMA_ADC_DR_ChannelX, (uint32_t)pHandle->CurConv);
 80031b8:	69b1      	ldr	r1, [r6, #24]
  WRITE_REG(((DMA_Channel_TypeDef *)((uint32_t)((uint32_t)DMAx + CHANNEL_OFFSET_TAB[Channel - 1U])))->CMAR, MemoryAddress);
 80031ba:	9b03      	ldr	r3, [sp, #12]
 80031bc:	9801      	ldr	r0, [sp, #4]
 80031be:	185b      	adds	r3, r3, r1
 80031c0:	3b01      	subs	r3, #1
 80031c2:	9a02      	ldr	r2, [sp, #8]
 80031c4:	781b      	ldrb	r3, [r3, #0]
 80031c6:	32b4      	adds	r2, #180	; 0xb4
 80031c8:	181b      	adds	r3, r3, r0
 80031ca:	60da      	str	r2, [r3, #12]
  LL_DMA_SetPeriphAddress(DMAx, pHandle->pParams_str->DMA_ADC_DR_ChannelX, (uint32_t)&ADCx->DR);
 80031cc:	002a      	movs	r2, r5
 80031ce:	3240      	adds	r2, #64	; 0x40
  WRITE_REG(((DMA_Channel_TypeDef *)((uint32_t)((uint32_t)DMAx + CHANNEL_OFFSET_TAB[Channel - 1U])))->CPAR, PeriphAddress);
 80031d0:	609a      	str	r2, [r3, #8]
  LL_DMA_SetDataLength(DMAx, pHandle->pParams_str->DMA_ADC_DR_ChannelX, DMA_TRANSFER_LENGTH_ADC);
 80031d2:	2202      	movs	r2, #2
 80031d4:	f7ff fc0a 	bl	80029ec <LL_DMA_SetDataLength>
  * @param  ADCx ADC instance
  * @retval None
  */
__STATIC_INLINE void LL_ADC_DisableIT_EOC(ADC_TypeDef *ADCx)
{
  CLEAR_BIT(ADCx->IER, LL_ADC_IT_EOC);
 80031d8:	2204      	movs	r2, #4
  * @param  ADCx ADC instance
  * @retval None
  */
__STATIC_INLINE void LL_ADC_DisableIT_EOS(ADC_TypeDef *ADCx)
{
  CLEAR_BIT(ADCx->IER, LL_ADC_IT_EOS);
 80031da:	2108      	movs	r1, #8
  CLEAR_BIT(ADCx->IER, LL_ADC_IT_EOC);
 80031dc:	686b      	ldr	r3, [r5, #4]
  MODIFY_REG(ADCx->CR,
 80031de:	482c      	ldr	r0, [pc, #176]	; (8003290 <R1_Init+0x1e0>)
  CLEAR_BIT(ADCx->IER, LL_ADC_IT_EOC);
 80031e0:	4393      	bics	r3, r2
 80031e2:	606b      	str	r3, [r5, #4]
  WRITE_REG(ADCx->ISR, LL_ADC_FLAG_EOC);
 80031e4:	602a      	str	r2, [r5, #0]
  CLEAR_BIT(ADCx->IER, LL_ADC_IT_EOS);
 80031e6:	686b      	ldr	r3, [r5, #4]
  return (READ_BIT(ADCx->CR, ADC_CR_ADSTP) == (ADC_CR_ADSTP));
 80031e8:	2710      	movs	r7, #16
  CLEAR_BIT(ADCx->IER, LL_ADC_IT_EOS);
 80031ea:	438b      	bics	r3, r1
 80031ec:	606b      	str	r3, [r5, #4]
  WRITE_REG(ADCx->ISR, LL_ADC_FLAG_EOS);
 80031ee:	6029      	str	r1, [r5, #0]
  MODIFY_REG(ADCx->CR,
 80031f0:	2180      	movs	r1, #128	; 0x80
 80031f2:	4b28      	ldr	r3, [pc, #160]	; (8003294 <R1_Init+0x1e4>)
 80031f4:	0609      	lsls	r1, r1, #24
 80031f6:	689c      	ldr	r4, [r3, #8]
 80031f8:	4004      	ands	r4, r0
 80031fa:	4321      	orrs	r1, r4
 80031fc:	6099      	str	r1, [r3, #8]
  return (READ_BIT(ADCx->CR, ADC_CR_ADDIS) == (ADC_CR_ADDIS));
 80031fe:	2102      	movs	r1, #2
  return (READ_BIT(ADCx->CR, ADC_CR_ADCAL) == (ADC_CR_ADCAL));
 8003200:	689c      	ldr	r4, [r3, #8]
         (LL_ADC_REG_IsStopConversionOngoing(ADC1) == SET) ||
 8003202:	2c00      	cmp	r4, #0
 8003204:	dbfc      	blt.n	8003200 <R1_Init+0x150>
  return (READ_BIT(ADCx->CR, ADC_CR_ADSTART) == (ADC_CR_ADSTART));
 8003206:	689c      	ldr	r4, [r3, #8]
  while ((LL_ADC_IsCalibrationOnGoing(ADC1) == SET) ||
 8003208:	4214      	tst	r4, r2
 800320a:	d1f9      	bne.n	8003200 <R1_Init+0x150>
  return (READ_BIT(ADCx->CR, ADC_CR_ADSTP) == (ADC_CR_ADSTP));
 800320c:	689c      	ldr	r4, [r3, #8]
         (LL_ADC_REG_IsConversionOngoing(ADC1) == SET) ||
 800320e:	423c      	tst	r4, r7
 8003210:	d1f6      	bne.n	8003200 <R1_Init+0x150>
  return (READ_BIT(ADCx->CR, ADC_CR_ADDIS) == (ADC_CR_ADDIS));
 8003212:	689c      	ldr	r4, [r3, #8]
         (LL_ADC_REG_IsStopConversionOngoing(ADC1) == SET) ||
 8003214:	420c      	tst	r4, r1
 8003216:	d1f3      	bne.n	8003200 <R1_Init+0x150>
  MODIFY_REG(ADCx->CR,
 8003218:	2201      	movs	r2, #1
  MODIFY_REG(ADCx->CFGR1, ADC_CFGR1_DMAEN | ADC_CFGR1_DMACFG, DMATransfer);
 800321a:	2403      	movs	r4, #3
  MODIFY_REG(ADCx->CR,
 800321c:	6899      	ldr	r1, [r3, #8]
 800321e:	4001      	ands	r1, r0
 8003220:	4311      	orrs	r1, r2
 8003222:	6099      	str	r1, [r3, #8]
  MODIFY_REG(ADCx->CFGR1, ADC_CFGR1_EXTEN | ADC_CFGR1_EXTSEL, TriggerSource);
 8003224:	68e9      	ldr	r1, [r5, #12]
 8003226:	481c      	ldr	r0, [pc, #112]	; (8003298 <R1_Init+0x1e8>)
 8003228:	4001      	ands	r1, r0
 800322a:	60e9      	str	r1, [r5, #12]
  MODIFY_REG(ADCx->CFGR1, ADC_CFGR1_DMAEN | ADC_CFGR1_DMACFG, DMATransfer);
 800322c:	68d9      	ldr	r1, [r3, #12]
 800322e:	43a1      	bics	r1, r4
 8003230:	4311      	orrs	r1, r2
 8003232:	60d9      	str	r1, [r3, #12]
  return (READ_BIT(ADCx->ISR, LL_ADC_FLAG_ADRDY) == (LL_ADC_FLAG_ADRDY));
 8003234:	6819      	ldr	r1, [r3, #0]
  while (LL_ADC_IsActiveFlag_ADRDY(ADC1) == RESET)
 8003236:	4211      	tst	r1, r2
 8003238:	d0fc      	beq.n	8003234 <R1_Init+0x184>
  MODIFY_REG(ADCx->CFGR1, ADC_CFGR1_EXTEN | ADC_CFGR1_EXTSEL, TriggerSource);
 800323a:	2380      	movs	r3, #128	; 0x80
 800323c:	68e9      	ldr	r1, [r5, #12]
 800323e:	00db      	lsls	r3, r3, #3
 8003240:	4001      	ands	r1, r0
 8003242:	430b      	orrs	r3, r1
  LL_ADC_REG_SetSequencerChannels (ADCx, __LL_ADC_DECIMAL_NB_TO_CHANNEL (pHandle->pParams_str->IChannel));
 8003244:	0011      	movs	r1, r2
 8003246:	60eb      	str	r3, [r5, #12]
 8003248:	3603      	adds	r6, #3
 800324a:	7ff3      	ldrb	r3, [r6, #31]
 800324c:	4099      	lsls	r1, r3
  WRITE_REG(ADCx->CHSELR, (Channel & ADC_CHANNEL_ID_BITFIELD_MASK));
 800324e:	034b      	lsls	r3, r1, #13
 8003250:	0b5b      	lsrs	r3, r3, #13
 8003252:	62ab      	str	r3, [r5, #40]	; 0x28
  SET_BIT(TIMx->CR1, TIM_CR1_CEN);
 8003254:	4b11      	ldr	r3, [pc, #68]	; (800329c <R1_Init+0x1ec>)
 8003256:	6819      	ldr	r1, [r3, #0]
 8003258:	430a      	orrs	r2, r1
 800325a:	601a      	str	r2, [r3, #0]
  pHandle->ADCRegularLocked=false; /* We allow ADC usage for regular conversion on Systick */
 800325c:	2200      	movs	r2, #0
 800325e:	9b02      	ldr	r3, [sp, #8]
 8003260:	33ca      	adds	r3, #202	; 0xca
 8003262:	701a      	strb	r2, [r3, #0]
  pHandle->_Super.DTTest = 0u;
 8003264:	9b02      	ldr	r3, [sp, #8]
 8003266:	3370      	adds	r3, #112	; 0x70
 8003268:	801a      	strh	r2, [r3, #0]
}
 800326a:	b007      	add	sp, #28
 800326c:	bdf0      	pop	{r4, r5, r6, r7, pc}
 800326e:	46c0      	nop			; (mov r8, r8)
 8003270:	40021000 	.word	0x40021000
 8003274:	40015800 	.word	0x40015800
 8003278:	ffff800f 	.word	0xffff800f
 800327c:	00000555 	.word	0x00000555
 8003280:	080068f3 	.word	0x080068f3
 8003284:	000035b0 	.word	0x000035b0
 8003288:	ffffe0e0 	.word	0xffffe0e0
 800328c:	0000020d 	.word	0x0000020d
 8003290:	7fffffe8 	.word	0x7fffffe8
 8003294:	40012400 	.word	0x40012400
 8003298:	fffff23f 	.word	0xfffff23f
 800329c:	40012c00 	.word	0x40012c00

080032a0 <R1_SetOffsetCalib>:
  pHandle->PhaseOffset = offsets->phaseAOffset;
 80032a0:	0003      	movs	r3, r0
 80032a2:	680a      	ldr	r2, [r1, #0]
 80032a4:	33a0      	adds	r3, #160	; 0xa0
 80032a6:	601a      	str	r2, [r3, #0]
  pHdl->offsetCalibStatus = true;
 80032a8:	2301      	movs	r3, #1
 80032aa:	3081      	adds	r0, #129	; 0x81
 80032ac:	7003      	strb	r3, [r0, #0]
}
 80032ae:	4770      	bx	lr

080032b0 <R1_GetOffsetCalib>:
  offsets->phaseAOffset = pHandle->PhaseOffset;
 80032b0:	30a0      	adds	r0, #160	; 0xa0
 80032b2:	6803      	ldr	r3, [r0, #0]
 80032b4:	600b      	str	r3, [r1, #0]
}
 80032b6:	4770      	bx	lr

080032b8 <R1_TurnOnLowSides>:
  TIM_TypeDef *TIMx = pHandle->pParams_str->TIMx;
 80032b8:	0003      	movs	r3, r0
{
 80032ba:	b510      	push	{r4, lr}
  pHandle->_Super.TurnOnLowSidesAction = true;
 80032bc:	0004      	movs	r4, r0
 80032be:	2201      	movs	r2, #1
  TIM_TypeDef *TIMx = pHandle->pParams_str->TIMx;
 80032c0:	33cc      	adds	r3, #204	; 0xcc
 80032c2:	681b      	ldr	r3, [r3, #0]
  pHandle->_Super.TurnOnLowSidesAction = true;
 80032c4:	347e      	adds	r4, #126	; 0x7e
  TIM_TypeDef *TIMx = pHandle->pParams_str->TIMx;
 80032c6:	685b      	ldr	r3, [r3, #4]
  pHandle->_Super.TurnOnLowSidesAction = true;
 80032c8:	7022      	strb	r2, [r4, #0]
  WRITE_REG(TIMx->CCR1, CompareValue);
 80032ca:	6359      	str	r1, [r3, #52]	; 0x34
  WRITE_REG(TIMx->CCR2, CompareValue);
 80032cc:	6399      	str	r1, [r3, #56]	; 0x38
  WRITE_REG(TIMx->CCR3, CompareValue);
 80032ce:	63d9      	str	r1, [r3, #60]	; 0x3c
  WRITE_REG(TIMx->SR, ~(TIM_SR_UIF));
 80032d0:	2102      	movs	r1, #2
 80032d2:	4249      	negs	r1, r1
 80032d4:	6119      	str	r1, [r3, #16]
  return ((READ_BIT(TIMx->SR, TIM_SR_UIF) == (TIM_SR_UIF)) ? 1UL : 0UL);
 80032d6:	6919      	ldr	r1, [r3, #16]
 80032d8:	4211      	tst	r1, r2
 80032da:	d0fc      	beq.n	80032d6 <R1_TurnOnLowSides+0x1e>
  SET_BIT(TIMx->BDTR, TIM_BDTR_MOE);
 80032dc:	2280      	movs	r2, #128	; 0x80
 80032de:	6c59      	ldr	r1, [r3, #68]	; 0x44
 80032e0:	0212      	lsls	r2, r2, #8
 80032e2:	430a      	orrs	r2, r1
 80032e4:	645a      	str	r2, [r3, #68]	; 0x44
  if ((pHandle->_Super.LowSideOutputs) == ES_GPIO)
 80032e6:	0003      	movs	r3, r0
 80032e8:	337d      	adds	r3, #125	; 0x7d
 80032ea:	781b      	ldrb	r3, [r3, #0]
 80032ec:	2b02      	cmp	r3, #2
 80032ee:	d10d      	bne.n	800330c <R1_TurnOnLowSides+0x54>
    LL_GPIO_SetOutputPin(pHandle->_Super.pwm_en_u_port, pHandle->_Super.pwm_en_u_pin);
 80032f0:	0002      	movs	r2, r0
 80032f2:	3248      	adds	r2, #72	; 0x48
 80032f4:	6bc3      	ldr	r3, [r0, #60]	; 0x3c
 80032f6:	8812      	ldrh	r2, [r2, #0]
  WRITE_REG(GPIOx->BSRR, PinMask);
 80032f8:	619a      	str	r2, [r3, #24]
    LL_GPIO_SetOutputPin(pHandle->_Super.pwm_en_v_port, pHandle->_Super.pwm_en_v_pin);
 80032fa:	0002      	movs	r2, r0
 80032fc:	324a      	adds	r2, #74	; 0x4a
 80032fe:	6c03      	ldr	r3, [r0, #64]	; 0x40
 8003300:	8812      	ldrh	r2, [r2, #0]
 8003302:	619a      	str	r2, [r3, #24]
    LL_GPIO_SetOutputPin(pHandle->_Super.pwm_en_w_port, pHandle->_Super.pwm_en_w_pin);
 8003304:	6c43      	ldr	r3, [r0, #68]	; 0x44
 8003306:	304c      	adds	r0, #76	; 0x4c
 8003308:	8802      	ldrh	r2, [r0, #0]
 800330a:	619a      	str	r2, [r3, #24]
}
 800330c:	bd10      	pop	{r4, pc}
	...

08003310 <R1_SwitchOnPWM>:
  TIM_TypeDef *TIMx = pHandle->pParams_str->TIMx;
 8003310:	234c      	movs	r3, #76	; 0x4c
 8003312:	469c      	mov	ip, r3
 8003314:	0003      	movs	r3, r0
{
 8003316:	b5f0      	push	{r4, r5, r6, r7, lr}
  TIM_TypeDef *TIMx = pHandle->pParams_str->TIMx;
 8003318:	33cc      	adds	r3, #204	; 0xcc
 800331a:	681b      	ldr	r3, [r3, #0]
{
 800331c:	b089      	sub	sp, #36	; 0x24
  TIM_TypeDef *TIMx = pHandle->pParams_str->TIMx;
 800331e:	9300      	str	r3, [sp, #0]
  ADC_TypeDef *ADCx = pHandle->pParams_str->ADCx;
 8003320:	cb18      	ldmia	r3, {r3, r4}
 8003322:	9307      	str	r3, [sp, #28]
  DMA_TypeDef *DMAx = pHandle->pParams_str->DMAx;
 8003324:	9b00      	ldr	r3, [sp, #0]
{
 8003326:	0007      	movs	r7, r0
  DMA_TypeDef *DMAx = pHandle->pParams_str->DMAx;
 8003328:	689d      	ldr	r5, [r3, #8]
  pHandle->CntSmp1 = ((uint32_t)(pHandle->Half_PWMPeriod) >> 1)
 800332a:	0003      	movs	r3, r0
 800332c:	33b8      	adds	r3, #184	; 0xb8
 800332e:	8819      	ldrh	r1, [r3, #0]
  TIM_TypeDef *TIMx = pHandle->pParams_str->TIMx;
 8003330:	4484      	add	ip, r0
                   - (uint32_t)(pHandle->pParams_str->hTADConv + pHandle->pParams_str->TSample);
 8003332:	9b00      	ldr	r3, [sp, #0]
 8003334:	9800      	ldr	r0, [sp, #0]
 8003336:	8c1b      	ldrh	r3, [r3, #32]
 8003338:	8bc0      	ldrh	r0, [r0, #30]
 800333a:	084a      	lsrs	r2, r1, #1
 800333c:	181b      	adds	r3, r3, r0
 800333e:	b29b      	uxth	r3, r3
 8003340:	1ad0      	subs	r0, r2, r3
 8003342:	b280      	uxth	r0, r0
 8003344:	9002      	str	r0, [sp, #8]
  pHandle->CntSmp1 = ((uint32_t)(pHandle->Half_PWMPeriod) >> 1)
 8003346:	0038      	movs	r0, r7
 8003348:	9e02      	ldr	r6, [sp, #8]
                   + (uint32_t)(pHandle->pParams_str->hTADConv + pHandle->pParams_str->TSample);
 800334a:	18d3      	adds	r3, r2, r3
  pHandle->CntSmp1 = ((uint32_t)(pHandle->Half_PWMPeriod) >> 1)
 800334c:	30ba      	adds	r0, #186	; 0xba
                   + (uint32_t)(pHandle->pParams_str->hTADConv + pHandle->pParams_str->TSample);
 800334e:	b29b      	uxth	r3, r3
  pHandle->CntSmp1 = ((uint32_t)(pHandle->Half_PWMPeriod) >> 1)
 8003350:	8006      	strh	r6, [r0, #0]
  pHandle->CntSmp2 = ((uint32_t)(pHandle->Half_PWMPeriod) >> 1)
 8003352:	8043      	strh	r3, [r0, #2]
  pHandle->_Super.TurnOnLowSidesAction = false;
 8003354:	2600      	movs	r6, #0
 8003356:	383c      	subs	r0, #60	; 0x3c
  pHandle->DmaBuffCCR_ADCTrig[0] = pHandle->CntSmp2;
 8003358:	8603      	strh	r3, [r0, #48]	; 0x30
  pHandle->DmaBuffCCR_ADCTrig[2] = pHandle->CntSmp1;
 800335a:	003b      	movs	r3, r7
  pHandle->_Super.TurnOnLowSidesAction = false;
 800335c:	7006      	strb	r6, [r0, #0]
  pHandle->DmaBuffCCR_ADCTrig[2] = pHandle->CntSmp1;
 800335e:	9802      	ldr	r0, [sp, #8]
 8003360:	33b2      	adds	r3, #178	; 0xb2
 8003362:	8018      	strh	r0, [r3, #0]
  LL_TIM_OC_SetCompareCH4(TIMx, (uint32_t)(pHandle->Half_PWMPeriod + 1));
 8003364:	1c4b      	adds	r3, r1, #1
  WRITE_REG(TIMx->CCR4, CompareValue);
 8003366:	6423      	str	r3, [r4, #64]	; 0x40
 8003368:	9303      	str	r3, [sp, #12]
  SET_BIT(TIMx->BDTR, TIM_BDTR_MOE);
 800336a:	2380      	movs	r3, #128	; 0x80
  WRITE_REG(TIMx->CCR1, CompareValue);
 800336c:	6362      	str	r2, [r4, #52]	; 0x34
  WRITE_REG(TIMx->CCR2, CompareValue);
 800336e:	63a2      	str	r2, [r4, #56]	; 0x38
  WRITE_REG(TIMx->CCR3, CompareValue);
 8003370:	63e2      	str	r2, [r4, #60]	; 0x3c
  SET_BIT(TIMx->BDTR, TIM_BDTR_MOE);
 8003372:	6c62      	ldr	r2, [r4, #68]	; 0x44
 8003374:	021b      	lsls	r3, r3, #8
 8003376:	4313      	orrs	r3, r2
 8003378:	6463      	str	r3, [r4, #68]	; 0x44
  if ((pHandle->_Super.LowSideOutputs) == ES_GPIO)
 800337a:	003b      	movs	r3, r7
 800337c:	337d      	adds	r3, #125	; 0x7d
 800337e:	781b      	ldrb	r3, [r3, #0]
 8003380:	2b02      	cmp	r3, #2
 8003382:	d11c      	bne.n	80033be <R1_SwitchOnPWM+0xae>
    if ((TIMx->CCER & TIMxCCER_MASK_CH123) != 0u)
 8003384:	6a23      	ldr	r3, [r4, #32]
      LL_GPIO_SetOutputPin(pHandle->_Super.pwm_en_w_port, pHandle->_Super.pwm_en_w_pin);
 8003386:	4662      	mov	r2, ip
    if ((TIMx->CCER & TIMxCCER_MASK_CH123) != 0u)
 8003388:	9306      	str	r3, [sp, #24]
      LL_GPIO_SetOutputPin(pHandle->_Super.pwm_en_u_port, pHandle->_Super.pwm_en_u_pin);
 800338a:	003b      	movs	r3, r7
 800338c:	3348      	adds	r3, #72	; 0x48
 800338e:	881b      	ldrh	r3, [r3, #0]
 8003390:	6bfe      	ldr	r6, [r7, #60]	; 0x3c
 8003392:	9305      	str	r3, [sp, #20]
      LL_GPIO_SetOutputPin(pHandle->_Super.pwm_en_v_port, pHandle->_Super.pwm_en_v_pin);
 8003394:	003b      	movs	r3, r7
 8003396:	334a      	adds	r3, #74	; 0x4a
 8003398:	8818      	ldrh	r0, [r3, #0]
      LL_GPIO_SetOutputPin(pHandle->_Super.pwm_en_w_port, pHandle->_Super.pwm_en_w_pin);
 800339a:	6c7b      	ldr	r3, [r7, #68]	; 0x44
      LL_GPIO_SetOutputPin(pHandle->_Super.pwm_en_v_port, pHandle->_Super.pwm_en_v_pin);
 800339c:	6c39      	ldr	r1, [r7, #64]	; 0x40
      LL_GPIO_SetOutputPin(pHandle->_Super.pwm_en_w_port, pHandle->_Super.pwm_en_w_pin);
 800339e:	9301      	str	r3, [sp, #4]
 80033a0:	8813      	ldrh	r3, [r2, #0]
 80033a2:	9304      	str	r3, [sp, #16]
    if ((TIMx->CCER & TIMxCCER_MASK_CH123) != 0u)
 80033a4:	4b5f      	ldr	r3, [pc, #380]	; (8003524 <R1_SwitchOnPWM+0x214>)
 80033a6:	469c      	mov	ip, r3
 80033a8:	4662      	mov	r2, ip
 80033aa:	9b06      	ldr	r3, [sp, #24]
 80033ac:	4213      	tst	r3, r2
 80033ae:	d100      	bne.n	80033b2 <R1_SwitchOnPWM+0xa2>
 80033b0:	e0a9      	b.n	8003506 <R1_SwitchOnPWM+0x1f6>
 80033b2:	9b05      	ldr	r3, [sp, #20]
 80033b4:	9a04      	ldr	r2, [sp, #16]
 80033b6:	61b3      	str	r3, [r6, #24]
 80033b8:	9b01      	ldr	r3, [sp, #4]
 80033ba:	6188      	str	r0, [r1, #24]
 80033bc:	619a      	str	r2, [r3, #24]
  return (uint32_t)(READ_BIT(TIMx->CR1, TIM_CR1_DIR));
 80033be:	2310      	movs	r3, #16
 80033c0:	6822      	ldr	r2, [r4, #0]
  if (LL_TIM_COUNTERDIRECTION_UP == LL_TIM_GetDirection(TIMx))
 80033c2:	421a      	tst	r2, r3
 80033c4:	d000      	beq.n	80033c8 <R1_SwitchOnPWM+0xb8>
 80033c6:	e0a5      	b.n	8003514 <R1_SwitchOnPWM+0x204>
 80033c8:	6822      	ldr	r2, [r4, #0]
    while (LL_TIM_COUNTERDIRECTION_UP == LL_TIM_GetDirection(TIMx))
 80033ca:	421a      	tst	r2, r3
 80033cc:	d0fc      	beq.n	80033c8 <R1_SwitchOnPWM+0xb8>
  LL_DMA_ClearFlag_TC(DMAx, pHandle->pParams_str->DMAChannelX);
 80033ce:	9b00      	ldr	r3, [sp, #0]
 80033d0:	68db      	ldr	r3, [r3, #12]
 80033d2:	9301      	str	r3, [sp, #4]
/* Make this define visible for all projects */
#define NBR_OF_MOTORS             1

__STATIC_INLINE void LL_DMA_ClearFlag_TC(DMA_TypeDef *DMAx, uint32_t Channel)
{
  if (NULL == DMAx)
 80033d4:	2d00      	cmp	r5, #0
 80033d6:	d007      	beq.n	80033e8 <R1_SwitchOnPWM+0xd8>
    /* Nothing to do */
  }
  else
  {
    /* Clear TC bits with bits position depending on parameter "Channel" */
    WRITE_REG (DMAx->IFCR, DMA_IFCR_CTCIF1 << ((Channel-LL_DMA_CHANNEL_1)<<2));
 80033d8:	2202      	movs	r2, #2
 80033da:	3b01      	subs	r3, #1
 80033dc:	009b      	lsls	r3, r3, #2
 80033de:	409a      	lsls	r2, r3
 80033e0:	606a      	str	r2, [r5, #4]
    /* Nothing to do */
  }
  else
  {
    /* Clear HT bits with bits position depending on parameter "Channel" */
    WRITE_REG (DMAx->IFCR, DMA_IFCR_CHTIF1 << ((Channel-LL_DMA_CHANNEL_1)<<2));
 80033e2:	2204      	movs	r2, #4
 80033e4:	409a      	lsls	r2, r3
 80033e6:	606a      	str	r2, [r5, #4]
  LL_DMA_ClearFlag_TC(DMAx, pHandle->pParams_str->DMASamplingPtChannelX);
 80033e8:	9b00      	ldr	r3, [sp, #0]
 80033ea:	691e      	ldr	r6, [r3, #16]
  if (NULL == DMAx)
 80033ec:	2d00      	cmp	r5, #0
 80033ee:	d007      	beq.n	8003400 <R1_SwitchOnPWM+0xf0>
    WRITE_REG (DMAx->IFCR, DMA_IFCR_CTCIF1 << ((Channel-LL_DMA_CHANNEL_1)<<2));
 80033f0:	2202      	movs	r2, #2
 80033f2:	1e73      	subs	r3, r6, #1
 80033f4:	009b      	lsls	r3, r3, #2
 80033f6:	409a      	lsls	r2, r3
 80033f8:	606a      	str	r2, [r5, #4]
    WRITE_REG (DMAx->IFCR, DMA_IFCR_CHTIF1 << ((Channel-LL_DMA_CHANNEL_1)<<2));
 80033fa:	2204      	movs	r2, #4
 80033fc:	409a      	lsls	r2, r3
 80033fe:	606a      	str	r2, [r5, #4]
  pHandle->TCCnt = 0;
 8003400:	003a      	movs	r2, r7
  WRITE_REG(TIMx->SR, ~(TIM_SR_UIF));
 8003402:	2302      	movs	r3, #2
  pHandle->TCDoneFlag = false;
 8003404:	0039      	movs	r1, r7
 8003406:	425b      	negs	r3, r3
  pHandle->TCCnt = 0;
 8003408:	32c6      	adds	r2, #198	; 0xc6
 800340a:	6123      	str	r3, [r4, #16]
 800340c:	0013      	movs	r3, r2
 800340e:	2200      	movs	r2, #0
  pHandle->TCDoneFlag = false;
 8003410:	31c9      	adds	r1, #201	; 0xc9
  pHandle->TCCnt = 0;
 8003412:	701a      	strb	r2, [r3, #0]
  LL_DMA_SetDataLength(DMAx, pHandle->pParams_str->DMAChannelX, DMA_TRANSFER_LENGTH_CCR);
 8003414:	0028      	movs	r0, r5
  pHandle->TCDoneFlag = false;
 8003416:	700a      	strb	r2, [r1, #0]
  LL_DMA_SetDataLength(DMAx, pHandle->pParams_str->DMAChannelX, DMA_TRANSFER_LENGTH_CCR);
 8003418:	3206      	adds	r2, #6
 800341a:	9901      	ldr	r1, [sp, #4]
 800341c:	f7ff fae6 	bl	80029ec <LL_DMA_SetDataLength>
  LL_DMA_EnableChannel(DMAx, pHandle->pParams_str->DMAChannelX);
 8003420:	0028      	movs	r0, r5
 8003422:	9901      	ldr	r1, [sp, #4]
 8003424:	f7ff faca 	bl	80029bc <LL_DMA_EnableChannel>
  SET_BIT(TIMx->DIER, TIM_DIER_UDE);
 8003428:	2380      	movs	r3, #128	; 0x80
 800342a:	68e2      	ldr	r2, [r4, #12]
 800342c:	005b      	lsls	r3, r3, #1
 800342e:	4313      	orrs	r3, r2
 8003430:	60e3      	str	r3, [r4, #12]
  SET_BIT(TIMx->DIER, TIM_DIER_CC4DE);
 8003432:	2380      	movs	r3, #128	; 0x80
 8003434:	68e2      	ldr	r2, [r4, #12]
 8003436:	015b      	lsls	r3, r3, #5
 8003438:	4313      	orrs	r3, r2
 800343a:	60e3      	str	r3, [r4, #12]
  LL_DMA_SetDataLength(DMAx, pHandle->pParams_str->DMASamplingPtChannelX, 3);
 800343c:	2203      	movs	r2, #3
 800343e:	0031      	movs	r1, r6
 8003440:	0028      	movs	r0, r5
 8003442:	f7ff fad3 	bl	80029ec <LL_DMA_SetDataLength>
  LL_DMA_EnableChannel(DMAx, pHandle->pParams_str->DMASamplingPtChannelX);
 8003446:	0031      	movs	r1, r6
 8003448:	0028      	movs	r0, r5
 800344a:	f7ff fab7 	bl	80029bc <LL_DMA_EnableChannel>
  WRITE_REG(TIMx->CCR4, CompareValue);
 800344e:	9903      	ldr	r1, [sp, #12]
  LL_DMA_DisableChannel(DMAx, pHandle->pParams_str->DMA_ADC_DR_ChannelX);
 8003450:	0028      	movs	r0, r5
 8003452:	6421      	str	r1, [r4, #64]	; 0x40
 8003454:	9900      	ldr	r1, [sp, #0]
 8003456:	698e      	ldr	r6, [r1, #24]
 8003458:	0031      	movs	r1, r6
 800345a:	f7ff fabb 	bl	80029d4 <LL_DMA_DisableChannel>
  LL_DMA_SetDataLength(DMAx, pHandle->pParams_str->DMA_ADC_DR_ChannelX, DMA_TRANSFER_LENGTH_ADC);
 800345e:	2202      	movs	r2, #2
 8003460:	0031      	movs	r1, r6
 8003462:	0028      	movs	r0, r5
 8003464:	f7ff fac2 	bl	80029ec <LL_DMA_SetDataLength>
  LL_DMA_EnableChannel(DMAx, pHandle->pParams_str->DMA_ADC_DR_ChannelX);
 8003468:	0031      	movs	r1, r6
 800346a:	0028      	movs	r0, r5
 800346c:	f7ff faa6 	bl	80029bc <LL_DMA_EnableChannel>
  LL_ADC_REG_SetSequencerChannels (ADCx, __LL_ADC_DECIMAL_NB_TO_CHANNEL (pHandle->pParams_str->IChannel));
 8003470:	9900      	ldr	r1, [sp, #0]
  LL_ADC_SetSamplingTimeCommonChannels (ADC1, pHandle->pParams_str->ISamplingTime);
 8003472:	9800      	ldr	r0, [sp, #0]
  LL_ADC_REG_SetSequencerChannels (ADCx, __LL_ADC_DECIMAL_NB_TO_CHANNEL (pHandle->pParams_str->IChannel));
 8003474:	1ccb      	adds	r3, r1, #3
 8003476:	2101      	movs	r1, #1
 8003478:	7fdb      	ldrb	r3, [r3, #31]
  MODIFY_REG(ADCx->SMPR, ADC_SMPR_SMP, SamplingTime);
 800347a:	4a2b      	ldr	r2, [pc, #172]	; (8003528 <R1_SwitchOnPWM+0x218>)
 800347c:	4099      	lsls	r1, r3
  WRITE_REG(ADCx->CHSELR, (Channel & ADC_CHANNEL_ID_BITFIELD_MASK));
 800347e:	034b      	lsls	r3, r1, #13
 8003480:	9907      	ldr	r1, [sp, #28]
 8003482:	0b5b      	lsrs	r3, r3, #13
 8003484:	628b      	str	r3, [r1, #40]	; 0x28
  LL_ADC_SetSamplingTimeCommonChannels (ADC1, pHandle->pParams_str->ISamplingTime);
 8003486:	1d03      	adds	r3, r0, #4
  MODIFY_REG(ADCx->SMPR, ADC_SMPR_SMP, SamplingTime);
 8003488:	2007      	movs	r0, #7
 800348a:	6951      	ldr	r1, [r2, #20]
 800348c:	7fdb      	ldrb	r3, [r3, #31]
 800348e:	4381      	bics	r1, r0
 8003490:	430b      	orrs	r3, r1
  MODIFY_REG(ADCx->CFGR1, ADC_CFGR1_DMAEN | ADC_CFGR1_DMACFG, DMATransfer);
 8003492:	2103      	movs	r1, #3
  MODIFY_REG(ADCx->SMPR, ADC_SMPR_SMP, SamplingTime);
 8003494:	6153      	str	r3, [r2, #20]
  MODIFY_REG(ADCx->CFGR1, ADC_CFGR1_DMAEN | ADC_CFGR1_DMACFG, DMATransfer);
 8003496:	68d3      	ldr	r3, [r2, #12]
 8003498:	3806      	subs	r0, #6
 800349a:	438b      	bics	r3, r1
 800349c:	4303      	orrs	r3, r0
 800349e:	60d3      	str	r3, [r2, #12]
  MODIFY_REG(ADCx->CFGR1, ADC_CFGR1_EXTEN | ADC_CFGR1_EXTSEL, TriggerSource);
 80034a0:	68d1      	ldr	r1, [r2, #12]
 80034a2:	4b22      	ldr	r3, [pc, #136]	; (800352c <R1_SwitchOnPWM+0x21c>)
 80034a4:	4019      	ands	r1, r3
 80034a6:	2388      	movs	r3, #136	; 0x88
 80034a8:	00db      	lsls	r3, r3, #3
 80034aa:	430b      	orrs	r3, r1
 80034ac:	60d3      	str	r3, [r2, #12]
  MODIFY_REG(ADCx->CR,
 80034ae:	6891      	ldr	r1, [r2, #8]
 80034b0:	4b1f      	ldr	r3, [pc, #124]	; (8003530 <R1_SwitchOnPWM+0x220>)
 80034b2:	4019      	ands	r1, r3
 80034b4:	2304      	movs	r3, #4
 80034b6:	430b      	orrs	r3, r1
 80034b8:	6093      	str	r3, [r2, #8]
  MODIFY_REG(TIMx->CR2, TIM_CR2_MMS, TimerSynchronization);
 80034ba:	2270      	movs	r2, #112	; 0x70
 80034bc:	6863      	ldr	r3, [r4, #4]
  pHandle->FOCDurationFlag = false;
 80034be:	0039      	movs	r1, r7
 80034c0:	4313      	orrs	r3, r2
 80034c2:	2200      	movs	r2, #0
 80034c4:	31c8      	adds	r1, #200	; 0xc8
  pHandle->ADCRegularLocked=true;
 80034c6:	37ca      	adds	r7, #202	; 0xca
 80034c8:	6063      	str	r3, [r4, #4]
  pHandle->FOCDurationFlag = false;
 80034ca:	700a      	strb	r2, [r1, #0]
  LL_DMA_EnableIT_TC(DMAx, pHandle->pParams_str->DMAChannelX);
 80034cc:	9901      	ldr	r1, [sp, #4]
  pHandle->ADCRegularLocked=true;
 80034ce:	7038      	strb	r0, [r7, #0]
  LL_DMA_EnableIT_TC(DMAx, pHandle->pParams_str->DMAChannelX);
 80034d0:	0028      	movs	r0, r5
 80034d2:	f7ff fa99 	bl	8002a08 <LL_DMA_EnableIT_TC>
  LL_DMA_EnableIT_TC(DMAx, pHandle->pParams_str->DMA_ADC_DR_ChannelX);
 80034d6:	0031      	movs	r1, r6
 80034d8:	0028      	movs	r0, r5
 80034da:	f7ff fa95 	bl	8002a08 <LL_DMA_EnableIT_TC>
  WRITE_REG(TIMx->SR, ~(TIM_SR_UIF));
 80034de:	2302      	movs	r3, #2
 80034e0:	425b      	negs	r3, r3
 80034e2:	6123      	str	r3, [r4, #16]
  return (uint32_t)(READ_BIT(TIMx->CR1, TIM_CR1_DIR));
 80034e4:	3312      	adds	r3, #18
  return ((READ_BIT(TIMx->SR, TIM_SR_UIF) == (TIM_SR_UIF)) ? 1UL : 0UL);
 80034e6:	2101      	movs	r1, #1
 80034e8:	6922      	ldr	r2, [r4, #16]
 80034ea:	420a      	tst	r2, r1
 80034ec:	d0fb      	beq.n	80034e6 <R1_SwitchOnPWM+0x1d6>
  return (uint32_t)(READ_BIT(TIMx->CR1, TIM_CR1_DIR));
 80034ee:	6822      	ldr	r2, [r4, #0]
  while ((LL_TIM_IsActiveFlag_UPDATE(TIMx) == RESET) || (LL_TIM_GetDirection(TIMx) == LL_TIM_COUNTERDIRECTION_DOWN))
 80034f0:	421a      	tst	r2, r3
 80034f2:	d1f8      	bne.n	80034e6 <R1_SwitchOnPWM+0x1d6>
  SET_BIT(TIMx->DIER, TIM_DIER_UIE);
 80034f4:	000f      	movs	r7, r1
 80034f6:	4b0f      	ldr	r3, [pc, #60]	; (8003534 <R1_SwitchOnPWM+0x224>)
 80034f8:	68da      	ldr	r2, [r3, #12]
 80034fa:	4317      	orrs	r7, r2
 80034fc:	60df      	str	r7, [r3, #12]
  WRITE_REG(TIMx->CCR4, CompareValue);
 80034fe:	9b02      	ldr	r3, [sp, #8]
 8003500:	6423      	str	r3, [r4, #64]	; 0x40
}
 8003502:	b009      	add	sp, #36	; 0x24
 8003504:	bdf0      	pop	{r4, r5, r6, r7, pc}
  WRITE_REG(GPIOx->BRR, PinMask);
 8003506:	9b05      	ldr	r3, [sp, #20]
 8003508:	9a04      	ldr	r2, [sp, #16]
 800350a:	62b3      	str	r3, [r6, #40]	; 0x28
 800350c:	9b01      	ldr	r3, [sp, #4]
 800350e:	6288      	str	r0, [r1, #40]	; 0x28
 8003510:	629a      	str	r2, [r3, #40]	; 0x28
}
 8003512:	e754      	b.n	80033be <R1_SwitchOnPWM+0xae>
  return (uint32_t)(READ_BIT(TIMx->CR1, TIM_CR1_DIR));
 8003514:	6822      	ldr	r2, [r4, #0]
    while (LL_TIM_COUNTERDIRECTION_DOWN == LL_TIM_GetDirection(TIMx))
 8003516:	421a      	tst	r2, r3
 8003518:	d1fc      	bne.n	8003514 <R1_SwitchOnPWM+0x204>
 800351a:	2310      	movs	r3, #16
 800351c:	6822      	ldr	r2, [r4, #0]
    while (LL_TIM_COUNTERDIRECTION_UP == LL_TIM_GetDirection(TIMx))
 800351e:	421a      	tst	r2, r3
 8003520:	d0fc      	beq.n	800351c <R1_SwitchOnPWM+0x20c>
 8003522:	e754      	b.n	80033ce <R1_SwitchOnPWM+0xbe>
 8003524:	00000555 	.word	0x00000555
 8003528:	40012400 	.word	0x40012400
 800352c:	fffff23f 	.word	0xfffff23f
 8003530:	7fffffe8 	.word	0x7fffffe8
 8003534:	40012c00 	.word	0x40012c00

08003538 <R1_SwitchOffPWM>:
  TIM_TypeDef *TIMx = pHandle->pParams_str->TIMx;
 8003538:	0003      	movs	r3, r0
{
 800353a:	b5f0      	push	{r4, r5, r6, r7, lr}
 800353c:	0004      	movs	r4, r0
  TIM_TypeDef *TIMx = pHandle->pParams_str->TIMx;
 800353e:	33cc      	adds	r3, #204	; 0xcc
 8003540:	681f      	ldr	r7, [r3, #0]
  pHandle->CntSmp1 = ((uint32_t)(pHandle->Half_PWMPeriod) >> 1)
 8003542:	3b14      	subs	r3, #20
 8003544:	881b      	ldrh	r3, [r3, #0]
{
 8003546:	b085      	sub	sp, #20
  pHandle->CntSmp1 = ((uint32_t)(pHandle->Half_PWMPeriod) >> 1)
 8003548:	9300      	str	r3, [sp, #0]
                   - (uint32_t)(pHandle->pParams_str->hTADConv + pHandle->pParams_str->TSample);
 800354a:	8bf9      	ldrh	r1, [r7, #30]
 800354c:	085a      	lsrs	r2, r3, #1
 800354e:	8c3b      	ldrh	r3, [r7, #32]
  TIM_TypeDef *TIMx = pHandle->pParams_str->TIMx;
 8003550:	687d      	ldr	r5, [r7, #4]
                   - (uint32_t)(pHandle->pParams_str->hTADConv + pHandle->pParams_str->TSample);
 8003552:	185b      	adds	r3, r3, r1
 8003554:	b29b      	uxth	r3, r3
 8003556:	1ad1      	subs	r1, r2, r3
                   + (uint32_t)(pHandle->pParams_str->hTADConv + pHandle->pParams_str->TSample);
 8003558:	18d2      	adds	r2, r2, r3
 800355a:	b293      	uxth	r3, r2
                   - (uint32_t)(pHandle->pParams_str->hTADConv + pHandle->pParams_str->TSample);
 800355c:	b289      	uxth	r1, r1
 800355e:	9101      	str	r1, [sp, #4]
                   + (uint32_t)(pHandle->pParams_str->hTADConv + pHandle->pParams_str->TSample);
 8003560:	9302      	str	r3, [sp, #8]
  pHandle->CntSmp1 = ((uint32_t)(pHandle->Half_PWMPeriod) >> 1)
 8003562:	0001      	movs	r1, r0
  pHandle->CntSmp2 = ((uint32_t)(pHandle->Half_PWMPeriod) >> 1)
 8003564:	0023      	movs	r3, r4
 8003566:	9a02      	ldr	r2, [sp, #8]
  pHandle->CntSmp1 = ((uint32_t)(pHandle->Half_PWMPeriod) >> 1)
 8003568:	9801      	ldr	r0, [sp, #4]
  pHandle->CntSmp2 = ((uint32_t)(pHandle->Half_PWMPeriod) >> 1)
 800356a:	33bc      	adds	r3, #188	; 0xbc
  pHandle->CntSmp1 = ((uint32_t)(pHandle->Half_PWMPeriod) >> 1)
 800356c:	31ba      	adds	r1, #186	; 0xba
  DMA_TypeDef *DMAx = pHandle->pParams_str->DMAx;
 800356e:	68be      	ldr	r6, [r7, #8]
  pHandle->CntSmp1 = ((uint32_t)(pHandle->Half_PWMPeriod) >> 1)
 8003570:	8008      	strh	r0, [r1, #0]
  pHandle->CntSmp2 = ((uint32_t)(pHandle->Half_PWMPeriod) >> 1)
 8003572:	801a      	strh	r2, [r3, #0]
  CLEAR_BIT(TIMx->DIER, TIM_DIER_UIE);
 8003574:	2201      	movs	r2, #1
 8003576:	68eb      	ldr	r3, [r5, #12]
 8003578:	4393      	bics	r3, r2
 800357a:	60eb      	str	r3, [r5, #12]
  return (uint32_t)(READ_BIT(TIMx->CR1, TIM_CR1_DIR));
 800357c:	2310      	movs	r3, #16
 800357e:	682a      	ldr	r2, [r5, #0]
  if (LL_TIM_COUNTERDIRECTION_UP == LL_TIM_GetDirection(TIMx))
 8003580:	421a      	tst	r2, r3
 8003582:	d000      	beq.n	8003586 <R1_SwitchOffPWM+0x4e>
 8003584:	e076      	b.n	8003674 <R1_SwitchOffPWM+0x13c>
 8003586:	682a      	ldr	r2, [r5, #0]
    while (LL_TIM_COUNTERDIRECTION_UP == LL_TIM_GetDirection(TIMx))
 8003588:	421a      	tst	r2, r3
 800358a:	d0fc      	beq.n	8003586 <R1_SwitchOffPWM+0x4e>
  CLEAR_BIT(((DMA_Channel_TypeDef *)((uint32_t)((uint32_t)DMAx + CHANNEL_OFFSET_TAB[Channel - 1U])))->CCR, DMA_CCR_TCIE);
 800358c:	2102      	movs	r1, #2
  LL_DMA_DisableIT_TC(DMAx, pHandle->pParams_str->DMAChannelX);
 800358e:	68fb      	ldr	r3, [r7, #12]
 8003590:	9303      	str	r3, [sp, #12]
 8003592:	9a03      	ldr	r2, [sp, #12]
 8003594:	4b3b      	ldr	r3, [pc, #236]	; (8003684 <R1_SwitchOffPWM+0x14c>)
 8003596:	189b      	adds	r3, r3, r2
 8003598:	3b01      	subs	r3, #1
 800359a:	781b      	ldrb	r3, [r3, #0]
 800359c:	18f3      	adds	r3, r6, r3
 800359e:	681a      	ldr	r2, [r3, #0]
 80035a0:	438a      	bics	r2, r1
 80035a2:	601a      	str	r2, [r3, #0]
  *         @arg @ref LL_DMA_CHANNEL_7
  * @retval None
  */
__STATIC_INLINE void LL_DMA_DisableIT_HT(DMA_TypeDef *DMAx, uint32_t Channel)
{
  CLEAR_BIT(((DMA_Channel_TypeDef *)((uint32_t)((uint32_t)DMAx + CHANNEL_OFFSET_TAB[Channel - 1U])))->CCR, DMA_CCR_HTIE);
 80035a4:	681a      	ldr	r2, [r3, #0]
 80035a6:	1849      	adds	r1, r1, r1
 80035a8:	438a      	bics	r2, r1
 80035aa:	601a      	str	r2, [r3, #0]
  pHandle->_Super.TurnOnLowSidesAction = false;
 80035ac:	0023      	movs	r3, r4
 80035ae:	2200      	movs	r2, #0
 80035b0:	337e      	adds	r3, #126	; 0x7e
 80035b2:	701a      	strb	r2, [r3, #0]
  CLEAR_BIT(TIMx->BDTR, TIM_BDTR_MOE);
 80035b4:	6c6b      	ldr	r3, [r5, #68]	; 0x44
 80035b6:	4a34      	ldr	r2, [pc, #208]	; (8003688 <R1_SwitchOffPWM+0x150>)
 80035b8:	4013      	ands	r3, r2
 80035ba:	646b      	str	r3, [r5, #68]	; 0x44
  if (pHandle->_Super.BrakeActionLock == true)
 80035bc:	0023      	movs	r3, r4
 80035be:	3385      	adds	r3, #133	; 0x85
 80035c0:	781b      	ldrb	r3, [r3, #0]
 80035c2:	2b00      	cmp	r3, #0
 80035c4:	d113      	bne.n	80035ee <R1_SwitchOffPWM+0xb6>
    if ((pHandle->_Super.LowSideOutputs) == ES_GPIO)
 80035c6:	0023      	movs	r3, r4
 80035c8:	337d      	adds	r3, #125	; 0x7d
 80035ca:	781b      	ldrb	r3, [r3, #0]
 80035cc:	2b02      	cmp	r3, #2
 80035ce:	d10e      	bne.n	80035ee <R1_SwitchOffPWM+0xb6>
      LL_GPIO_ResetOutputPin(pHandle->_Super.pwm_en_u_port, pHandle->_Super.pwm_en_u_pin);
 80035d0:	0022      	movs	r2, r4
 80035d2:	3248      	adds	r2, #72	; 0x48
 80035d4:	6be3      	ldr	r3, [r4, #60]	; 0x3c
 80035d6:	8812      	ldrh	r2, [r2, #0]
  WRITE_REG(GPIOx->BRR, PinMask);
 80035d8:	629a      	str	r2, [r3, #40]	; 0x28
      LL_GPIO_ResetOutputPin(pHandle->_Super.pwm_en_v_port, pHandle->_Super.pwm_en_v_pin);
 80035da:	0022      	movs	r2, r4
 80035dc:	324a      	adds	r2, #74	; 0x4a
 80035de:	6c23      	ldr	r3, [r4, #64]	; 0x40
 80035e0:	8812      	ldrh	r2, [r2, #0]
 80035e2:	629a      	str	r2, [r3, #40]	; 0x28
      LL_GPIO_ResetOutputPin(pHandle->_Super.pwm_en_w_port, pHandle->_Super.pwm_en_w_pin);
 80035e4:	0022      	movs	r2, r4
 80035e6:	324c      	adds	r2, #76	; 0x4c
 80035e8:	6c63      	ldr	r3, [r4, #68]	; 0x44
 80035ea:	8812      	ldrh	r2, [r2, #0]
 80035ec:	629a      	str	r2, [r3, #40]	; 0x28
  LL_DMA_DisableChannel(DMAx, pHandle->pParams_str->DMA_ADC_DR_ChannelX);
 80035ee:	0030      	movs	r0, r6
 80035f0:	69b9      	ldr	r1, [r7, #24]
 80035f2:	f7ff f9ef 	bl	80029d4 <LL_DMA_DisableChannel>
  WRITE_REG(DMAx->IFCR, DMA_IFCR_CGIF1);
 80035f6:	2301      	movs	r3, #1
 80035f8:	6073      	str	r3, [r6, #4]
  WRITE_REG(DMAx->IFCR, DMA_IFCR_CTCIF1);
 80035fa:	18db      	adds	r3, r3, r3
 80035fc:	6073      	str	r3, [r6, #4]
  WRITE_REG(DMAx->IFCR, DMA_IFCR_CHTIF1);
 80035fe:	3302      	adds	r3, #2
  LL_DMA_DisableChannel(DMAx, pHandle->pParams_str->DMAChannelX);
 8003600:	0030      	movs	r0, r6
 8003602:	9903      	ldr	r1, [sp, #12]
 8003604:	6073      	str	r3, [r6, #4]
 8003606:	f7ff f9e5 	bl	80029d4 <LL_DMA_DisableChannel>
  CLEAR_BIT(TIMx->DIER, TIM_DIER_UDE);
 800360a:	68eb      	ldr	r3, [r5, #12]
 800360c:	4a1f      	ldr	r2, [pc, #124]	; (800368c <R1_SwitchOffPWM+0x154>)
  LL_DMA_DisableChannel(DMAx, pHandle->pParams_str->DMASamplingPtChannelX);
 800360e:	6939      	ldr	r1, [r7, #16]
 8003610:	4013      	ands	r3, r2
 8003612:	60eb      	str	r3, [r5, #12]
 8003614:	0030      	movs	r0, r6
 8003616:	f7ff f9dd 	bl	80029d4 <LL_DMA_DisableChannel>
  CLEAR_BIT(TIMx->DIER, TIM_DIER_CC4DE);
 800361a:	68eb      	ldr	r3, [r5, #12]
 800361c:	4a1c      	ldr	r2, [pc, #112]	; (8003690 <R1_SwitchOffPWM+0x158>)
  if (LL_ADC_REG_IsConversionOngoing (ADC1))
 800361e:	2104      	movs	r1, #4
 8003620:	4013      	ands	r3, r2
 8003622:	60eb      	str	r3, [r5, #12]
  pHandle->DmaBuffCCR_ADCTrig[0] = pHandle->CntSmp2;
 8003624:	0023      	movs	r3, r4
 8003626:	9a02      	ldr	r2, [sp, #8]
 8003628:	33ae      	adds	r3, #174	; 0xae
 800362a:	801a      	strh	r2, [r3, #0]
  pHandle->DmaBuffCCR_ADCTrig[2] = pHandle->CntSmp1;
 800362c:	9a01      	ldr	r2, [sp, #4]
 800362e:	809a      	strh	r2, [r3, #4]
  MODIFY_REG(TIMx->CR2, TIM_CR2_MMS, TimerSynchronization);
 8003630:	2270      	movs	r2, #112	; 0x70
  LL_TIM_OC_SetCompareCH4(TIMx, (uint32_t)(pHandle->Half_PWMPeriod + 1));
 8003632:	9b00      	ldr	r3, [sp, #0]
 8003634:	3301      	adds	r3, #1
  WRITE_REG(TIMx->CCR4, CompareValue);
 8003636:	642b      	str	r3, [r5, #64]	; 0x40
  MODIFY_REG(TIMx->CR2, TIM_CR2_MMS, TimerSynchronization);
 8003638:	686b      	ldr	r3, [r5, #4]
 800363a:	4393      	bics	r3, r2
 800363c:	606b      	str	r3, [r5, #4]
  return (READ_BIT(ADCx->CR, ADC_CR_ADSTART) == (ADC_CR_ADSTART));
 800363e:	4b15      	ldr	r3, [pc, #84]	; (8003694 <R1_SwitchOffPWM+0x15c>)
 8003640:	689a      	ldr	r2, [r3, #8]
  if (LL_ADC_REG_IsConversionOngoing (ADC1))
 8003642:	420a      	tst	r2, r1
 8003644:	d009      	beq.n	800365a <R1_SwitchOffPWM+0x122>
  MODIFY_REG(ADCx->CR,
 8003646:	6899      	ldr	r1, [r3, #8]
 8003648:	4a13      	ldr	r2, [pc, #76]	; (8003698 <R1_SwitchOffPWM+0x160>)
 800364a:	4011      	ands	r1, r2
 800364c:	2210      	movs	r2, #16
 800364e:	430a      	orrs	r2, r1
 8003650:	609a      	str	r2, [r3, #8]
    while (LL_ADC_REG_IsConversionOngoing(ADC1))
 8003652:	2104      	movs	r1, #4
  return (READ_BIT(ADCx->CR, ADC_CR_ADSTART) == (ADC_CR_ADSTART));
 8003654:	689a      	ldr	r2, [r3, #8]
 8003656:	420a      	tst	r2, r1
 8003658:	d1fb      	bne.n	8003652 <R1_SwitchOffPWM+0x11a>
  MODIFY_REG(ADCx->CFGR1, ADC_CFGR1_EXTEN | ADC_CFGR1_EXTSEL, TriggerSource);
 800365a:	68da      	ldr	r2, [r3, #12]
 800365c:	490f      	ldr	r1, [pc, #60]	; (800369c <R1_SwitchOffPWM+0x164>)
  R1_1ShuntMotorVarsInit(&pHandle->_Super);
 800365e:	0020      	movs	r0, r4
 8003660:	400a      	ands	r2, r1
 8003662:	60da      	str	r2, [r3, #12]
  pHandle->ADCRegularLocked=false;
 8003664:	0023      	movs	r3, r4
 8003666:	2200      	movs	r2, #0
 8003668:	33ca      	adds	r3, #202	; 0xca
 800366a:	701a      	strb	r2, [r3, #0]
  R1_1ShuntMotorVarsInit(&pHandle->_Super);
 800366c:	f7ff f9d8 	bl	8002a20 <R1_1ShuntMotorVarsInit>
}
 8003670:	b005      	add	sp, #20
 8003672:	bdf0      	pop	{r4, r5, r6, r7, pc}
  return (uint32_t)(READ_BIT(TIMx->CR1, TIM_CR1_DIR));
 8003674:	682a      	ldr	r2, [r5, #0]
    while (LL_TIM_COUNTERDIRECTION_DOWN == LL_TIM_GetDirection(TIMx))
 8003676:	421a      	tst	r2, r3
 8003678:	d1fc      	bne.n	8003674 <R1_SwitchOffPWM+0x13c>
 800367a:	2310      	movs	r3, #16
 800367c:	682a      	ldr	r2, [r5, #0]
    while (LL_TIM_COUNTERDIRECTION_UP == LL_TIM_GetDirection(TIMx))
 800367e:	421a      	tst	r2, r3
 8003680:	d0fc      	beq.n	800367c <R1_SwitchOffPWM+0x144>
 8003682:	e783      	b.n	800358c <R1_SwitchOffPWM+0x54>
 8003684:	080068f3 	.word	0x080068f3
 8003688:	ffff7fff 	.word	0xffff7fff
 800368c:	fffffeff 	.word	0xfffffeff
 8003690:	ffffefff 	.word	0xffffefff
 8003694:	40012400 	.word	0x40012400
 8003698:	7fffffe8 	.word	0x7fffffe8
 800369c:	fffff23f 	.word	0xfffff23f

080036a0 <R1_CurrentReadingCalibration>:
{
 80036a0:	b5f7      	push	{r0, r1, r2, r4, r5, r6, r7, lr}
  TIM_TypeDef * TIMx = pHandle->pParams_str->TIMx;
 80036a2:	0006      	movs	r6, r0
 80036a4:	36cc      	adds	r6, #204	; 0xcc
 80036a6:	6833      	ldr	r3, [r6, #0]
{
 80036a8:	0004      	movs	r4, r0
  TIM_TypeDef * TIMx = pHandle->pParams_str->TIMx;
 80036aa:	685d      	ldr	r5, [r3, #4]
  if (false == pHandle->_Super.offsetCalibStatus)
 80036ac:	0003      	movs	r3, r0
 80036ae:	3381      	adds	r3, #129	; 0x81
 80036b0:	9300      	str	r3, [sp, #0]
 80036b2:	781b      	ldrb	r3, [r3, #0]
 80036b4:	2b00      	cmp	r3, #0
 80036b6:	d129      	bne.n	800370c <R1_CurrentReadingCalibration+0x6c>
    pHandle->PhaseOffset = 0u;
 80036b8:	0007      	movs	r7, r0
    pHandle->Index = 0u;
 80036ba:	0002      	movs	r2, r0
    pHandle->PhaseOffset = 0u;
 80036bc:	37a0      	adds	r7, #160	; 0xa0
    pHandle->Index = 0u;
 80036be:	32c4      	adds	r2, #196	; 0xc4
    pHandle->PhaseOffset = 0u;
 80036c0:	603b      	str	r3, [r7, #0]
    pHandle->Index = 0u;
 80036c2:	7013      	strb	r3, [r2, #0]
  CLEAR_BIT(TIMx->CCER, Channels);
 80036c4:	6a2b      	ldr	r3, [r5, #32]
 80036c6:	9201      	str	r2, [sp, #4]
 80036c8:	4a14      	ldr	r2, [pc, #80]	; (800371c <R1_CurrentReadingCalibration+0x7c>)
 80036ca:	4013      	ands	r3, r2
 80036cc:	622b      	str	r3, [r5, #32]
    pHandle->_Super.pFctGetPhaseCurrents = &R1_HFCurrentsCalibration;
 80036ce:	4b14      	ldr	r3, [pc, #80]	; (8003720 <R1_CurrentReadingCalibration+0x80>)
 80036d0:	6003      	str	r3, [r0, #0]
    pHandle->_Super.pFctSetADCSampPointSectX = &R1_SetADCSampPointPolarization;
 80036d2:	4b14      	ldr	r3, [pc, #80]	; (8003724 <R1_CurrentReadingCalibration+0x84>)
 80036d4:	6143      	str	r3, [r0, #20]
    R1_SwitchOnPWM(&pHandle->_Super);
 80036d6:	f7ff fe1b 	bl	8003310 <R1_SwitchOnPWM>
            pHandle->pParams_str->RepetitionCounter,
 80036da:	6833      	ldr	r3, [r6, #0]
    waitForPolarizationEnd(TIMx,
 80036dc:	3e76      	subs	r6, #118	; 0x76
            pHandle->pParams_str->RepetitionCounter,
 80036de:	3305      	adds	r3, #5
    waitForPolarizationEnd(TIMx,
 80036e0:	7fda      	ldrb	r2, [r3, #31]
 80036e2:	0031      	movs	r1, r6
 80036e4:	9b01      	ldr	r3, [sp, #4]
 80036e6:	0028      	movs	r0, r5
 80036e8:	f002 fda0 	bl	800622c <waitForPolarizationEnd>
    R1_SwitchOffPWM(&pHandle->_Super);
 80036ec:	0020      	movs	r0, r4
 80036ee:	f7ff ff23 	bl	8003538 <R1_SwitchOffPWM>
    pHandle->PhaseOffset >>= 4u;
 80036f2:	683b      	ldr	r3, [r7, #0]
 80036f4:	091b      	lsrs	r3, r3, #4
 80036f6:	603b      	str	r3, [r7, #0]
    if (0U == pHandle->_Super.SWerror)
 80036f8:	8833      	ldrh	r3, [r6, #0]
 80036fa:	2b00      	cmp	r3, #0
 80036fc:	d102      	bne.n	8003704 <R1_CurrentReadingCalibration+0x64>
      pHandle->_Super.offsetCalibStatus = true;
 80036fe:	9a00      	ldr	r2, [sp, #0]
 8003700:	3301      	adds	r3, #1
 8003702:	7013      	strb	r3, [r2, #0]
    pHandle->_Super.pFctGetPhaseCurrents = &R1_GetPhaseCurrents;
 8003704:	4b08      	ldr	r3, [pc, #32]	; (8003728 <R1_CurrentReadingCalibration+0x88>)
 8003706:	6023      	str	r3, [r4, #0]
    pHandle->_Super.pFctSetADCSampPointSectX = &R1_CalcDutyCycles;
 8003708:	4b08      	ldr	r3, [pc, #32]	; (800372c <R1_CurrentReadingCalibration+0x8c>)
 800370a:	6163      	str	r3, [r4, #20]
  SET_BIT(TIMx->CCER, Channels);
 800370c:	6a2a      	ldr	r2, [r5, #32]
 800370e:	4b08      	ldr	r3, [pc, #32]	; (8003730 <R1_CurrentReadingCalibration+0x90>)
  R1_1ShuntMotorVarsInit(&pHandle->_Super);
 8003710:	0020      	movs	r0, r4
 8003712:	4313      	orrs	r3, r2
 8003714:	622b      	str	r3, [r5, #32]
 8003716:	f7ff f983 	bl	8002a20 <R1_1ShuntMotorVarsInit>
}
 800371a:	bdf7      	pop	{r0, r1, r2, r4, r5, r6, r7, pc}
 800371c:	fffffaaa 	.word	0xfffffaaa
 8003720:	08002ce9 	.word	0x08002ce9
 8003724:	08002d2d 	.word	0x08002d2d
 8003728:	08002a95 	.word	0x08002a95
 800372c:	08002da1 	.word	0x08002da1
 8003730:	00000555 	.word	0x00000555

08003734 <R1_TIM1_UP_IRQHandler>:
  * @param pHdl: handler of the current instance of the PWM component
  */
__weak void *R1_TIM1_UP_IRQHandler(PWMC_R1_Handle_t *pHandle)
{

  if (pHandle->TCDoneFlag ==true)
 8003734:	0003      	movs	r3, r0
 8003736:	33c9      	adds	r3, #201	; 0xc9
 8003738:	781b      	ldrb	r3, [r3, #0]
 800373a:	2b00      	cmp	r3, #0
 800373c:	d00f      	beq.n	800375e <R1_TIM1_UP_IRQHandler+0x2a>
  MODIFY_REG(ADCx->CR,
 800373e:	4909      	ldr	r1, [pc, #36]	; (8003764 <R1_TIM1_UP_IRQHandler+0x30>)
 8003740:	4b09      	ldr	r3, [pc, #36]	; (8003768 <R1_TIM1_UP_IRQHandler+0x34>)
 8003742:	688a      	ldr	r2, [r1, #8]
 8003744:	401a      	ands	r2, r3
 8003746:	2304      	movs	r3, #4
 8003748:	4313      	orrs	r3, r2
 800374a:	608b      	str	r3, [r1, #8]
  MODIFY_REG(TIMx->CR2, TIM_CR2_MMS, TimerSynchronization);
 800374c:	2170      	movs	r1, #112	; 0x70
 800374e:	4a07      	ldr	r2, [pc, #28]	; (800376c <R1_TIM1_UP_IRQHandler+0x38>)
 8003750:	6853      	ldr	r3, [r2, #4]
 8003752:	430b      	orrs	r3, r1
 8003754:	6053      	str	r3, [r2, #4]
  {
    LL_ADC_REG_StartConversion(ADC1);
    LL_TIM_SetTriggerOutput(TIM1, LL_TIM_TRGO_OC4REF);
    pHandle->FOCDurationFlag = true;
 8003756:	0003      	movs	r3, r0
 8003758:	2201      	movs	r2, #1
 800375a:	33c8      	adds	r3, #200	; 0xc8
 800375c:	801a      	strh	r2, [r3, #0]
  else
  {
    /* Nothing to do */
  }

  return (&(pHandle->_Super.Motor));
 800375e:	307a      	adds	r0, #122	; 0x7a
}
 8003760:	4770      	bx	lr
 8003762:	46c0      	nop			; (mov r8, r8)
 8003764:	40012400 	.word	0x40012400
 8003768:	7fffffe8 	.word	0x7fffffe8
 800376c:	40012c00 	.word	0x40012c00

08003770 <R1_DMAx_TC_IRQHandler>:
  *         Required only for R1 with rep rate > 1
  * @param pHdl: handler of the current instance of the PWM component
  */
__weak void *R1_DMAx_TC_IRQHandler(PWMC_R1_Handle_t *pHandle)
{
  DMA_TypeDef *DMAx = pHandle->pParams_str->DMAx;
 8003770:	0003      	movs	r3, r0
 8003772:	33cc      	adds	r3, #204	; 0xcc
 8003774:	681a      	ldr	r2, [r3, #0]
{
 8003776:	b510      	push	{r4, lr}
  DMA_TypeDef *DMAx = pHandle->pParams_str->DMAx;
 8003778:	6894      	ldr	r4, [r2, #8]
  if (NULL == DMAx)
 800377a:	2c00      	cmp	r4, #0
 800377c:	d005      	beq.n	800378a <R1_DMAx_TC_IRQHandler+0x1a>
    WRITE_REG (DMAx->IFCR, DMA_IFCR_CHTIF1 << ((Channel-LL_DMA_CHANNEL_1)<<2));
 800377e:	2104      	movs	r1, #4
 8003780:	68d3      	ldr	r3, [r2, #12]
 8003782:	3b01      	subs	r3, #1
 8003784:	009b      	lsls	r3, r3, #2
 8003786:	4099      	lsls	r1, r3
 8003788:	6061      	str	r1, [r4, #4]

  LL_DMA_ClearFlag_HT(DMAx, pHandle->pParams_str->DMAChannelX);
  pHandle->TCCnt++;
 800378a:	0001      	movs	r1, r0
 800378c:	31c6      	adds	r1, #198	; 0xc6
 800378e:	780b      	ldrb	r3, [r1, #0]
  if (pHandle->TCCnt == pHandle->pParams_str->RepetitionCounter)
 8003790:	3205      	adds	r2, #5
  pHandle->TCCnt++;
 8003792:	3301      	adds	r3, #1
 8003794:	b2db      	uxtb	r3, r3
 8003796:	700b      	strb	r3, [r1, #0]
  if (pHandle->TCCnt == pHandle->pParams_str->RepetitionCounter)
 8003798:	7fd2      	ldrb	r2, [r2, #31]
 800379a:	429a      	cmp	r2, r3
 800379c:	d110      	bne.n	80037c0 <R1_DMAx_TC_IRQHandler+0x50>
  {
    /* First half PWM period CCR value transfered by DMA */
    pHandle->DmaBuffCCR[0] = pHandle->DmaBuffCCR_latch[0];
 800379e:	0003      	movs	r3, r0
 80037a0:	3394      	adds	r3, #148	; 0x94
 80037a2:	681a      	ldr	r2, [r3, #0]
 80037a4:	3b0c      	subs	r3, #12
 80037a6:	601a      	str	r2, [r3, #0]
    pHandle->DmaBuffCCR[1] = pHandle->DmaBuffCCR_latch[1];
    pHandle->DmaBuffCCR[2] = pHandle->DmaBuffCCR_latch[2];
 80037a8:	691a      	ldr	r2, [r3, #16]
 80037aa:	3304      	adds	r3, #4
 80037ac:	601a      	str	r2, [r3, #0]
    /* Second half PWM period CCR value transfered by DMA */
    pHandle->DmaBuffCCR[3]= pHandle->DmaBuffCCR_latch[3];
    pHandle->DmaBuffCCR[4]= pHandle->DmaBuffCCR_latch[4];
 80037ae:	691a      	ldr	r2, [r3, #16]
 80037b0:	3304      	adds	r3, #4
 80037b2:	601a      	str	r2, [r3, #0]
    pHandle->DmaBuffCCR[5]= pHandle->DmaBuffCCR_latch[5];

    pHandle->TCCnt = 0;
 80037b4:	2300      	movs	r3, #0
 80037b6:	700b      	strb	r3, [r1, #0]
    pHandle->TCDoneFlag =true;
 80037b8:	0003      	movs	r3, r0
 80037ba:	2201      	movs	r2, #1
 80037bc:	33c9      	adds	r3, #201	; 0xc9
 80037be:	701a      	strb	r2, [r3, #0]
  }
  else
  {
  }

  return (&(pHandle->_Super.Motor));
 80037c0:	307a      	adds	r0, #122	; 0x7a
}
 80037c2:	bd10      	pop	{r4, pc}

080037c4 <RI_SetRegisterGlobal>:
#include "mcp_config.h"
#include "mcpa.h"
#include "mc_configuration_registers.h"

uint8_t RI_SetRegisterGlobal(uint16_t regID, uint8_t typeID, uint8_t *data, uint16_t *size, int16_t dataAvailable)
{
 80037c4:	b530      	push	{r4, r5, lr}
 80037c6:	0004      	movs	r4, r0
 80037c8:	a803      	add	r0, sp, #12
 80037ca:	2500      	movs	r5, #0
 80037cc:	5f40      	ldrsh	r0, [r0, r5]
  uint8_t retVal = MCP_CMD_OK;
  switch(typeID)
 80037ce:	2918      	cmp	r1, #24
 80037d0:	d035      	beq.n	800383e <RI_SetRegisterGlobal+0x7a>
 80037d2:	d807      	bhi.n	80037e4 <RI_SetRegisterGlobal+0x20>
 80037d4:	2908      	cmp	r1, #8
 80037d6:	d012      	beq.n	80037fe <RI_SetRegisterGlobal+0x3a>
 80037d8:	2910      	cmp	r1, #16
 80037da:	d018      	beq.n	800380e <RI_SetRegisterGlobal+0x4a>
    }

    default:
    {
      retVal = MCP_ERROR_BAD_DATA_TYPE;
      *size =0; /* From this point we are not able anymore to decode the RX buffer */
 80037dc:	2200      	movs	r2, #0
      retVal = MCP_ERROR_BAD_DATA_TYPE;
 80037de:	2007      	movs	r0, #7
      *size =0; /* From this point we are not able anymore to decode the RX buffer */
 80037e0:	801a      	strh	r2, [r3, #0]
      break;
 80037e2:	e013      	b.n	800380c <RI_SetRegisterGlobal+0x48>
  switch(typeID)
 80037e4:	2928      	cmp	r1, #40	; 0x28
 80037e6:	d1f9      	bne.n	80037dc <RI_SetRegisterGlobal+0x18>
      *size = rawSize + 2U;
 80037e8:	8812      	ldrh	r2, [r2, #0]
      if (*size > (uint16_t)dataAvailable)
 80037ea:	b280      	uxth	r0, r0
      *size = rawSize + 2U;
 80037ec:	3202      	adds	r2, #2
 80037ee:	b292      	uxth	r2, r2
 80037f0:	801a      	strh	r2, [r3, #0]
      if (*size > (uint16_t)dataAvailable)
 80037f2:	4282      	cmp	r2, r0
 80037f4:	d92a      	bls.n	800384c <RI_SetRegisterGlobal+0x88>
        *size = 0;
 80037f6:	2200      	movs	r2, #0
        retVal = MCP_ERROR_BAD_RAW_FORMAT; /* This error stop the parsing of the CMD buffer */
 80037f8:	200a      	movs	r0, #10
        *size = 0;
 80037fa:	801a      	strh	r2, [r3, #0]
        retVal = MCP_ERROR_BAD_RAW_FORMAT; /* This error stop the parsing of the CMD buffer */
 80037fc:	e006      	b.n	800380c <RI_SetRegisterGlobal+0x48>
          retVal = MCP_ERROR_UNKNOWN_REG;
 80037fe:	0020      	movs	r0, r4
 8003800:	3848      	subs	r0, #72	; 0x48
 8003802:	1e42      	subs	r2, r0, #1
 8003804:	4190      	sbcs	r0, r2
      *size = 1;
 8003806:	2201      	movs	r2, #1
          retVal = MCP_ERROR_UNKNOWN_REG;
 8003808:	3004      	adds	r0, #4
      *size = 2;
 800380a:	801a      	strh	r2, [r3, #0]
    }
  }
  return (retVal);
}
 800380c:	bd30      	pop	{r4, r5, pc}
      switch (regID)
 800380e:	22e5      	movs	r2, #229	; 0xe5
  uint8_t retVal = MCP_CMD_OK;
 8003810:	2000      	movs	r0, #0
 8003812:	0112      	lsls	r2, r2, #4
 8003814:	4294      	cmp	r4, r2
 8003816:	d008      	beq.n	800382a <RI_SetRegisterGlobal+0x66>
 8003818:	d809      	bhi.n	800382e <RI_SetRegisterGlobal+0x6a>
 800381a:	2240      	movs	r2, #64	; 0x40
 800381c:	0020      	movs	r0, r4
 800381e:	4390      	bics	r0, r2
 8003820:	4a0f      	ldr	r2, [pc, #60]	; (8003860 <RI_SetRegisterGlobal+0x9c>)
 8003822:	1880      	adds	r0, r0, r2
 8003824:	1e42      	subs	r2, r0, #1
 8003826:	4190      	sbcs	r0, r2
 8003828:	3004      	adds	r0, #4
      *size = 2;
 800382a:	2202      	movs	r2, #2
 800382c:	e7ed      	b.n	800380a <RI_SetRegisterGlobal+0x46>
 800382e:	22e9      	movs	r2, #233	; 0xe9
  uint8_t retVal = MCP_CMD_OK;
 8003830:	2000      	movs	r0, #0
 8003832:	0112      	lsls	r2, r2, #4
 8003834:	4294      	cmp	r4, r2
 8003836:	d0f8      	beq.n	800382a <RI_SetRegisterGlobal+0x66>
 8003838:	4a0a      	ldr	r2, [pc, #40]	; (8003864 <RI_SetRegisterGlobal+0xa0>)
 800383a:	18a0      	adds	r0, r4, r2
 800383c:	e7f2      	b.n	8003824 <RI_SetRegisterGlobal+0x60>
          retVal = MCP_ERROR_UNKNOWN_REG;
 800383e:	0020      	movs	r0, r4
 8003840:	3818      	subs	r0, #24
 8003842:	1e42      	subs	r2, r0, #1
 8003844:	4190      	sbcs	r0, r2
      *size = 4;
 8003846:	2204      	movs	r2, #4
          retVal = MCP_ERROR_UNKNOWN_REG;
 8003848:	3004      	adds	r0, #4
      *size = 4;
 800384a:	e7de      	b.n	800380a <RI_SetRegisterGlobal+0x46>
            retVal = MCP_ERROR_RO_REG;
 800384c:	2004      	movs	r0, #4
 800384e:	2ce8      	cmp	r4, #232	; 0xe8
 8003850:	d0dc      	beq.n	800380c <RI_SetRegisterGlobal+0x48>
 8003852:	2380      	movs	r3, #128	; 0x80
 8003854:	439c      	bics	r4, r3
 8003856:	3c28      	subs	r4, #40	; 0x28
 8003858:	1e63      	subs	r3, r4, #1
 800385a:	419c      	sbcs	r4, r3
 800385c:	1820      	adds	r0, r4, r0
 800385e:	e7d5      	b.n	800380c <RI_SetRegisterGlobal+0x48>
 8003860:	fffffa70 	.word	0xfffffa70
 8003864:	ffffe4a8 	.word	0xffffe4a8

08003868 <RI_SetRegisterMotor1>:

uint8_t RI_SetRegisterMotor1(uint16_t regID, uint8_t typeID, uint8_t *data, uint16_t *size, int16_t dataAvailable)
{
 8003868:	b570      	push	{r4, r5, r6, lr}
 800386a:	001e      	movs	r6, r3
 800386c:	ab04      	add	r3, sp, #16
 800386e:	0004      	movs	r4, r0
 8003870:	0008      	movs	r0, r1
 8003872:	0011      	movs	r1, r2
 8003874:	2200      	movs	r2, #0
 8003876:	5e9a      	ldrsh	r2, [r3, r2]
  uint8_t retVal = MCP_CMD_OK;
  uint8_t motorID=0;
  MCI_Handle_t *pMCIN = &Mci[motorID];

  switch(typeID)
 8003878:	2818      	cmp	r0, #24
 800387a:	d100      	bne.n	800387e <RI_SetRegisterMotor1+0x16>
 800387c:	e091      	b.n	80039a2 <RI_SetRegisterMotor1+0x13a>
 800387e:	d807      	bhi.n	8003890 <RI_SetRegisterMotor1+0x28>
 8003880:	2808      	cmp	r0, #8
 8003882:	d013      	beq.n	80038ac <RI_SetRegisterMotor1+0x44>
 8003884:	2810      	cmp	r0, #16
 8003886:	d035      	beq.n	80038f4 <RI_SetRegisterMotor1+0x8c>
    }

    default:
    {
      retVal = MCP_ERROR_BAD_DATA_TYPE;
      *size =0; /* From this point we are not able anymore to decode the RX buffer */
 8003888:	2300      	movs	r3, #0
      retVal = MCP_ERROR_BAD_DATA_TYPE;
 800388a:	2507      	movs	r5, #7
      *size =0; /* From this point we are not able anymore to decode the RX buffer */
 800388c:	8033      	strh	r3, [r6, #0]
      break;
 800388e:	e022      	b.n	80038d6 <RI_SetRegisterMotor1+0x6e>
  switch(typeID)
 8003890:	2828      	cmp	r0, #40	; 0x28
 8003892:	d1f9      	bne.n	8003888 <RI_SetRegisterMotor1+0x20>
      *size = rawSize + 2U;
 8003894:	880b      	ldrh	r3, [r1, #0]
      if (*size > (uint16_t)dataAvailable)
 8003896:	b292      	uxth	r2, r2
      *size = rawSize + 2U;
 8003898:	3302      	adds	r3, #2
 800389a:	b29b      	uxth	r3, r3
 800389c:	8033      	strh	r3, [r6, #0]
      if (*size > (uint16_t)dataAvailable)
 800389e:	4293      	cmp	r3, r2
 80038a0:	d800      	bhi.n	80038a4 <RI_SetRegisterMotor1+0x3c>
 80038a2:	e095      	b.n	80039d0 <RI_SetRegisterMotor1+0x168>
        *size = 0;
 80038a4:	2300      	movs	r3, #0
        retVal = MCP_ERROR_BAD_RAW_FORMAT; /* This error stop the parsing of the CMD buffer */
 80038a6:	250a      	movs	r5, #10
        *size = 0;
 80038a8:	8033      	strh	r3, [r6, #0]
        retVal = MCP_ERROR_BAD_RAW_FORMAT; /* This error stop the parsing of the CMD buffer */
 80038aa:	e014      	b.n	80038d6 <RI_SetRegisterMotor1+0x6e>
            retVal = MCP_ERROR_RO_REG;
 80038ac:	2504      	movs	r5, #4
 80038ae:	2c48      	cmp	r4, #72	; 0x48
 80038b0:	d00f      	beq.n	80038d2 <RI_SetRegisterMotor1+0x6a>
 80038b2:	3501      	adds	r5, #1
 80038b4:	2c88      	cmp	r4, #136	; 0x88
 80038b6:	d10c      	bne.n	80038d2 <RI_SetRegisterMotor1+0x6a>
          uint8_t regdata8 = *data;
 80038b8:	780b      	ldrb	r3, [r1, #0]
          if ((uint8_t)MCM_TORQUE_MODE == regdata8)
 80038ba:	2b04      	cmp	r3, #4
 80038bc:	d10d      	bne.n	80038da <RI_SetRegisterMotor1+0x72>
            MCI_ExecTorqueRamp(pMCIN, MCI_GetTeref(pMCIN), 0);
 80038be:	4c5a      	ldr	r4, [pc, #360]	; (8003a28 <RI_SetRegisterMotor1+0x1c0>)
  uint8_t retVal = MCP_CMD_OK;
 80038c0:	2500      	movs	r5, #0
            MCI_ExecTorqueRamp(pMCIN, MCI_GetTeref(pMCIN), 0);
 80038c2:	0020      	movs	r0, r4
 80038c4:	f7fe f8d4 	bl	8001a70 <MCI_GetTeref>
 80038c8:	2200      	movs	r2, #0
 80038ca:	0001      	movs	r1, r0
 80038cc:	0020      	movs	r0, r4
 80038ce:	f7fd ffe5 	bl	800189c <MCI_ExecTorqueRamp>
      *size = 1;
 80038d2:	2301      	movs	r3, #1
      *size = 2;
 80038d4:	8033      	strh	r3, [r6, #0]
    }
  }
  return (retVal);
}
 80038d6:	0028      	movs	r0, r5
 80038d8:	bd70      	pop	{r4, r5, r6, pc}
  uint8_t retVal = MCP_CMD_OK;
 80038da:	2500      	movs	r5, #0
          if ((uint8_t)MCM_SPEED_MODE == regdata8)
 80038dc:	2b03      	cmp	r3, #3
 80038de:	d1f8      	bne.n	80038d2 <RI_SetRegisterMotor1+0x6a>
            MCI_ExecSpeedRamp(pMCIN, MCI_GetMecSpeedRefUnit(pMCIN), 0);
 80038e0:	4c51      	ldr	r4, [pc, #324]	; (8003a28 <RI_SetRegisterMotor1+0x1c0>)
 80038e2:	0020      	movs	r0, r4
 80038e4:	f7fe f8a3 	bl	8001a2e <MCI_GetMecSpeedRefUnit>
 80038e8:	002a      	movs	r2, r5
 80038ea:	0001      	movs	r1, r0
 80038ec:	0020      	movs	r0, r4
 80038ee:	f7fd ffcb 	bl	8001888 <MCI_ExecSpeedRamp>
 80038f2:	e7ee      	b.n	80038d2 <RI_SetRegisterMotor1+0x6a>
      uint16_t regdata16 = *(uint16_t *)data; //cstat !MISRAC2012-Rule-11.3
 80038f4:	23f2      	movs	r3, #242	; 0xf2
 80038f6:	2504      	movs	r5, #4
 80038f8:	8809      	ldrh	r1, [r1, #0]
      switch (regID)
 80038fa:	00db      	lsls	r3, r3, #3
 80038fc:	429c      	cmp	r4, r3
 80038fe:	d019      	beq.n	8003934 <RI_SetRegisterMotor1+0xcc>
 8003900:	d81a      	bhi.n	8003938 <RI_SetRegisterMotor1+0xd0>
 8003902:	2cd0      	cmp	r4, #208	; 0xd0
 8003904:	d043      	beq.n	800398e <RI_SetRegisterMotor1+0x126>
 8003906:	d807      	bhi.n	8003918 <RI_SetRegisterMotor1+0xb0>
          retVal = MCP_ERROR_UNKNOWN_REG;
 8003908:	3501      	adds	r5, #1
 800390a:	2c90      	cmp	r4, #144	; 0x90
 800390c:	d112      	bne.n	8003934 <RI_SetRegisterMotor1+0xcc>
          PID_SetKP(&PIDSpeedHandle_M1, (int16_t)regdata16);
 800390e:	4847      	ldr	r0, [pc, #284]	; (8003a2c <RI_SetRegisterMotor1+0x1c4>)
 8003910:	b209      	sxth	r1, r1
 8003912:	f002 fc0c 	bl	800612e <PID_SetKP>
          break;
 8003916:	e030      	b.n	800397a <RI_SetRegisterMotor1+0x112>
 8003918:	2388      	movs	r3, #136	; 0x88
 800391a:	005b      	lsls	r3, r3, #1
 800391c:	429c      	cmp	r4, r3
 800391e:	d03b      	beq.n	8003998 <RI_SetRegisterMotor1+0x130>
          retVal = MCP_ERROR_UNKNOWN_REG;
 8003920:	2505      	movs	r5, #5
 8003922:	429c      	cmp	r4, r3
 8003924:	d306      	bcc.n	8003934 <RI_SetRegisterMotor1+0xcc>
 8003926:	3bd0      	subs	r3, #208	; 0xd0
 8003928:	439c      	bics	r4, r3
 800392a:	4b41      	ldr	r3, [pc, #260]	; (8003a30 <RI_SetRegisterMotor1+0x1c8>)
 800392c:	18e4      	adds	r4, r4, r3
 800392e:	1e63      	subs	r3, r4, #1
 8003930:	419c      	sbcs	r4, r3
 8003932:	1d25      	adds	r5, r4, #4
      *size = 2;
 8003934:	2302      	movs	r3, #2
 8003936:	e7cd      	b.n	80038d4 <RI_SetRegisterMotor1+0x6c>
 8003938:	23e5      	movs	r3, #229	; 0xe5
  uint8_t retVal = MCP_CMD_OK;
 800393a:	2500      	movs	r5, #0
 800393c:	011b      	lsls	r3, r3, #4
 800393e:	429c      	cmp	r4, r3
 8003940:	d0f8      	beq.n	8003934 <RI_SetRegisterMotor1+0xcc>
 8003942:	d810      	bhi.n	8003966 <RI_SetRegisterMotor1+0xfe>
 8003944:	23a5      	movs	r3, #165	; 0xa5
 8003946:	3504      	adds	r5, #4
 8003948:	011b      	lsls	r3, r3, #4
 800394a:	429c      	cmp	r4, r3
 800394c:	d0f2      	beq.n	8003934 <RI_SetRegisterMotor1+0xcc>
 800394e:	d808      	bhi.n	8003962 <RI_SetRegisterMotor1+0xfa>
 8003950:	4b38      	ldr	r3, [pc, #224]	; (8003a34 <RI_SetRegisterMotor1+0x1cc>)
 8003952:	18e4      	adds	r4, r4, r3
 8003954:	2340      	movs	r3, #64	; 0x40
 8003956:	439c      	bics	r4, r3
 8003958:	b2a4      	uxth	r4, r4
 800395a:	1e63      	subs	r3, r4, #1
 800395c:	419c      	sbcs	r4, r3
 800395e:	1965      	adds	r5, r4, r5
 8003960:	e7e8      	b.n	8003934 <RI_SetRegisterMotor1+0xcc>
 8003962:	4b35      	ldr	r3, [pc, #212]	; (8003a38 <RI_SetRegisterMotor1+0x1d0>)
 8003964:	e7e2      	b.n	800392c <RI_SetRegisterMotor1+0xc4>
 8003966:	23ed      	movs	r3, #237	; 0xed
 8003968:	2504      	movs	r5, #4
 800396a:	011b      	lsls	r3, r3, #4
 800396c:	429c      	cmp	r4, r3
 800396e:	d0e1      	beq.n	8003934 <RI_SetRegisterMotor1+0xcc>
 8003970:	d805      	bhi.n	800397e <RI_SetRegisterMotor1+0x116>
 8003972:	3b40      	subs	r3, #64	; 0x40
          retVal = MCP_ERROR_UNKNOWN_REG;
 8003974:	3501      	adds	r5, #1
 8003976:	429c      	cmp	r4, r3
 8003978:	d1dc      	bne.n	8003934 <RI_SetRegisterMotor1+0xcc>
  uint8_t retVal = MCP_CMD_OK;
 800397a:	2500      	movs	r5, #0
          break;
 800397c:	e7da      	b.n	8003934 <RI_SetRegisterMotor1+0xcc>
 800397e:	23f1      	movs	r3, #241	; 0xf1
 8003980:	2504      	movs	r5, #4
 8003982:	011b      	lsls	r3, r3, #4
 8003984:	429c      	cmp	r4, r3
 8003986:	d0d5      	beq.n	8003934 <RI_SetRegisterMotor1+0xcc>
 8003988:	4b2c      	ldr	r3, [pc, #176]	; (8003a3c <RI_SetRegisterMotor1+0x1d4>)
 800398a:	18e4      	adds	r4, r4, r3
 800398c:	e7e5      	b.n	800395a <RI_SetRegisterMotor1+0xf2>
          PID_SetKI(&PIDSpeedHandle_M1, (int16_t)regdata16);
 800398e:	4827      	ldr	r0, [pc, #156]	; (8003a2c <RI_SetRegisterMotor1+0x1c4>)
 8003990:	b209      	sxth	r1, r1
 8003992:	f002 fbce 	bl	8006132 <PID_SetKI>
          break;
 8003996:	e7f0      	b.n	800397a <RI_SetRegisterMotor1+0x112>
          PID_SetKD(&PIDSpeedHandle_M1, (int16_t)regdata16);
 8003998:	4824      	ldr	r0, [pc, #144]	; (8003a2c <RI_SetRegisterMotor1+0x1c4>)
 800399a:	b209      	sxth	r1, r1
 800399c:	f002 fbd3 	bl	8006146 <PID_SetKD>
 80039a0:	e7eb      	b.n	800397a <RI_SetRegisterMotor1+0x112>
          retVal = MCP_ERROR_RO_REG;
 80039a2:	2504      	movs	r5, #4
 80039a4:	2c58      	cmp	r4, #88	; 0x58
 80039a6:	d005      	beq.n	80039b4 <RI_SetRegisterMotor1+0x14c>
 80039a8:	2c98      	cmp	r4, #152	; 0x98
 80039aa:	d005      	beq.n	80039b8 <RI_SetRegisterMotor1+0x150>
 80039ac:	3c18      	subs	r4, #24
 80039ae:	1e63      	subs	r3, r4, #1
 80039b0:	419c      	sbcs	r4, r3
 80039b2:	1965      	adds	r5, r4, r5
      *size = 4;
 80039b4:	2304      	movs	r3, #4
 80039b6:	e78d      	b.n	80038d4 <RI_SetRegisterMotor1+0x6c>
          MCI_ExecSpeedRamp(pMCIN,((((int16_t)regdata32) * ((int16_t)SPEED_UNIT)) / (int16_t)U_RPM), 0);
 80039b8:	2300      	movs	r3, #0
 80039ba:	5ec8      	ldrsh	r0, [r1, r3]
 80039bc:	2106      	movs	r1, #6
 80039be:	f7fc fc41 	bl	8000244 <__divsi3>
 80039c2:	2200      	movs	r2, #0
 80039c4:	b201      	sxth	r1, r0
 80039c6:	4818      	ldr	r0, [pc, #96]	; (8003a28 <RI_SetRegisterMotor1+0x1c0>)
 80039c8:	f7fd ff5e 	bl	8001888 <MCI_ExecSpeedRamp>
  uint8_t retVal = MCP_CMD_OK;
 80039cc:	2500      	movs	r5, #0
          break;
 80039ce:	e7f1      	b.n	80039b4 <RI_SetRegisterMotor1+0x14c>
        switch (regID)
 80039d0:	23d4      	movs	r3, #212	; 0xd4
 80039d2:	005b      	lsls	r3, r3, #1
 80039d4:	429c      	cmp	r4, r3
 80039d6:	d018      	beq.n	8003a0a <RI_SetRegisterMotor1+0x1a2>
 80039d8:	d80b      	bhi.n	80039f2 <RI_SetRegisterMotor1+0x18a>
            retVal = MCP_ERROR_RO_REG;
 80039da:	2504      	movs	r5, #4
 80039dc:	2ce8      	cmp	r4, #232	; 0xe8
 80039de:	d100      	bne.n	80039e2 <RI_SetRegisterMotor1+0x17a>
 80039e0:	e779      	b.n	80038d6 <RI_SetRegisterMotor1+0x6e>
 80039e2:	3b29      	subs	r3, #41	; 0x29
 80039e4:	3bff      	subs	r3, #255	; 0xff
 80039e6:	439c      	bics	r4, r3
 80039e8:	3c28      	subs	r4, #40	; 0x28
 80039ea:	1e63      	subs	r3, r4, #1
 80039ec:	419c      	sbcs	r4, r3
 80039ee:	1965      	adds	r5, r4, r5
 80039f0:	e771      	b.n	80038d6 <RI_SetRegisterMotor1+0x6e>
 80039f2:	23a5      	movs	r3, #165	; 0xa5
 80039f4:	2505      	movs	r5, #5
 80039f6:	00db      	lsls	r3, r3, #3
 80039f8:	429c      	cmp	r4, r3
 80039fa:	d000      	beq.n	80039fe <RI_SetRegisterMotor1+0x196>
 80039fc:	e76b      	b.n	80038d6 <RI_SetRegisterMotor1+0x6e>
            retVal = MCPA_cfgLog(&MCPA_UART_A, rawData);
 80039fe:	4810      	ldr	r0, [pc, #64]	; (8003a40 <RI_SetRegisterMotor1+0x1d8>)
      rawData++;
 8003a00:	3102      	adds	r1, #2
            retVal = MCPA_cfgLog(&MCPA_UART_A, rawData);
 8003a02:	f002 fb12 	bl	800602a <MCPA_cfgLog>
 8003a06:	0005      	movs	r5, r0
            break;
 8003a08:	e765      	b.n	80038d6 <RI_SetRegisterMotor1+0x6e>
            rpm = (((int32_t)(*(int16_t *)&rawData[2])) << 16) | *(uint16_t *)rawData; //cstat !MISRAC2012-Rule-11.3
 8003a0a:	8888      	ldrh	r0, [r1, #4]
 8003a0c:	884b      	ldrh	r3, [r1, #2]
 8003a0e:	0400      	lsls	r0, r0, #16
            MCI_ExecSpeedRamp(pMCIN, (int16_t)((rpm * SPEED_UNIT) / U_RPM), duration);
 8003a10:	88cc      	ldrh	r4, [r1, #6]
            rpm = (((int32_t)(*(int16_t *)&rawData[2])) << 16) | *(uint16_t *)rawData; //cstat !MISRAC2012-Rule-11.3
 8003a12:	4318      	orrs	r0, r3
            MCI_ExecSpeedRamp(pMCIN, (int16_t)((rpm * SPEED_UNIT) / U_RPM), duration);
 8003a14:	2106      	movs	r1, #6
 8003a16:	f7fc fc15 	bl	8000244 <__divsi3>
 8003a1a:	0022      	movs	r2, r4
 8003a1c:	b201      	sxth	r1, r0
 8003a1e:	4802      	ldr	r0, [pc, #8]	; (8003a28 <RI_SetRegisterMotor1+0x1c0>)
 8003a20:	f7fd ff32 	bl	8001888 <MCI_ExecSpeedRamp>
  uint8_t retVal = MCP_CMD_OK;
 8003a24:	2500      	movs	r5, #0
            break;
 8003a26:	e756      	b.n	80038d6 <RI_SetRegisterMotor1+0x6e>
 8003a28:	2000068c 	.word	0x2000068c
 8003a2c:	20000144 	.word	0x20000144
 8003a30:	fffffa70 	.word	0xfffffa70
 8003a34:	fffff630 	.word	0xfffff630
 8003a38:	fffff570 	.word	0xfffff570
 8003a3c:	ffffe4a8 	.word	0xffffe4a8
 8003a40:	200002f0 	.word	0x200002f0

08003a44 <RI_GetRegisterGlobal>:

uint8_t RI_GetRegisterGlobal(uint16_t regID,uint8_t typeID,uint8_t * data,uint16_t *size,int16_t freeSpace){
 8003a44:	b570      	push	{r4, r5, r6, lr}
 8003a46:	001d      	movs	r5, r3
 8003a48:	ab04      	add	r3, sp, #16
 8003a4a:	0004      	movs	r4, r0
 8003a4c:	0016      	movs	r6, r2
 8003a4e:	0008      	movs	r0, r1
 8003a50:	2200      	movs	r2, #0
 8003a52:	5e9b      	ldrsh	r3, [r3, r2]
    uint8_t retVal = MCP_CMD_OK;
    switch (typeID)
 8003a54:	2918      	cmp	r1, #24
 8003a56:	d031      	beq.n	8003abc <RI_GetRegisterGlobal+0x78>
 8003a58:	d805      	bhi.n	8003a66 <RI_GetRegisterGlobal+0x22>
 8003a5a:	2908      	cmp	r1, #8
 8003a5c:	d018      	beq.n	8003a90 <RI_GetRegisterGlobal+0x4c>
 8003a5e:	2910      	cmp	r1, #16
 8003a60:	d01c      	beq.n	8003a9c <RI_GetRegisterGlobal+0x58>
 8003a62:	2007      	movs	r0, #7
        retVal = MCP_ERROR_BAD_DATA_TYPE;
        break;
      }
    }
  return (retVal);
}
 8003a64:	bd70      	pop	{r4, r5, r6, pc}
    switch (typeID)
 8003a66:	2920      	cmp	r1, #32
 8003a68:	d02f      	beq.n	8003aca <RI_GetRegisterGlobal+0x86>
 8003a6a:	2928      	cmp	r1, #40	; 0x28
 8003a6c:	d1f9      	bne.n	8003a62 <RI_GetRegisterGlobal+0x1e>
            retVal = MCP_ERROR_UNKNOWN_REG;
 8003a6e:	2005      	movs	r0, #5
 8003a70:	2c28      	cmp	r4, #40	; 0x28
 8003a72:	d10a      	bne.n	8003a8a <RI_GetRegisterGlobal+0x46>
            *rawSize = (uint16_t)sizeof(GlobalConfig_reg_t);
 8003a74:	220a      	movs	r2, #10
            if (((*rawSize) + 2U) > (uint16_t)freeSpace)
 8003a76:	b29b      	uxth	r3, r3
            *rawSize = (uint16_t)sizeof(GlobalConfig_reg_t);
 8003a78:	8032      	strh	r2, [r6, #0]
              retVal = MCP_ERROR_NO_TXSYNC_SPACE;
 8003a7a:	3003      	adds	r0, #3
            if (((*rawSize) + 2U) > (uint16_t)freeSpace)
 8003a7c:	2b0b      	cmp	r3, #11
 8003a7e:	d904      	bls.n	8003a8a <RI_GetRegisterGlobal+0x46>
              (void)memcpy(rawData, &globalConfig_reg, sizeof(GlobalConfig_reg_t));
 8003a80:	4913      	ldr	r1, [pc, #76]	; (8003ad0 <RI_GetRegisterGlobal+0x8c>)
 8003a82:	1cb0      	adds	r0, r6, #2
 8003a84:	f002 fd6c 	bl	8006560 <memcpy>
    uint8_t retVal = MCP_CMD_OK;
 8003a88:	2000      	movs	r0, #0
        *size = (*rawSize) + 2U;
 8003a8a:	8833      	ldrh	r3, [r6, #0]
 8003a8c:	3302      	adds	r3, #2
 8003a8e:	e013      	b.n	8003ab8 <RI_GetRegisterGlobal+0x74>
        if (freeSpace > 0)
 8003a90:	2b00      	cmp	r3, #0
 8003a92:	dde7      	ble.n	8003a64 <RI_GetRegisterGlobal+0x20>
          *size = 1;
 8003a94:	2301      	movs	r3, #1
            retVal = MCP_ERROR_UNKNOWN_REG;
 8003a96:	2005      	movs	r0, #5
            *size= 0 ; /* */
 8003a98:	802b      	strh	r3, [r5, #0]
            break;
 8003a9a:	e7e3      	b.n	8003a64 <RI_GetRegisterGlobal+0x20>
          retVal = MCP_ERROR_NO_TXSYNC_SPACE;
 8003a9c:	2008      	movs	r0, #8
        if (freeSpace >= 2)
 8003a9e:	2b01      	cmp	r3, #1
 8003aa0:	dde0      	ble.n	8003a64 <RI_GetRegisterGlobal+0x20>
          switch (regID)
 8003aa2:	4b0c      	ldr	r3, [pc, #48]	; (8003ad4 <RI_GetRegisterGlobal+0x90>)
 8003aa4:	3803      	subs	r0, #3
 8003aa6:	18e4      	adds	r4, r4, r3
 8003aa8:	2340      	movs	r3, #64	; 0x40
 8003aaa:	439c      	bics	r4, r3
 8003aac:	b2a4      	uxth	r4, r4
    uint8_t retVal = MCP_CMD_OK;
 8003aae:	1e63      	subs	r3, r4, #1
 8003ab0:	419c      	sbcs	r4, r3
          *size = 2;
 8003ab2:	2302      	movs	r3, #2
    uint8_t retVal = MCP_CMD_OK;
 8003ab4:	4264      	negs	r4, r4
 8003ab6:	4020      	ands	r0, r4
        *size = (*rawSize) + 2U;
 8003ab8:	802b      	strh	r3, [r5, #0]
        break;
 8003aba:	e7d3      	b.n	8003a64 <RI_GetRegisterGlobal+0x20>
          retVal = MCP_ERROR_NO_TXSYNC_SPACE;
 8003abc:	2008      	movs	r0, #8
        if (freeSpace >= 4)
 8003abe:	2b03      	cmp	r3, #3
 8003ac0:	ddd0      	ble.n	8003a64 <RI_GetRegisterGlobal+0x20>
          *size = 4;
 8003ac2:	2304      	movs	r3, #4
              retVal = MCP_ERROR_UNKNOWN_REG;
 8003ac4:	3803      	subs	r0, #3
          *size = 4;
 8003ac6:	802b      	strh	r3, [r5, #0]
 8003ac8:	e7cc      	b.n	8003a64 <RI_GetRegisterGlobal+0x20>
            *size= 0 ; /* */
 8003aca:	2300      	movs	r3, #0
 8003acc:	e7e3      	b.n	8003a96 <RI_GetRegisterGlobal+0x52>
 8003ace:	46c0      	nop			; (mov r8, r8)
 8003ad0:	080066ba 	.word	0x080066ba
 8003ad4:	fffff1b0 	.word	0xfffff1b0

08003ad8 <RI_GetRegisterMotor1>:

  uint8_t RI_GetRegisterMotor1(uint16_t regID,uint8_t typeID,uint8_t * data,uint16_t *size,int16_t freeSpace) {
 8003ad8:	b5f0      	push	{r4, r5, r6, r7, lr}
 8003ada:	b085      	sub	sp, #20
 8003adc:	001f      	movs	r7, r3
 8003ade:	ab0a      	add	r3, sp, #40	; 0x28
 8003ae0:	0016      	movs	r6, r2
 8003ae2:	0005      	movs	r5, r0
 8003ae4:	000c      	movs	r4, r1
 8003ae6:	2200      	movs	r2, #0
 8003ae8:	5e9b      	ldrsh	r3, [r3, r2]
    uint8_t retVal = MCP_CMD_OK;
    uint8_t motorID=0;
    MCI_Handle_t *pMCIN = &Mci[motorID];
    BusVoltageSensor_Handle_t* BusVoltageSensor= &BusVoltageSensor_M1._Super;
    switch (typeID)
 8003aea:	2918      	cmp	r1, #24
 8003aec:	d100      	bne.n	8003af0 <RI_GetRegisterMotor1+0x18>
 8003aee:	e09e      	b.n	8003c2e <RI_GetRegisterMotor1+0x156>
 8003af0:	d807      	bhi.n	8003b02 <RI_GetRegisterMotor1+0x2a>
 8003af2:	2908      	cmp	r1, #8
 8003af4:	d01c      	beq.n	8003b30 <RI_GetRegisterMotor1+0x58>
 8003af6:	2910      	cmp	r1, #16
 8003af8:	d02d      	beq.n	8003b56 <RI_GetRegisterMotor1+0x7e>
 8003afa:	2407      	movs	r4, #7
        retVal = MCP_ERROR_BAD_DATA_TYPE;
        break;
      }
    }
    return (retVal);
  }
 8003afc:	0020      	movs	r0, r4
 8003afe:	b005      	add	sp, #20
 8003b00:	bdf0      	pop	{r4, r5, r6, r7, pc}
    switch (typeID)
 8003b02:	2920      	cmp	r1, #32
 8003b04:	d100      	bne.n	8003b08 <RI_GetRegisterMotor1+0x30>
 8003b06:	e0b9      	b.n	8003c7c <RI_GetRegisterMotor1+0x1a4>
 8003b08:	2928      	cmp	r1, #40	; 0x28
 8003b0a:	d1f6      	bne.n	8003afa <RI_GetRegisterMotor1+0x22>
        rawData++;
 8003b0c:	2294      	movs	r2, #148	; 0x94
 8003b0e:	1cb0      	adds	r0, r6, #2
        switch (regID)
 8003b10:	0052      	lsls	r2, r2, #1
 8003b12:	4295      	cmp	r5, r2
 8003b14:	d100      	bne.n	8003b18 <RI_GetRegisterMotor1+0x40>
 8003b16:	e0dd      	b.n	8003cd4 <RI_GetRegisterMotor1+0x1fc>
 8003b18:	d900      	bls.n	8003b1c <RI_GetRegisterMotor1+0x44>
 8003b1a:	e0b3      	b.n	8003c84 <RI_GetRegisterMotor1+0x1ac>
 8003b1c:	2da8      	cmp	r5, #168	; 0xa8
 8003b1e:	d100      	bne.n	8003b22 <RI_GetRegisterMotor1+0x4a>
 8003b20:	e0c4      	b.n	8003cac <RI_GetRegisterMotor1+0x1d4>
 8003b22:	2de8      	cmp	r5, #232	; 0xe8
 8003b24:	d100      	bne.n	8003b28 <RI_GetRegisterMotor1+0x50>
 8003b26:	e0ce      	b.n	8003cc6 <RI_GetRegisterMotor1+0x1ee>
 8003b28:	2405      	movs	r4, #5
        *size = (*rawSize) + 2U;
 8003b2a:	8833      	ldrh	r3, [r6, #0]
 8003b2c:	3302      	adds	r3, #2
 8003b2e:	e010      	b.n	8003b52 <RI_GetRegisterMotor1+0x7a>
        if (freeSpace > 0)
 8003b30:	2b00      	cmp	r3, #0
 8003b32:	dde3      	ble.n	8003afc <RI_GetRegisterMotor1+0x24>
          switch (regID)
 8003b34:	2848      	cmp	r0, #72	; 0x48
 8003b36:	d006      	beq.n	8003b46 <RI_GetRegisterMotor1+0x6e>
 8003b38:	2405      	movs	r4, #5
 8003b3a:	2888      	cmp	r0, #136	; 0x88
 8003b3c:	d108      	bne.n	8003b50 <RI_GetRegisterMotor1+0x78>
              *data = (uint8_t)MCI_GetControlMode(pMCIN);
 8003b3e:	4869      	ldr	r0, [pc, #420]	; (8003ce4 <RI_GetRegisterMotor1+0x20c>)
 8003b40:	f7fd ff61 	bl	8001a06 <MCI_GetControlMode>
 8003b44:	e002      	b.n	8003b4c <RI_GetRegisterMotor1+0x74>
              *data = (uint8_t)MCI_GetSTMState(pMCIN);
 8003b46:	4867      	ldr	r0, [pc, #412]	; (8003ce4 <RI_GetRegisterMotor1+0x20c>)
 8003b48:	f7fd fef2 	bl	8001930 <MCI_GetSTMState>
    uint8_t retVal = MCP_CMD_OK;
 8003b4c:	2400      	movs	r4, #0
              *data = (uint8_t)MCI_GetControlMode(pMCIN);
 8003b4e:	7030      	strb	r0, [r6, #0]
          *size = 1;
 8003b50:	2301      	movs	r3, #1
        *size = (*rawSize) + 2U;
 8003b52:	803b      	strh	r3, [r7, #0]
        break;
 8003b54:	e7d2      	b.n	8003afc <RI_GetRegisterMotor1+0x24>
          retVal = MCP_ERROR_NO_TXSYNC_SPACE;
 8003b56:	2408      	movs	r4, #8
        if (freeSpace >= 2)
 8003b58:	2b01      	cmp	r3, #1
 8003b5a:	ddcf      	ble.n	8003afc <RI_GetRegisterMotor1+0x24>
          switch (regID)
 8003b5c:	23a1      	movs	r3, #161	; 0xa1
 8003b5e:	011b      	lsls	r3, r3, #4
 8003b60:	4298      	cmp	r0, r3
 8003b62:	d052      	beq.n	8003c0a <RI_GetRegisterMotor1+0x132>
 8003b64:	d81d      	bhi.n	8003ba2 <RI_GetRegisterMotor1+0xca>
 8003b66:	23b2      	movs	r3, #178	; 0xb2
 8003b68:	00db      	lsls	r3, r3, #3
 8003b6a:	4298      	cmp	r0, r3
 8003b6c:	d041      	beq.n	8003bf2 <RI_GetRegisterMotor1+0x11a>
 8003b6e:	d80e      	bhi.n	8003b8e <RI_GetRegisterMotor1+0xb6>
 8003b70:	28d0      	cmp	r0, #208	; 0xd0
 8003b72:	d036      	beq.n	8003be2 <RI_GetRegisterMotor1+0x10a>
 8003b74:	2388      	movs	r3, #136	; 0x88
 8003b76:	005b      	lsls	r3, r3, #1
 8003b78:	4298      	cmp	r0, r3
 8003b7a:	d036      	beq.n	8003bea <RI_GetRegisterMotor1+0x112>
 8003b7c:	3c03      	subs	r4, #3
 8003b7e:	2890      	cmp	r0, #144	; 0x90
 8003b80:	d122      	bne.n	8003bc8 <RI_GetRegisterMotor1+0xf0>
              *regdata16 = PID_GetKP(&PIDSpeedHandle_M1);
 8003b82:	4859      	ldr	r0, [pc, #356]	; (8003ce8 <RI_GetRegisterMotor1+0x210>)
 8003b84:	f002 fad7 	bl	8006136 <PID_GetKP>
    uint8_t retVal = MCP_CMD_OK;
 8003b88:	2400      	movs	r4, #0
              *regdata16 = SPD_GetS16Speed ((SpeednPosFdbk_Handle_t*) &HALL_M1);
 8003b8a:	8030      	strh	r0, [r6, #0]
              break;
 8003b8c:	e01c      	b.n	8003bc8 <RI_GetRegisterMotor1+0xf0>
 8003b8e:	23ba      	movs	r3, #186	; 0xba
 8003b90:	00db      	lsls	r3, r3, #3
 8003b92:	4298      	cmp	r0, r3
 8003b94:	d031      	beq.n	8003bfa <RI_GetRegisterMotor1+0x122>
 8003b96:	239d      	movs	r3, #157	; 0x9d
 8003b98:	011b      	lsls	r3, r3, #4
 8003b9a:	4298      	cmp	r0, r3
 8003b9c:	d031      	beq.n	8003c02 <RI_GetRegisterMotor1+0x12a>
 8003b9e:	2405      	movs	r4, #5
 8003ba0:	e012      	b.n	8003bc8 <RI_GetRegisterMotor1+0xf0>
 8003ba2:	23e9      	movs	r3, #233	; 0xe9
    uint8_t retVal = MCP_CMD_OK;
 8003ba4:	2400      	movs	r4, #0
 8003ba6:	011b      	lsls	r3, r3, #4
 8003ba8:	4298      	cmp	r0, r3
 8003baa:	d00d      	beq.n	8003bc8 <RI_GetRegisterMotor1+0xf0>
 8003bac:	d80e      	bhi.n	8003bcc <RI_GetRegisterMotor1+0xf4>
 8003bae:	23a9      	movs	r3, #169	; 0xa9
 8003bb0:	011b      	lsls	r3, r3, #4
 8003bb2:	4298      	cmp	r0, r3
 8003bb4:	d033      	beq.n	8003c1e <RI_GetRegisterMotor1+0x146>
 8003bb6:	23e5      	movs	r3, #229	; 0xe5
 8003bb8:	011b      	lsls	r3, r3, #4
 8003bba:	4298      	cmp	r0, r3
 8003bbc:	d004      	beq.n	8003bc8 <RI_GetRegisterMotor1+0xf0>
 8003bbe:	23a5      	movs	r3, #165	; 0xa5
 8003bc0:	011b      	lsls	r3, r3, #4
 8003bc2:	4298      	cmp	r0, r3
 8003bc4:	d026      	beq.n	8003c14 <RI_GetRegisterMotor1+0x13c>
 8003bc6:	3405      	adds	r4, #5
          *size = 2;
 8003bc8:	2302      	movs	r3, #2
 8003bca:	e7c2      	b.n	8003b52 <RI_GetRegisterMotor1+0x7a>
 8003bcc:	23ed      	movs	r3, #237	; 0xed
 8003bce:	011b      	lsls	r3, r3, #4
 8003bd0:	4298      	cmp	r0, r3
 8003bd2:	d028      	beq.n	8003c26 <RI_GetRegisterMotor1+0x14e>
 8003bd4:	3340      	adds	r3, #64	; 0x40
 8003bd6:	4298      	cmp	r0, r3
 8003bd8:	d1e1      	bne.n	8003b9e <RI_GetRegisterMotor1+0xc6>
              *regdata16 = SPD_GetS16Speed ((SpeednPosFdbk_Handle_t*) &HALL_M1);
 8003bda:	4844      	ldr	r0, [pc, #272]	; (8003cec <RI_GetRegisterMotor1+0x214>)
 8003bdc:	f002 fbe3 	bl	80063a6 <SPD_GetS16Speed>
 8003be0:	e7d2      	b.n	8003b88 <RI_GetRegisterMotor1+0xb0>
              *regdata16 = PID_GetKI(&PIDSpeedHandle_M1);
 8003be2:	4841      	ldr	r0, [pc, #260]	; (8003ce8 <RI_GetRegisterMotor1+0x210>)
 8003be4:	f002 faaa 	bl	800613c <PID_GetKI>
 8003be8:	e7ce      	b.n	8003b88 <RI_GetRegisterMotor1+0xb0>
              *regdata16 = PID_GetKD(&PIDSpeedHandle_M1);
 8003bea:	483f      	ldr	r0, [pc, #252]	; (8003ce8 <RI_GetRegisterMotor1+0x210>)
 8003bec:	f002 faad 	bl	800614a <PID_GetKD>
 8003bf0:	e7ca      	b.n	8003b88 <RI_GetRegisterMotor1+0xb0>
              *regdataU16 = VBS_GetAvBusVoltage_V(BusVoltageSensor);
 8003bf2:	483f      	ldr	r0, [pc, #252]	; (8003cf0 <RI_GetRegisterMotor1+0x218>)
 8003bf4:	f002 f8e6 	bl	8005dc4 <VBS_GetAvBusVoltage_V>
 8003bf8:	e7c6      	b.n	8003b88 <RI_GetRegisterMotor1+0xb0>
              *regdata16 = NTC_GetAvTemp_C(&TempSensor_M1);
 8003bfa:	483e      	ldr	r0, [pc, #248]	; (8003cf4 <RI_GetRegisterMotor1+0x21c>)
 8003bfc:	f002 fa7f 	bl	80060fe <NTC_GetAvTemp_C>
 8003c00:	e7c2      	b.n	8003b88 <RI_GetRegisterMotor1+0xb0>
              *regdata16 = MCI_GetVqd(pMCIN).q;
 8003c02:	4838      	ldr	r0, [pc, #224]	; (8003ce4 <RI_GetRegisterMotor1+0x20c>)
 8003c04:	f7fd ff18 	bl	8001a38 <MCI_GetVqd>
 8003c08:	e7be      	b.n	8003b88 <RI_GetRegisterMotor1+0xb0>
              *regdata16 = MCI_GetVqd(pMCIN).d;
 8003c0a:	4836      	ldr	r0, [pc, #216]	; (8003ce4 <RI_GetRegisterMotor1+0x20c>)
 8003c0c:	f7fd ff14 	bl	8001a38 <MCI_GetVqd>
              *regdata16 = MCI_GetValphabeta(pMCIN).beta;
 8003c10:	0c00      	lsrs	r0, r0, #16
 8003c12:	e7b9      	b.n	8003b88 <RI_GetRegisterMotor1+0xb0>
              *regdata16 = MCI_GetValphabeta(pMCIN).alpha;
 8003c14:	4833      	ldr	r0, [pc, #204]	; (8003ce4 <RI_GetRegisterMotor1+0x20c>)
 8003c16:	f7fd ff1d 	bl	8001a54 <MCI_GetValphabeta>
 8003c1a:	8030      	strh	r0, [r6, #0]
              break;
 8003c1c:	e7d4      	b.n	8003bc8 <RI_GetRegisterMotor1+0xf0>
              *regdata16 = MCI_GetValphabeta(pMCIN).beta;
 8003c1e:	4831      	ldr	r0, [pc, #196]	; (8003ce4 <RI_GetRegisterMotor1+0x20c>)
 8003c20:	f7fd ff18 	bl	8001a54 <MCI_GetValphabeta>
 8003c24:	e7f4      	b.n	8003c10 <RI_GetRegisterMotor1+0x138>
              *regdata16 = SPD_GetElAngle ((SpeednPosFdbk_Handle_t*) &HALL_M1);
 8003c26:	4831      	ldr	r0, [pc, #196]	; (8003cec <RI_GetRegisterMotor1+0x214>)
 8003c28:	f002 fb88 	bl	800633c <SPD_GetElAngle>
 8003c2c:	e7ac      	b.n	8003b88 <RI_GetRegisterMotor1+0xb0>
          retVal = MCP_ERROR_NO_TXSYNC_SPACE;
 8003c2e:	2408      	movs	r4, #8
        if (freeSpace >= 4)
 8003c30:	2b03      	cmp	r3, #3
 8003c32:	dc00      	bgt.n	8003c36 <RI_GetRegisterMotor1+0x15e>
 8003c34:	e762      	b.n	8003afc <RI_GetRegisterMotor1+0x24>
          switch (regID)
 8003c36:	2898      	cmp	r0, #152	; 0x98
 8003c38:	d01c      	beq.n	8003c74 <RI_GetRegisterMotor1+0x19c>
 8003c3a:	d80d      	bhi.n	8003c58 <RI_GetRegisterMotor1+0x180>
 8003c3c:	2818      	cmp	r0, #24
 8003c3e:	d014      	beq.n	8003c6a <RI_GetRegisterMotor1+0x192>
 8003c40:	3c03      	subs	r4, #3
 8003c42:	2858      	cmp	r0, #88	; 0x58
 8003c44:	d106      	bne.n	8003c54 <RI_GetRegisterMotor1+0x17c>
              *regdata32 = (((int32_t)MCI_GetAvrgMecSpeedUnit(pMCIN) * U_RPM) / SPEED_UNIT);
 8003c46:	4827      	ldr	r0, [pc, #156]	; (8003ce4 <RI_GetRegisterMotor1+0x20c>)
 8003c48:	f7fd feea 	bl	8001a20 <MCI_GetAvrgMecSpeedUnit>
              *regdata32 = (((int32_t)MCI_GetMecSpeedRefUnit(pMCIN) * U_RPM) / SPEED_UNIT);
 8003c4c:	2306      	movs	r3, #6
 8003c4e:	4343      	muls	r3, r0
 8003c50:	6033      	str	r3, [r6, #0]
    uint8_t retVal = MCP_CMD_OK;
 8003c52:	2400      	movs	r4, #0
          *size = 4;
 8003c54:	2304      	movs	r3, #4
 8003c56:	e77c      	b.n	8003b52 <RI_GetRegisterMotor1+0x7a>
 8003c58:	4b27      	ldr	r3, [pc, #156]	; (8003cf8 <RI_GetRegisterMotor1+0x220>)
 8003c5a:	2405      	movs	r4, #5
 8003c5c:	4298      	cmp	r0, r3
 8003c5e:	d1f9      	bne.n	8003c54 <RI_GetRegisterMotor1+0x17c>
              ReadVal.Float_Val = PQD_GetAvrgElMotorPowerW(pMPM[M1]);
 8003c60:	4b26      	ldr	r3, [pc, #152]	; (8003cfc <RI_GetRegisterMotor1+0x224>)
 8003c62:	6818      	ldr	r0, [r3, #0]
 8003c64:	f002 facf 	bl	8006206 <PQD_GetAvrgElMotorPowerW>
 8003c68:	e002      	b.n	8003c70 <RI_GetRegisterMotor1+0x198>
              *regdataU32 = MCI_GetFaultState(pMCIN);
 8003c6a:	481e      	ldr	r0, [pc, #120]	; (8003ce4 <RI_GetRegisterMotor1+0x20c>)
 8003c6c:	f7fd fec6 	bl	80019fc <MCI_GetFaultState>
              *regdataU32 = ReadVal.U32_Val; //cstat !UNION-type-punning
 8003c70:	6030      	str	r0, [r6, #0]
 8003c72:	e7ee      	b.n	8003c52 <RI_GetRegisterMotor1+0x17a>
              *regdata32 = (((int32_t)MCI_GetMecSpeedRefUnit(pMCIN) * U_RPM) / SPEED_UNIT);
 8003c74:	481b      	ldr	r0, [pc, #108]	; (8003ce4 <RI_GetRegisterMotor1+0x20c>)
 8003c76:	f7fd feda 	bl	8001a2e <MCI_GetMecSpeedRefUnit>
 8003c7a:	e7e7      	b.n	8003c4c <RI_GetRegisterMotor1+0x174>
            *size= 0 ; /* */
 8003c7c:	2300      	movs	r3, #0
            retVal = MCP_ERROR_UNKNOWN_REG;
 8003c7e:	2405      	movs	r4, #5
            *size= 0 ; /* */
 8003c80:	803b      	strh	r3, [r7, #0]
            break;
 8003c82:	e73b      	b.n	8003afc <RI_GetRegisterMotor1+0x24>
 8003c84:	23d4      	movs	r3, #212	; 0xd4
 8003c86:	005b      	lsls	r3, r3, #1
 8003c88:	429d      	cmp	r5, r3
 8003c8a:	d000      	beq.n	8003c8e <RI_GetRegisterMotor1+0x1b6>
 8003c8c:	e74c      	b.n	8003b28 <RI_GetRegisterMotor1+0x50>
            int32_t rpm32 = ((int32_t)(MCI_GetLastRampFinalSpeed(pMCIN) * U_RPM) / (int32_t)SPEED_UNIT);
 8003c8e:	4d15      	ldr	r5, [pc, #84]	; (8003ce4 <RI_GetRegisterMotor1+0x20c>)
 8003c90:	2406      	movs	r4, #6
 8003c92:	0028      	movs	r0, r5
 8003c94:	f7fd feba 	bl	8001a0c <MCI_GetLastRampFinalSpeed>
 8003c98:	4360      	muls	r0, r4
            *rpm16p = (uint16_t)rpm32;
 8003c9a:	8070      	strh	r0, [r6, #2]
            *(rpm16p+1) = (uint16_t)(rpm32>>16);
 8003c9c:	1400      	asrs	r0, r0, #16
 8003c9e:	80b0      	strh	r0, [r6, #4]
            *duration = MCI_GetLastRampFinalDuration(pMCIN);
 8003ca0:	0028      	movs	r0, r5
 8003ca2:	f7fd feb6 	bl	8001a12 <MCI_GetLastRampFinalDuration>
            *rawSize = 6;
 8003ca6:	8034      	strh	r4, [r6, #0]
            *duration = MCI_GetLastRampFinalDuration(pMCIN);
 8003ca8:	80f0      	strh	r0, [r6, #6]
            *rawSize = 6;
 8003caa:	e00a      	b.n	8003cc2 <RI_GetRegisterMotor1+0x1ea>
            *rawSize = (uint16_t)sizeof(ApplicationConfig_reg_t);
 8003cac:	2210      	movs	r2, #16
            if (((*rawSize) + 2U) > (uint16_t)freeSpace)
 8003cae:	b29b      	uxth	r3, r3
            *rawSize = (uint16_t)sizeof(ApplicationConfig_reg_t);
 8003cb0:	8032      	strh	r2, [r6, #0]
            if (((*rawSize) + 2U) > (uint16_t)freeSpace)
 8003cb2:	2b11      	cmp	r3, #17
 8003cb4:	d801      	bhi.n	8003cba <RI_GetRegisterMotor1+0x1e2>
              retVal = MCP_ERROR_NO_TXSYNC_SPACE;
 8003cb6:	2408      	movs	r4, #8
 8003cb8:	e737      	b.n	8003b2a <RI_GetRegisterMotor1+0x52>
              ApplicationConfig_reg_t const *pApplicationConfig_reg = ApplicationConfig_reg[motorID];
 8003cba:	4b11      	ldr	r3, [pc, #68]	; (8003d00 <RI_GetRegisterMotor1+0x228>)
              (void)memcpy(rawData, (const uint8_t *)pFOCConfig_reg, sizeof(FOCFwConfig_reg_t));
 8003cbc:	6819      	ldr	r1, [r3, #0]
              memcpy(rawData, &scaleParams_M1, sizeof(ScaleParams_t) );
 8003cbe:	f002 fc4f 	bl	8006560 <memcpy>
    uint8_t retVal = MCP_CMD_OK;
 8003cc2:	2400      	movs	r4, #0
            break;
 8003cc4:	e731      	b.n	8003b2a <RI_GetRegisterMotor1+0x52>
            *rawSize = (uint16_t)sizeof(FOCFwConfig_reg_t);
 8003cc6:	220e      	movs	r2, #14
            if (((*rawSize) + 2U) > (uint16_t)freeSpace)
 8003cc8:	b29b      	uxth	r3, r3
            *rawSize = (uint16_t)sizeof(FOCFwConfig_reg_t);
 8003cca:	8032      	strh	r2, [r6, #0]
            if (((*rawSize) + 2U) > (uint16_t)freeSpace)
 8003ccc:	2b0f      	cmp	r3, #15
 8003cce:	d9f2      	bls.n	8003cb6 <RI_GetRegisterMotor1+0x1de>
              FOCFwConfig_reg_t const *pFOCConfig_reg = FOCConfig_reg[motorID];
 8003cd0:	4b0c      	ldr	r3, [pc, #48]	; (8003d04 <RI_GetRegisterMotor1+0x22c>)
 8003cd2:	e7f3      	b.n	8003cbc <RI_GetRegisterMotor1+0x1e4>
            *rawSize = 12;
 8003cd4:	220c      	movs	r2, #12
            if ((*rawSize) +2U > (uint16_t)freeSpace)
 8003cd6:	b29b      	uxth	r3, r3
            *rawSize = 12;
 8003cd8:	8032      	strh	r2, [r6, #0]
            if ((*rawSize) +2U > (uint16_t)freeSpace)
 8003cda:	2b0d      	cmp	r3, #13
 8003cdc:	d9eb      	bls.n	8003cb6 <RI_GetRegisterMotor1+0x1de>
              memcpy(rawData, &scaleParams_M1, sizeof(ScaleParams_t) );
 8003cde:	490a      	ldr	r1, [pc, #40]	; (8003d08 <RI_GetRegisterMotor1+0x230>)
 8003ce0:	3204      	adds	r2, #4
 8003ce2:	e7ec      	b.n	8003cbe <RI_GetRegisterMotor1+0x1e6>
 8003ce4:	2000068c 	.word	0x2000068c
 8003ce8:	20000144 	.word	0x20000144
 8003cec:	20000020 	.word	0x20000020
 8003cf0:	20000000 	.word	0x20000000
 8003cf4:	2000029c 	.word	0x2000029c
 8003cf8:	00001b58 	.word	0x00001b58
 8003cfc:	200002c8 	.word	0x200002c8
 8003d00:	200002d8 	.word	0x200002d8
 8003d04:	200002dc 	.word	0x200002dc
 8003d08:	200002e0 	.word	0x200002e0

08003d0c <RI_GetIDSize>:

uint8_t RI_GetIDSize(uint16_t dataID)
{
  uint8_t typeID = ((uint8_t)dataID) & TYPE_MASK;
 8003d0c:	2338      	movs	r3, #56	; 0x38
 8003d0e:	4003      	ands	r3, r0
 8003d10:	3b08      	subs	r3, #8
 8003d12:	b2db      	uxtb	r3, r3
 8003d14:	2000      	movs	r0, #0
 8003d16:	2b10      	cmp	r3, #16
 8003d18:	d801      	bhi.n	8003d1e <RI_GetIDSize+0x12>
 8003d1a:	4a01      	ldr	r2, [pc, #4]	; (8003d20 <RI_GetIDSize+0x14>)
 8003d1c:	5cd0      	ldrb	r0, [r2, r3]
      break;
    }
  }

  return (result);
}
 8003d1e:	4770      	bx	lr
 8003d20:	08006906 	.word	0x08006906

08003d24 <RI_GetPtrReg>:

    MCI_Handle_t *pMCIN = &Mci[0];
    uint16_t regID = dataID & REG_MASK;
    uint8_t typeID = ((uint8_t)dataID) & TYPE_MASK;

    switch (typeID)
 8003d24:	2338      	movs	r3, #56	; 0x38
 8003d26:	4003      	ands	r3, r0
 8003d28:	2b10      	cmp	r3, #16
 8003d2a:	d10f      	bne.n	8003d4c <RI_GetPtrReg+0x28>
    uint16_t regID = dataID & REG_MASK;
 8003d2c:	3b09      	subs	r3, #9
 8003d2e:	4398      	bics	r0, r3
 8003d30:	23a9      	movs	r3, #169	; 0xa9
 8003d32:	011b      	lsls	r3, r3, #4
 8003d34:	4298      	cmp	r0, r3
 8003d36:	d023      	beq.n	8003d80 <RI_GetPtrReg+0x5c>
 8003d38:	d80b      	bhi.n	8003d52 <RI_GetPtrReg+0x2e>
 8003d3a:	3b80      	subs	r3, #128	; 0x80
 8003d3c:	4298      	cmp	r0, r3
 8003d3e:	d017      	beq.n	8003d70 <RI_GetPtrReg+0x4c>
 8003d40:	3340      	adds	r3, #64	; 0x40
 8003d42:	4298      	cmp	r0, r3
 8003d44:	d018      	beq.n	8003d78 <RI_GetPtrReg+0x54>
 8003d46:	3b80      	subs	r3, #128	; 0x80
 8003d48:	4298      	cmp	r0, r3
 8003d4a:	d00d      	beq.n	8003d68 <RI_GetPtrReg+0x44>
          }

          default:
          {
            *dataPtr = &nullData16;
            retVal = MCP_ERROR_UNKNOWN_REG;
 8003d4c:	2005      	movs	r0, #5
 8003d4e:	4b0f      	ldr	r3, [pc, #60]	; (8003d8c <RI_GetPtrReg+0x68>)
 8003d50:	e008      	b.n	8003d64 <RI_GetPtrReg+0x40>
 8003d52:	23ed      	movs	r3, #237	; 0xed
 8003d54:	011b      	lsls	r3, r3, #4
 8003d56:	4298      	cmp	r0, r3
 8003d58:	d016      	beq.n	8003d88 <RI_GetPtrReg+0x64>
 8003d5a:	3340      	adds	r3, #64	; 0x40
 8003d5c:	4298      	cmp	r0, r3
 8003d5e:	d1f5      	bne.n	8003d4c <RI_GetPtrReg+0x28>
 8003d60:	4b0b      	ldr	r3, [pc, #44]	; (8003d90 <RI_GetPtrReg+0x6c>)
  uint8_t retVal = MCP_CMD_OK;
 8003d62:	2000      	movs	r0, #0
            *dataPtr = &(pMCIN->pFOCVars->Vqd.d);
 8003d64:	600b      	str	r3, [r1, #0]
    }
#ifdef NULL_PTR_CHECK_REG_INT
  }
#endif
  return (retVal);
}
 8003d66:	4770      	bx	lr
            *dataPtr = &(pMCIN->pFOCVars->Vqd.q);
 8003d68:	4b0a      	ldr	r3, [pc, #40]	; (8003d94 <RI_GetPtrReg+0x70>)
 8003d6a:	685b      	ldr	r3, [r3, #4]
 8003d6c:	3316      	adds	r3, #22
            break;
 8003d6e:	e7f8      	b.n	8003d62 <RI_GetPtrReg+0x3e>
            *dataPtr = &(pMCIN->pFOCVars->Vqd.d);
 8003d70:	4b08      	ldr	r3, [pc, #32]	; (8003d94 <RI_GetPtrReg+0x70>)
 8003d72:	685b      	ldr	r3, [r3, #4]
 8003d74:	3318      	adds	r3, #24
 8003d76:	e7f4      	b.n	8003d62 <RI_GetPtrReg+0x3e>
            *dataPtr = &(pMCIN->pFOCVars->Valphabeta.alpha);
 8003d78:	4b06      	ldr	r3, [pc, #24]	; (8003d94 <RI_GetPtrReg+0x70>)
 8003d7a:	685b      	ldr	r3, [r3, #4]
 8003d7c:	331a      	adds	r3, #26
            break;
 8003d7e:	e7f0      	b.n	8003d62 <RI_GetPtrReg+0x3e>
            *dataPtr = &(pMCIN->pFOCVars->Valphabeta.beta);
 8003d80:	4b04      	ldr	r3, [pc, #16]	; (8003d94 <RI_GetPtrReg+0x70>)
 8003d82:	685b      	ldr	r3, [r3, #4]
 8003d84:	331c      	adds	r3, #28
            break;
 8003d86:	e7ec      	b.n	8003d62 <RI_GetPtrReg+0x3e>
 8003d88:	4b03      	ldr	r3, [pc, #12]	; (8003d98 <RI_GetPtrReg+0x74>)
 8003d8a:	e7ea      	b.n	8003d62 <RI_GetPtrReg+0x3e>
 8003d8c:	20000988 	.word	0x20000988
 8003d90:	2000002c 	.word	0x2000002c
 8003d94:	2000068c 	.word	0x2000068c
 8003d98:	20000024 	.word	0x20000024

08003d9c <RCM_RegisterRegConv>:
  * @param  regConv Pointer to the regular conversion parameters.
  *         Contains ADC, Channel and sampling time to be used.
  *
  */
void RCM_RegisterRegConv(RegConv_t *regConv)
{
 8003d9c:	b5f0      	push	{r4, r5, r6, r7, lr}
    handle = 0U;
  }
  else
  {
#endif
    uint8_t i = 0;
 8003d9e:	2200      	movs	r2, #0
  uint8_t handle = 255U;
 8003da0:	23ff      	movs	r3, #255	; 0xff
      {
        if ((RCM_handle_array [i]->channel == regConv->channel)
         && (RCM_handle_array [i]->regADC == regConv->regADC))
        {
          handle = i; /* Reuse the same handle */
          i = RCM_MAX_CONV; /* We can skip the rest of the loop */
 8003da2:	2704      	movs	r7, #4
      if ((0 == RCM_handle_array [i]) && (handle > RCM_MAX_CONV))
 8003da4:	4e1d      	ldr	r6, [pc, #116]	; (8003e1c <RCM_RegisterRegConv+0x80>)
 8003da6:	0091      	lsls	r1, r2, #2
 8003da8:	5989      	ldr	r1, [r1, r6]
 8003daa:	2900      	cmp	r1, #0
 8003dac:	d12b      	bne.n	8003e06 <RCM_RegisterRegConv+0x6a>
 8003dae:	2b04      	cmp	r3, #4
 8003db0:	d900      	bls.n	8003db4 <RCM_RegisterRegConv+0x18>
 8003db2:	0013      	movs	r3, r2
      }
      else
      {
        /* Nothing to do */
      }
      i++;
 8003db4:	3201      	adds	r2, #1
 8003db6:	b2d2      	uxtb	r2, r2
    while (i < RCM_MAX_CONV)
 8003db8:	2a03      	cmp	r2, #3
 8003dba:	d9f4      	bls.n	8003da6 <RCM_RegisterRegConv+0xa>
    }
    if (handle < RCM_MAX_CONV)
 8003dbc:	2b03      	cmp	r3, #3
 8003dbe:	d820      	bhi.n	8003e02 <RCM_RegisterRegConv+0x66>
    {
      RCM_handle_array [handle] = regConv;
      RCM_CB_array [handle].cb = NULL; /* If a previous callback was attached, it is cleared */
 8003dc0:	2400      	movs	r4, #0
      RCM_handle_array [handle] = regConv;
 8003dc2:	009a      	lsls	r2, r3, #2
 8003dc4:	50b0      	str	r0, [r6, r2]
      RCM_CB_array [handle].cb = NULL; /* If a previous callback was attached, it is cleared */
 8003dc6:	4a16      	ldr	r2, [pc, #88]	; (8003e20 <RCM_RegisterRegConv+0x84>)
 8003dc8:	00d9      	lsls	r1, r3, #3
 8003dca:	508c      	str	r4, [r1, r2]
      if (0U == LL_ADC_IsEnabled(regConv->regADC))
 8003dcc:	6802      	ldr	r2, [r0, #0]
  return (READ_BIT(ADCx->CR, ADC_CR_ADEN) == (ADC_CR_ADEN));
 8003dce:	6891      	ldr	r1, [r2, #8]
 8003dd0:	07c9      	lsls	r1, r1, #31
 8003dd2:	d40e      	bmi.n	8003df2 <RCM_RegisterRegConv+0x56>
  MODIFY_REG(ADCx->CR,
 8003dd4:	2180      	movs	r1, #128	; 0x80
 8003dd6:	6894      	ldr	r4, [r2, #8]
 8003dd8:	4d12      	ldr	r5, [pc, #72]	; (8003e24 <RCM_RegisterRegConv+0x88>)
 8003dda:	0609      	lsls	r1, r1, #24
 8003ddc:	402c      	ands	r4, r5
 8003dde:	4321      	orrs	r1, r4
 8003de0:	6091      	str	r1, [r2, #8]
  return (READ_BIT(ADCx->CR, ADC_CR_ADCAL) == (ADC_CR_ADCAL));
 8003de2:	6891      	ldr	r1, [r2, #8]
      {

        LL_ADC_StartCalibration( regConv->regADC);
        while (1U == LL_ADC_IsCalibrationOnGoing(regConv->regADC))
 8003de4:	2900      	cmp	r1, #0
 8003de6:	dbfc      	blt.n	8003de2 <RCM_RegisterRegConv+0x46>
  MODIFY_REG(ADCx->CR,
 8003de8:	2101      	movs	r1, #1
 8003dea:	6894      	ldr	r4, [r2, #8]
 8003dec:	402c      	ands	r4, r5
 8003dee:	4321      	orrs	r1, r4
 8003df0:	6091      	str	r1, [r2, #8]
      else
      {
        /* Nothing to do */
      }
      /* Conversion handler is created, will be enabled by the first call to RCM_ExecRegularConv */
      RCM_NoInj_array[handle].enable = false;
 8003df2:	2106      	movs	r1, #6
 8003df4:	2400      	movs	r4, #0
 8003df6:	4359      	muls	r1, r3
 8003df8:	4a0b      	ldr	r2, [pc, #44]	; (8003e28 <RCM_RegisterRegConv+0x8c>)
 8003dfa:	548c      	strb	r4, [r1, r2]
      RCM_NoInj_array[handle].next = handle;
 8003dfc:	1852      	adds	r2, r2, r1
 8003dfe:	7153      	strb	r3, [r2, #5]
      RCM_NoInj_array[handle].prev = handle;
 8003e00:	7113      	strb	r3, [r2, #4]
      /* Nothing to do handle is already set to error value : 255 */
    }
#ifdef NULL_PTR_CHECK_REG_CON_MNG
  }
#endif
  regConv->convHandle = handle;
 8003e02:	7303      	strb	r3, [r0, #12]
}
 8003e04:	bdf0      	pop	{r4, r5, r6, r7, pc}
        if ((RCM_handle_array [i]->channel == regConv->channel)
 8003e06:	790d      	ldrb	r5, [r1, #4]
 8003e08:	7904      	ldrb	r4, [r0, #4]
 8003e0a:	42a5      	cmp	r5, r4
 8003e0c:	d1d2      	bne.n	8003db4 <RCM_RegisterRegConv+0x18>
         && (RCM_handle_array [i]->regADC == regConv->regADC))
 8003e0e:	680c      	ldr	r4, [r1, #0]
 8003e10:	6801      	ldr	r1, [r0, #0]
 8003e12:	428c      	cmp	r4, r1
 8003e14:	d1ce      	bne.n	8003db4 <RCM_RegisterRegConv+0x18>
 8003e16:	0013      	movs	r3, r2
          i = RCM_MAX_CONV; /* We can skip the rest of the loop */
 8003e18:	003a      	movs	r2, r7
 8003e1a:	e7cb      	b.n	8003db4 <RCM_RegisterRegConv+0x18>
 8003e1c:	200009d0 	.word	0x200009d0
 8003e20:	2000098c 	.word	0x2000098c
 8003e24:	7fffffe8 	.word	0x7fffffe8
 8003e28:	200009ac 	.word	0x200009ac

08003e2c <RCM_ExecRegularConv>:
 * Otherwise, the latest stored conversion result will be returned.
 *
 * NOTE: This function is not part of the public API and users should not call it.
 */
uint16_t RCM_ExecRegularConv (RegConv_t *regConv)
{
 8003e2c:	b5f0      	push	{r4, r5, r6, r7, lr}
  uint8_t handle = regConv->convHandle;
  uint8_t formerNext;
  uint8_t i=0;
  uint8_t LastEnable = RCM_MAX_CONV;

  if (false == RCM_NoInj_array [handle].enable)
 8003e2e:	2606      	movs	r6, #6
 8003e30:	0034      	movs	r4, r6
  uint8_t handle = regConv->convHandle;
 8003e32:	7b03      	ldrb	r3, [r0, #12]
  if (false == RCM_NoInj_array [handle].enable)
 8003e34:	4940      	ldr	r1, [pc, #256]	; (8003f38 <RCM_ExecRegularConv+0x10c>)
 8003e36:	435c      	muls	r4, r3
 8003e38:	5c62      	ldrb	r2, [r4, r1]
 8003e3a:	2a00      	cmp	r2, #0
 8003e3c:	d132      	bne.n	8003ea4 <RCM_ExecRegularConv+0x78>
  uint8_t LastEnable = RCM_MAX_CONV;
 8003e3e:	2504      	movs	r5, #4
      {
        if (RCM_NoInj_array[i].next > handle)
        /* We found a previous reg conv to link with */
        {
          formerNext = RCM_NoInj_array [i].next;
          RCM_NoInj_array[handle].next = formerNext;
 8003e40:	190c      	adds	r4, r1, r4
      if (true == RCM_NoInj_array [i].enable)
 8003e42:	0037      	movs	r7, r6
 8003e44:	4357      	muls	r7, r2
 8003e46:	5dc8      	ldrb	r0, [r1, r7]
 8003e48:	2800      	cmp	r0, #0
 8003e4a:	d00a      	beq.n	8003e62 <RCM_ExecRegularConv+0x36>
        if (RCM_NoInj_array[i].next > handle)
 8003e4c:	19cf      	adds	r7, r1, r7
 8003e4e:	7978      	ldrb	r0, [r7, #5]
 8003e50:	4298      	cmp	r0, r3
 8003e52:	d968      	bls.n	8003f26 <RCM_ExecRegularConv+0xfa>
          RCM_NoInj_array[handle].prev = i;
 8003e54:	7122      	strb	r2, [r4, #4]
          RCM_NoInj_array[i].next = handle;
          RCM_NoInj_array[formerNext].prev = handle;
          i = RCM_MAX_CONV; /* Stop the loop, handler inserted */
 8003e56:	2204      	movs	r2, #4
          RCM_NoInj_array[handle].next = formerNext;
 8003e58:	7160      	strb	r0, [r4, #5]
          RCM_NoInj_array[formerNext].prev = handle;
 8003e5a:	4370      	muls	r0, r6
 8003e5c:	1808      	adds	r0, r1, r0
          RCM_NoInj_array[i].next = handle;
 8003e5e:	717b      	strb	r3, [r7, #5]
          RCM_NoInj_array[formerNext].prev = handle;
 8003e60:	7103      	strb	r3, [r0, #4]
      }
      else
      {
        /* Nothing to do */
      }
      i++;
 8003e62:	3201      	adds	r2, #1
 8003e64:	b2d2      	uxtb	r2, r2
      if (RCM_MAX_CONV == i)
 8003e66:	2a04      	cmp	r2, #4
 8003e68:	d162      	bne.n	8003f30 <RCM_ExecRegularConv+0x104>
      /* We reach end of the array without handler inserted */
      {
       if (LastEnable != RCM_MAX_CONV )
 8003e6a:	2d04      	cmp	r5, #4
 8003e6c:	d05d      	beq.n	8003f2a <RCM_ExecRegularConv+0xfe>
       /* We find a regular conversion with smaller position to be linked with */
       {
         formerNext = RCM_NoInj_array[LastEnable].next;
 8003e6e:	3202      	adds	r2, #2
 8003e70:	0010      	movs	r0, r2
         RCM_NoInj_array[handle].next = formerNext;
 8003e72:	0014      	movs	r4, r2
         formerNext = RCM_NoInj_array[LastEnable].next;
 8003e74:	4368      	muls	r0, r5
 8003e76:	1808      	adds	r0, r1, r0
 8003e78:	7946      	ldrb	r6, [r0, #5]
         RCM_NoInj_array[handle].next = formerNext;
 8003e7a:	435c      	muls	r4, r3
         RCM_NoInj_array[handle].prev = LastEnable;
         RCM_NoInj_array[LastEnable].next = handle;
         RCM_NoInj_array[formerNext].prev = handle;
 8003e7c:	4372      	muls	r2, r6
         RCM_NoInj_array[handle].next = formerNext;
 8003e7e:	190c      	adds	r4, r1, r4
         RCM_NoInj_array[formerNext].prev = handle;
 8003e80:	188a      	adds	r2, r1, r2
         RCM_NoInj_array[handle].next = formerNext;
 8003e82:	7166      	strb	r6, [r4, #5]
         RCM_NoInj_array[handle].prev = LastEnable;
 8003e84:	7125      	strb	r5, [r4, #4]
         RCM_NoInj_array[LastEnable].next = handle;
 8003e86:	7143      	strb	r3, [r0, #5]
         RCM_NoInj_array[formerNext].prev = handle;
 8003e88:	7113      	strb	r3, [r2, #4]
      {
        /* Nothing to do we are parsing the array, nothing inserted yet */
      }
    }
    /* The handle is now linked with others, we can set the enable flag */
    RCM_NoInj_array[handle].enable = true;
 8003e8a:	2206      	movs	r2, #6
 8003e8c:	0010      	movs	r0, r2
 8003e8e:	2401      	movs	r4, #1
 8003e90:	4358      	muls	r0, r3
 8003e92:	520c      	strh	r4, [r1, r0]
    RCM_NoInj_array[handle].status = notvalid;
    if (RCM_NoInj_array[RCM_currentHandle].status != ongoing)
 8003e94:	4829      	ldr	r0, [pc, #164]	; (8003f3c <RCM_ExecRegularConv+0x110>)
 8003e96:	7804      	ldrb	r4, [r0, #0]
 8003e98:	4362      	muls	r2, r4
 8003e9a:	188a      	adds	r2, r1, r2
 8003e9c:	7852      	ldrb	r2, [r2, #1]
 8003e9e:	2a01      	cmp	r2, #1
 8003ea0:	d000      	beq.n	8003ea4 <RCM_ExecRegularConv+0x78>
    {/* Select the new conversion to be the next scheduled only if a conversion is not ongoing */
      RCM_currentHandle = handle;
 8003ea2:	7003      	strb	r3, [r0, #0]
  }
  else
  {
    /* Nothing to do the current handle is already scheduled */
  }
  if (false == PWM_Handle_M1.ADCRegularLocked)
 8003ea4:	4a26      	ldr	r2, [pc, #152]	; (8003f40 <RCM_ExecRegularConv+0x114>)
 8003ea6:	32ca      	adds	r2, #202	; 0xca
 8003ea8:	7812      	ldrb	r2, [r2, #0]
 8003eaa:	2a00      	cmp	r2, #0
 8003eac:	d135      	bne.n	8003f1a <RCM_ExecRegularConv+0xee>
  MODIFY_REG(ADCx->CFGR1, ADC_CFGR1_DMAEN | ADC_CFGR1_DMACFG, DMATransfer);
 8003eae:	2603      	movs	r6, #3
  /* The ADC is free to be used asynchronously */
  {
    LL_ADC_REG_SetDMATransfer(RCM_handle_array[handle]->regADC, LL_ADC_REG_DMA_TRANSFER_NONE);
 8003eb0:	4c24      	ldr	r4, [pc, #144]	; (8003f44 <RCM_ExecRegularConv+0x118>)
 8003eb2:	009a      	lsls	r2, r3, #2
 8003eb4:	5915      	ldr	r5, [r2, r4]
 8003eb6:	682a      	ldr	r2, [r5, #0]
 8003eb8:	68d0      	ldr	r0, [r2, #12]
 8003eba:	43b0      	bics	r0, r6
 8003ebc:	60d0      	str	r0, [r2, #12]
  MODIFY_REG(ADCx->CFGR1, ADC_CFGR1_EXTEN | ADC_CFGR1_EXTSEL, TriggerSource);
 8003ebe:	68d0      	ldr	r0, [r2, #12]
 8003ec0:	4e21      	ldr	r6, [pc, #132]	; (8003f48 <RCM_ExecRegularConv+0x11c>)
 8003ec2:	4030      	ands	r0, r6
  MODIFY_REG(ADCx->SMPR, ADC_SMPR_SMP, SamplingTime);
 8003ec4:	2607      	movs	r6, #7
  MODIFY_REG(ADCx->CFGR1, ADC_CFGR1_EXTEN | ADC_CFGR1_EXTSEL, TriggerSource);
 8003ec6:	60d0      	str	r0, [r2, #12]
  MODIFY_REG(ADCx->SMPR, ADC_SMPR_SMP, SamplingTime);
 8003ec8:	6950      	ldr	r0, [r2, #20]
 8003eca:	43b0      	bics	r0, r6
 8003ecc:	68ae      	ldr	r6, [r5, #8]
 8003ece:	4330      	orrs	r0, r6
 8003ed0:	6150      	str	r0, [r2, #20]
  WRITE_REG(ADCx->CHSELR, (Channel & ADC_CHANNEL_ID_BITFIELD_MASK));
 8003ed2:	2080      	movs	r0, #128	; 0x80
    LL_ADC_REG_SetTriggerSource(RCM_handle_array[handle]->regADC, LL_ADC_REG_TRIG_SOFTWARE);

    /* Set Sampling time and channel */
    LL_ADC_SetSamplingTimeCommonChannels(RCM_handle_array[handle]->regADC, RCM_handle_array[handle]->samplingTime);
    LL_ADC_REG_SetSequencerChannels(RCM_handle_array[handle]->regADC,
                                    __LL_ADC_DECIMAL_NB_TO_CHANNEL(RCM_handle_array[handle]->channel));
 8003ed4:	792d      	ldrb	r5, [r5, #4]
 8003ed6:	0180      	lsls	r0, r0, #6
 8003ed8:	40a8      	lsls	r0, r5
  WRITE_REG(ADCx->ISR, LL_ADC_FLAG_EOC);
 8003eda:	2504      	movs	r5, #4
  WRITE_REG(ADCx->CHSELR, (Channel & ADC_CHANNEL_ID_BITFIELD_MASK));
 8003edc:	0b40      	lsrs	r0, r0, #13
 8003ede:	6290      	str	r0, [r2, #40]	; 0x28
  WRITE_REG(ADCx->ISR, LL_ADC_FLAG_EOC);
 8003ee0:	6015      	str	r5, [r2, #0]
  MODIFY_REG(ADCx->CR,
 8003ee2:	6890      	ldr	r0, [r2, #8]
 8003ee4:	4e19      	ldr	r6, [pc, #100]	; (8003f4c <RCM_ExecRegularConv+0x120>)
 8003ee6:	4030      	ands	r0, r6
 8003ee8:	4328      	orrs	r0, r5
 8003eea:	6090      	str	r0, [r2, #8]
  return (READ_BIT(ADCx->ISR, ADC_ISR_EOC) == (ADC_ISR_EOC));
 8003eec:	6810      	ldr	r0, [r2, #0]

    /* Start ADC conversion */
    LL_ADC_REG_StartConversion(RCM_handle_array[handle]->regADC);

    /* Wait EOC */
    while ( 0U == LL_ADC_IsActiveFlag_EOC(RCM_handle_array[handle]->regADC))
 8003eee:	4228      	tst	r0, r5
 8003ef0:	d0fc      	beq.n	8003eec <RCM_ExecRegularConv+0xc0>
  return (uint16_t)(READ_BIT(ADCx->DR, ADC_DR_DATA));
 8003ef2:	6c10      	ldr	r0, [r2, #64]	; 0x40
    {
      /* Nothing to do */
    }

    /* Read the "Regular" conversion (Not related to current sampling) */
    RCM_NoInj_array[handle].value = LL_ADC_REG_ReadConversionData12(RCM_handle_array[handle]->regADC);
 8003ef4:	2206      	movs	r2, #6
 8003ef6:	435a      	muls	r2, r3
    LL_ADC_REG_SetDMATransfer(RCM_handle_array[RCM_currentHandle]->regADC, LL_ADC_REG_DMA_TRANSFER_LIMITED);
 8003ef8:	4d10      	ldr	r5, [pc, #64]	; (8003f3c <RCM_ExecRegularConv+0x110>)
    RCM_NoInj_array[handle].value = LL_ADC_REG_ReadConversionData12(RCM_handle_array[handle]->regADC);
 8003efa:	188a      	adds	r2, r1, r2
    LL_ADC_REG_SetDMATransfer(RCM_handle_array[RCM_currentHandle]->regADC, LL_ADC_REG_DMA_TRANSFER_LIMITED);
 8003efc:	7829      	ldrb	r1, [r5, #0]
    RCM_NoInj_array[handle].value = LL_ADC_REG_ReadConversionData12(RCM_handle_array[handle]->regADC);
 8003efe:	8050      	strh	r0, [r2, #2]
    LL_ADC_REG_SetDMATransfer(RCM_handle_array[RCM_currentHandle]->regADC, LL_ADC_REG_DMA_TRANSFER_LIMITED);
 8003f00:	0089      	lsls	r1, r1, #2
 8003f02:	5861      	ldr	r1, [r4, r1]
 8003f04:	680c      	ldr	r4, [r1, #0]
  MODIFY_REG(ADCx->CFGR1, ADC_CFGR1_DMAEN | ADC_CFGR1_DMACFG, DMATransfer);
 8003f06:	2103      	movs	r1, #3
 8003f08:	68e0      	ldr	r0, [r4, #12]
 8003f0a:	4388      	bics	r0, r1
 8003f0c:	3902      	subs	r1, #2
 8003f0e:	4301      	orrs	r1, r0
 8003f10:	60e1      	str	r1, [r4, #12]
    RCM_currentHandle = RCM_NoInj_array[handle].next;
 8003f12:	7951      	ldrb	r1, [r2, #5]
 8003f14:	7029      	strb	r1, [r5, #0]
    RCM_NoInj_array[handle].status = valid;
 8003f16:	2102      	movs	r1, #2
 8003f18:	7051      	strb	r1, [r2, #1]
  }
  else
  {
    /* Nothing to do */
  }
  retVal = RCM_NoInj_array[handle].value;
 8003f1a:	2106      	movs	r1, #6
 8003f1c:	434b      	muls	r3, r1
 8003f1e:	4a06      	ldr	r2, [pc, #24]	; (8003f38 <RCM_ExecRegularConv+0x10c>)
 8003f20:	18d2      	adds	r2, r2, r3
  return (retVal);
 8003f22:	8850      	ldrh	r0, [r2, #2]
}
 8003f24:	bdf0      	pop	{r4, r5, r6, r7, pc}
 8003f26:	0015      	movs	r5, r2
 8003f28:	e79b      	b.n	8003e62 <RCM_ExecRegularConv+0x36>
         RCM_currentHandle = handle;
 8003f2a:	4a04      	ldr	r2, [pc, #16]	; (8003f3c <RCM_ExecRegularConv+0x110>)
 8003f2c:	7013      	strb	r3, [r2, #0]
    while (i < RCM_MAX_CONV)
 8003f2e:	e7ac      	b.n	8003e8a <RCM_ExecRegularConv+0x5e>
 8003f30:	2a03      	cmp	r2, #3
 8003f32:	d800      	bhi.n	8003f36 <RCM_ExecRegularConv+0x10a>
 8003f34:	e785      	b.n	8003e42 <RCM_ExecRegularConv+0x16>
 8003f36:	e7a8      	b.n	8003e8a <RCM_ExecRegularConv+0x5e>
 8003f38:	200009ac 	.word	0x200009ac
 8003f3c:	200009cc 	.word	0x200009cc
 8003f40:	20000180 	.word	0x20000180
 8003f44:	200009d0 	.word	0x200009d0
 8003f48:	fffff23f 	.word	0xfffff23f
 8003f4c:	7fffffe8 	.word	0x7fffffe8

08003f50 <RCM_ExecUserConv>:
 * NOTE: This function is not part of the public API and users should not call it.
 */
void RCM_ExecUserConv()
{
  uint8_t handle;
  if (RCM_UserConvHandle != NULL)
 8003f50:	4b12      	ldr	r3, [pc, #72]	; (8003f9c <RCM_ExecUserConv+0x4c>)
{
 8003f52:	b570      	push	{r4, r5, r6, lr}
  if (RCM_UserConvHandle != NULL)
 8003f54:	681d      	ldr	r5, [r3, #0]
 8003f56:	2d00      	cmp	r5, #0
 8003f58:	d01e      	beq.n	8003f98 <RCM_ExecUserConv+0x48>
  {
    handle = RCM_UserConvHandle->convHandle;
    if (RCM_USERCONV_REQUESTED == RCM_UserConvState)
 8003f5a:	4e11      	ldr	r6, [pc, #68]	; (8003fa0 <RCM_ExecUserConv+0x50>)
    handle = RCM_UserConvHandle->convHandle;
 8003f5c:	7b2c      	ldrb	r4, [r5, #12]
    if (RCM_USERCONV_REQUESTED == RCM_UserConvState)
 8003f5e:	7833      	ldrb	r3, [r6, #0]
 8003f60:	2b01      	cmp	r3, #1
 8003f62:	d119      	bne.n	8003f98 <RCM_ExecUserConv+0x48>
    {
      RCM_UserConvValue = RCM_ExecRegularConv(RCM_UserConvHandle);
 8003f64:	0028      	movs	r0, r5
 8003f66:	f7ff ff61 	bl	8003e2c <RCM_ExecRegularConv>
      /* Regular conversion is read from RCM_NoInj_array but we must take care that first conversion is done */
      /* Status could also be ongoing, but decision is taken to provide previous conversion
       * instead of waiting for RCM_NoInj_array [handle].status == valid */
      if (RCM_NoInj_array [handle].status != notvalid)
 8003f6a:	2206      	movs	r2, #6
      RCM_UserConvValue = RCM_ExecRegularConv(RCM_UserConvHandle);
 8003f6c:	4b0d      	ldr	r3, [pc, #52]	; (8003fa4 <RCM_ExecUserConv+0x54>)
      if (RCM_NoInj_array [handle].status != notvalid)
 8003f6e:	4362      	muls	r2, r4
      RCM_UserConvValue = RCM_ExecRegularConv(RCM_UserConvHandle);
 8003f70:	8018      	strh	r0, [r3, #0]
      if (RCM_NoInj_array [handle].status != notvalid)
 8003f72:	4b0d      	ldr	r3, [pc, #52]	; (8003fa8 <RCM_ExecUserConv+0x58>)
      RCM_UserConvValue = RCM_ExecRegularConv(RCM_UserConvHandle);
 8003f74:	0001      	movs	r1, r0
      if (RCM_NoInj_array [handle].status != notvalid)
 8003f76:	189b      	adds	r3, r3, r2
 8003f78:	785b      	ldrb	r3, [r3, #1]
 8003f7a:	2b00      	cmp	r3, #0
 8003f7c:	d001      	beq.n	8003f82 <RCM_ExecUserConv+0x32>
      {
        RCM_UserConvState = RCM_USERCONV_EOC;
 8003f7e:	2302      	movs	r3, #2
 8003f80:	7033      	strb	r3, [r6, #0]
      }
      else
      {
        /* Nothing to do */
      }
      if (RCM_CB_array[handle].cb != NULL)
 8003f82:	4a0a      	ldr	r2, [pc, #40]	; (8003fac <RCM_ExecUserConv+0x5c>)
 8003f84:	00e4      	lsls	r4, r4, #3
 8003f86:	58a3      	ldr	r3, [r4, r2]
 8003f88:	2b00      	cmp	r3, #0
 8003f8a:	d005      	beq.n	8003f98 <RCM_ExecUserConv+0x48>
      {
        RCM_UserConvState = RCM_USERCONV_IDLE;
 8003f8c:	2000      	movs	r0, #0
        RCM_CB_array[handle].cb(RCM_UserConvHandle, RCM_UserConvValue,
 8003f8e:	1912      	adds	r2, r2, r4
        RCM_UserConvState = RCM_USERCONV_IDLE;
 8003f90:	7030      	strb	r0, [r6, #0]
        RCM_CB_array[handle].cb(RCM_UserConvHandle, RCM_UserConvValue,
 8003f92:	6852      	ldr	r2, [r2, #4]
 8003f94:	0028      	movs	r0, r5
 8003f96:	4798      	blx	r3
  }
  else
  {
     /* Nothing to do */
  }
}
 8003f98:	bd70      	pop	{r4, r5, r6, pc}
 8003f9a:	46c0      	nop			; (mov r8, r8)
 8003f9c:	200009c4 	.word	0x200009c4
 8003fa0:	200009c8 	.word	0x200009c8
 8003fa4:	200009ca 	.word	0x200009ca
 8003fa8:	200009ac 	.word	0x200009ac
 8003fac:	2000098c 	.word	0x2000098c

08003fb0 <RCM_ExecNextConv>:
 *
 * NOTE: This function is not part of the public API and users should not call it.
 */
void RCM_ExecNextConv(void)
{
  if (true == RCM_NoInj_array [RCM_currentHandle].enable)
 8003fb0:	2006      	movs	r0, #6
{
 8003fb2:	b570      	push	{r4, r5, r6, lr}
  if (true == RCM_NoInj_array [RCM_currentHandle].enable)
 8003fb4:	4b14      	ldr	r3, [pc, #80]	; (8004008 <RCM_ExecNextConv+0x58>)
 8003fb6:	4915      	ldr	r1, [pc, #84]	; (800400c <RCM_ExecNextConv+0x5c>)
 8003fb8:	781b      	ldrb	r3, [r3, #0]
 8003fba:	4358      	muls	r0, r3
 8003fbc:	5c42      	ldrb	r2, [r0, r1]
 8003fbe:	2a00      	cmp	r2, #0
 8003fc0:	d021      	beq.n	8004006 <RCM_ExecNextConv+0x56>
  WRITE_REG(ADCx->ISR, LL_ADC_FLAG_EOC);
 8003fc2:	2404      	movs	r4, #4
  MODIFY_REG(ADCx->CFGR1, ADC_CFGR1_DMAEN | ADC_CFGR1_DMACFG, DMATransfer);
 8003fc4:	2603      	movs	r6, #3
    /* When this function is called, the ADC conversions triggered by External
       event for current reading has been completed.
       ADC is therefore ready to be started because already stopped */

    /* Clear EOC */
    LL_ADC_ClearFlag_EOC(RCM_handle_array[RCM_currentHandle]->regADC);
 8003fc6:	4a12      	ldr	r2, [pc, #72]	; (8004010 <RCM_ExecNextConv+0x60>)
 8003fc8:	009b      	lsls	r3, r3, #2
 8003fca:	589d      	ldr	r5, [r3, r2]
    (void)LL_ADC_REG_SetSequencerChannels(RCM_handle_array[RCM_currentHandle]->regADC,
                                       __LL_ADC_DECIMAL_NB_TO_CHANNEL(RCM_handle_array[RCM_currentHandle]->channel));

    /* Start ADC for regular conversion */
    LL_ADC_REG_StartConversion(RCM_handle_array[RCM_currentHandle]->regADC);
    RCM_NoInj_array[RCM_currentHandle].status = ongoing;
 8003fcc:	1809      	adds	r1, r1, r0
    LL_ADC_ClearFlag_EOC(RCM_handle_array[RCM_currentHandle]->regADC);
 8003fce:	682b      	ldr	r3, [r5, #0]
  WRITE_REG(ADCx->ISR, LL_ADC_FLAG_EOC);
 8003fd0:	601c      	str	r4, [r3, #0]
  MODIFY_REG(ADCx->CFGR1, ADC_CFGR1_DMAEN | ADC_CFGR1_DMACFG, DMATransfer);
 8003fd2:	68da      	ldr	r2, [r3, #12]
 8003fd4:	43b2      	bics	r2, r6
 8003fd6:	60da      	str	r2, [r3, #12]
  MODIFY_REG(ADCx->CFGR1, ADC_CFGR1_EXTEN | ADC_CFGR1_EXTSEL, TriggerSource);
 8003fd8:	68da      	ldr	r2, [r3, #12]
 8003fda:	4e0e      	ldr	r6, [pc, #56]	; (8004014 <RCM_ExecNextConv+0x64>)
 8003fdc:	4032      	ands	r2, r6
  MODIFY_REG(ADCx->SMPR, ADC_SMPR_SMP, SamplingTime);
 8003fde:	2607      	movs	r6, #7
  MODIFY_REG(ADCx->CFGR1, ADC_CFGR1_EXTEN | ADC_CFGR1_EXTSEL, TriggerSource);
 8003fe0:	60da      	str	r2, [r3, #12]
  MODIFY_REG(ADCx->SMPR, ADC_SMPR_SMP, SamplingTime);
 8003fe2:	695a      	ldr	r2, [r3, #20]
 8003fe4:	43b2      	bics	r2, r6
 8003fe6:	68ae      	ldr	r6, [r5, #8]
 8003fe8:	4332      	orrs	r2, r6
 8003fea:	615a      	str	r2, [r3, #20]
                                       __LL_ADC_DECIMAL_NB_TO_CHANNEL(RCM_handle_array[RCM_currentHandle]->channel));
 8003fec:	792a      	ldrb	r2, [r5, #4]
 8003fee:	2501      	movs	r5, #1
 8003ff0:	002e      	movs	r6, r5
 8003ff2:	4096      	lsls	r6, r2
  WRITE_REG(ADCx->CHSELR, (Channel & ADC_CHANNEL_ID_BITFIELD_MASK));
 8003ff4:	0372      	lsls	r2, r6, #13
 8003ff6:	0b52      	lsrs	r2, r2, #13
 8003ff8:	629a      	str	r2, [r3, #40]	; 0x28
  MODIFY_REG(ADCx->CR,
 8003ffa:	689a      	ldr	r2, [r3, #8]
 8003ffc:	4e06      	ldr	r6, [pc, #24]	; (8004018 <RCM_ExecNextConv+0x68>)
 8003ffe:	4032      	ands	r2, r6
 8004000:	4314      	orrs	r4, r2
 8004002:	609c      	str	r4, [r3, #8]
    RCM_NoInj_array[RCM_currentHandle].status = ongoing;
 8004004:	704d      	strb	r5, [r1, #1]
  }
  else
  {
    /* Nothing to do, conversion not enabled have already notvalid status */
  }
}
 8004006:	bd70      	pop	{r4, r5, r6, pc}
 8004008:	200009cc 	.word	0x200009cc
 800400c:	200009ac 	.word	0x200009ac
 8004010:	200009d0 	.word	0x200009d0
 8004014:	fffff23f 	.word	0xfffff23f
 8004018:	7fffffe8 	.word	0x7fffffe8

0800401c <RCM_ReadOngoingConv>:
 * and user conversion.
 *
 * NOTE: This function is not part of the public API and users should not call it.
 */
void RCM_ReadOngoingConv(void)
{
 800401c:	b5f0      	push	{r4, r5, r6, r7, lr}
  uint32_t result;
  RCM_status_t status;

  status = RCM_NoInj_array[RCM_currentHandle].status;
 800401e:	4c10      	ldr	r4, [pc, #64]	; (8004060 <RCM_ReadOngoingConv+0x44>)
  result = LL_ADC_IsActiveFlag_EOC(RCM_handle_array[RCM_currentHandle]->regADC);
 8004020:	4b10      	ldr	r3, [pc, #64]	; (8004064 <RCM_ReadOngoingConv+0x48>)
  status = RCM_NoInj_array[RCM_currentHandle].status;
 8004022:	7820      	ldrb	r0, [r4, #0]
  if (( valid == status ) || ( notvalid == status ) || ( 0U == result ))
 8004024:	2702      	movs	r7, #2
  result = LL_ADC_IsActiveFlag_EOC(RCM_handle_array[RCM_currentHandle]->regADC);
 8004026:	0082      	lsls	r2, r0, #2
 8004028:	58d3      	ldr	r3, [r2, r3]
  status = RCM_NoInj_array[RCM_currentHandle].status;
 800402a:	4a0f      	ldr	r2, [pc, #60]	; (8004068 <RCM_ReadOngoingConv+0x4c>)
  result = LL_ADC_IsActiveFlag_EOC(RCM_handle_array[RCM_currentHandle]->regADC);
 800402c:	6819      	ldr	r1, [r3, #0]
  status = RCM_NoInj_array[RCM_currentHandle].status;
 800402e:	2306      	movs	r3, #6
 8004030:	4343      	muls	r3, r0
 8004032:	18d3      	adds	r3, r2, r3
  if (( valid == status ) || ( notvalid == status ) || ( 0U == result ))
 8004034:	785d      	ldrb	r5, [r3, #1]
  return (READ_BIT(ADCx->ISR, ADC_ISR_EOC) == (ADC_ISR_EOC));
 8004036:	680e      	ldr	r6, [r1, #0]
 8004038:	43bd      	bics	r5, r7
 800403a:	d00a      	beq.n	8004052 <RCM_ReadOngoingConv+0x36>
 800403c:	0776      	lsls	r6, r6, #29
 800403e:	d508      	bpl.n	8004052 <RCM_ReadOngoingConv+0x36>
  return (uint16_t)(READ_BIT(ADCx->DR, ADC_DR_DATA));
 8004040:	6c0d      	ldr	r5, [r1, #64]	; 0x40
  else
  {
    /* Reading of ADC Converted Value */
    RCM_NoInj_array[RCM_currentHandle].value
                  = LL_ADC_REG_ReadConversionData12(RCM_handle_array[RCM_currentHandle]->regADC);
    RCM_NoInj_array[RCM_currentHandle].status = valid;
 8004042:	705f      	strb	r7, [r3, #1]
                  = LL_ADC_REG_ReadConversionData12(RCM_handle_array[RCM_currentHandle]->regADC);
 8004044:	805d      	strh	r5, [r3, #2]
  MODIFY_REG(ADCx->CFGR1, ADC_CFGR1_DMAEN | ADC_CFGR1_DMACFG, DMATransfer);
 8004046:	2303      	movs	r3, #3
 8004048:	68cd      	ldr	r5, [r1, #12]
 800404a:	439d      	bics	r5, r3
 800404c:	3b02      	subs	r3, #2
 800404e:	432b      	orrs	r3, r5
 8004050:	60cb      	str	r3, [r1, #12]
    /* Restore back DMA configuration */
    LL_ADC_REG_SetDMATransfer( RCM_handle_array[RCM_currentHandle]->regADC, LL_ADC_REG_DMA_TRANSFER_LIMITED );
  }

  /* Prepare next conversion */
  RCM_currentHandle = RCM_NoInj_array [RCM_currentHandle].next;
 8004052:	2306      	movs	r3, #6
 8004054:	4343      	muls	r3, r0
 8004056:	18d2      	adds	r2, r2, r3
 8004058:	7953      	ldrb	r3, [r2, #5]
 800405a:	7023      	strb	r3, [r4, #0]
}
 800405c:	bdf0      	pop	{r4, r5, r6, r7, pc}
 800405e:	46c0      	nop			; (mov r8, r8)
 8004060:	200009cc 	.word	0x200009cc
 8004064:	200009d0 	.word	0x200009d0
 8004068:	200009ac 	.word	0x200009ac

0800406c <HAL_MspInit>:
{
  /* USER CODE BEGIN MspInit 0 */

  /* USER CODE END MspInit 0 */

  __HAL_RCC_SYSCFG_CLK_ENABLE();
 800406c:	2101      	movs	r1, #1
 800406e:	4b0a      	ldr	r3, [pc, #40]	; (8004098 <HAL_MspInit+0x2c>)
{
 8004070:	b082      	sub	sp, #8
  __HAL_RCC_SYSCFG_CLK_ENABLE();
 8004072:	699a      	ldr	r2, [r3, #24]
 8004074:	430a      	orrs	r2, r1
 8004076:	619a      	str	r2, [r3, #24]
 8004078:	699a      	ldr	r2, [r3, #24]
 800407a:	400a      	ands	r2, r1
  __HAL_RCC_PWR_CLK_ENABLE();
 800407c:	2180      	movs	r1, #128	; 0x80
  __HAL_RCC_SYSCFG_CLK_ENABLE();
 800407e:	9200      	str	r2, [sp, #0]
 8004080:	9a00      	ldr	r2, [sp, #0]
  __HAL_RCC_PWR_CLK_ENABLE();
 8004082:	69da      	ldr	r2, [r3, #28]
 8004084:	0549      	lsls	r1, r1, #21
 8004086:	430a      	orrs	r2, r1
 8004088:	61da      	str	r2, [r3, #28]
 800408a:	69db      	ldr	r3, [r3, #28]
 800408c:	400b      	ands	r3, r1
 800408e:	9301      	str	r3, [sp, #4]
 8004090:	9b01      	ldr	r3, [sp, #4]
  /* System interrupt init*/

  /* USER CODE BEGIN MspInit 1 */

  /* USER CODE END MspInit 1 */
}
 8004092:	b002      	add	sp, #8
 8004094:	4770      	bx	lr
 8004096:	46c0      	nop			; (mov r8, r8)
 8004098:	40021000 	.word	0x40021000

0800409c <HAL_ADC_MspInit>:
* This function configures the hardware resources used in this example
* @param hadc: ADC handle pointer
* @retval None
*/
void HAL_ADC_MspInit(ADC_HandleTypeDef* hadc)
{
 800409c:	b5f0      	push	{r4, r5, r6, r7, lr}
 800409e:	0005      	movs	r5, r0
 80040a0:	b089      	sub	sp, #36	; 0x24
  GPIO_InitTypeDef GPIO_InitStruct = {0};
 80040a2:	2214      	movs	r2, #20
 80040a4:	2100      	movs	r1, #0
 80040a6:	a803      	add	r0, sp, #12
 80040a8:	f002 fa2d 	bl	8006506 <memset>
  if(hadc->Instance==ADC1)
 80040ac:	4b25      	ldr	r3, [pc, #148]	; (8004144 <HAL_ADC_MspInit+0xa8>)
 80040ae:	682a      	ldr	r2, [r5, #0]
 80040b0:	429a      	cmp	r2, r3
 80040b2:	d144      	bne.n	800413e <HAL_ADC_MspInit+0xa2>
  {
  /* USER CODE BEGIN ADC1_MspInit 0 */

  /* USER CODE END ADC1_MspInit 0 */
    /* Peripheral clock enable */
    __HAL_RCC_ADC1_CLK_ENABLE();
 80040b4:	2180      	movs	r1, #128	; 0x80
 80040b6:	4b24      	ldr	r3, [pc, #144]	; (8004148 <HAL_ADC_MspInit+0xac>)
 80040b8:	0089      	lsls	r1, r1, #2
 80040ba:	699a      	ldr	r2, [r3, #24]
    PB1     ------> ADC_IN9
    */
    GPIO_InitStruct.Pin = M1_CURR_AMPL_Pin;
    GPIO_InitStruct.Mode = GPIO_MODE_ANALOG;
    GPIO_InitStruct.Pull = GPIO_NOPULL;
    HAL_GPIO_Init(M1_CURR_AMPL_GPIO_Port, &GPIO_InitStruct);
 80040bc:	2090      	movs	r0, #144	; 0x90
    __HAL_RCC_ADC1_CLK_ENABLE();
 80040be:	430a      	orrs	r2, r1
 80040c0:	619a      	str	r2, [r3, #24]
 80040c2:	699a      	ldr	r2, [r3, #24]
    GPIO_InitStruct.Mode = GPIO_MODE_ANALOG;
 80040c4:	2403      	movs	r4, #3
    __HAL_RCC_ADC1_CLK_ENABLE();
 80040c6:	400a      	ands	r2, r1
    __HAL_RCC_GPIOA_CLK_ENABLE();
 80040c8:	2180      	movs	r1, #128	; 0x80
    __HAL_RCC_ADC1_CLK_ENABLE();
 80040ca:	9200      	str	r2, [sp, #0]
 80040cc:	9a00      	ldr	r2, [sp, #0]
    __HAL_RCC_GPIOA_CLK_ENABLE();
 80040ce:	695a      	ldr	r2, [r3, #20]
 80040d0:	0289      	lsls	r1, r1, #10
 80040d2:	430a      	orrs	r2, r1
 80040d4:	615a      	str	r2, [r3, #20]
 80040d6:	695a      	ldr	r2, [r3, #20]
    GPIO_InitStruct.Pin = M1_CURR_AMPL_Pin;
 80040d8:	2720      	movs	r7, #32
    __HAL_RCC_GPIOA_CLK_ENABLE();
 80040da:	400a      	ands	r2, r1
    __HAL_RCC_GPIOB_CLK_ENABLE();
 80040dc:	2180      	movs	r1, #128	; 0x80
    __HAL_RCC_GPIOA_CLK_ENABLE();
 80040de:	9201      	str	r2, [sp, #4]
 80040e0:	9a01      	ldr	r2, [sp, #4]
    __HAL_RCC_GPIOB_CLK_ENABLE();
 80040e2:	695a      	ldr	r2, [r3, #20]
 80040e4:	02c9      	lsls	r1, r1, #11
 80040e6:	430a      	orrs	r2, r1
 80040e8:	615a      	str	r2, [r3, #20]
 80040ea:	695b      	ldr	r3, [r3, #20]
    HAL_GPIO_Init(M1_CURR_AMPL_GPIO_Port, &GPIO_InitStruct);
 80040ec:	05c0      	lsls	r0, r0, #23
    __HAL_RCC_GPIOB_CLK_ENABLE();
 80040ee:	400b      	ands	r3, r1
 80040f0:	9302      	str	r3, [sp, #8]
    HAL_GPIO_Init(M1_CURR_AMPL_GPIO_Port, &GPIO_InitStruct);
 80040f2:	a903      	add	r1, sp, #12

    GPIO_InitStruct.Pin = M1_BUS_VOLTAGE_Pin;
    GPIO_InitStruct.Mode = GPIO_MODE_ANALOG;
    GPIO_InitStruct.Pull = GPIO_NOPULL;
 80040f4:	2600      	movs	r6, #0
    __HAL_RCC_GPIOB_CLK_ENABLE();
 80040f6:	9b02      	ldr	r3, [sp, #8]
    GPIO_InitStruct.Mode = GPIO_MODE_ANALOG;
 80040f8:	9404      	str	r4, [sp, #16]
    GPIO_InitStruct.Pin = M1_CURR_AMPL_Pin;
 80040fa:	9703      	str	r7, [sp, #12]
    HAL_GPIO_Init(M1_CURR_AMPL_GPIO_Port, &GPIO_InitStruct);
 80040fc:	f000 fcf0 	bl	8004ae0 <HAL_GPIO_Init>
    GPIO_InitStruct.Pin = M1_BUS_VOLTAGE_Pin;
 8004100:	2302      	movs	r3, #2
    HAL_GPIO_Init(M1_BUS_VOLTAGE_GPIO_Port, &GPIO_InitStruct);
 8004102:	4812      	ldr	r0, [pc, #72]	; (800414c <HAL_ADC_MspInit+0xb0>)
 8004104:	a903      	add	r1, sp, #12
    GPIO_InitStruct.Pin = M1_BUS_VOLTAGE_Pin;
 8004106:	9303      	str	r3, [sp, #12]
    GPIO_InitStruct.Mode = GPIO_MODE_ANALOG;
 8004108:	9404      	str	r4, [sp, #16]
    GPIO_InitStruct.Pull = GPIO_NOPULL;
 800410a:	9605      	str	r6, [sp, #20]
    HAL_GPIO_Init(M1_BUS_VOLTAGE_GPIO_Port, &GPIO_InitStruct);
 800410c:	f000 fce8 	bl	8004ae0 <HAL_GPIO_Init>

    /* ADC1 DMA Init */
    /* ADC Init */
    hdma_adc.Instance = DMA1_Channel1;
 8004110:	4c0f      	ldr	r4, [pc, #60]	; (8004150 <HAL_ADC_MspInit+0xb4>)
 8004112:	4b10      	ldr	r3, [pc, #64]	; (8004154 <HAL_ADC_MspInit+0xb8>)
    hdma_adc.Init.MemInc = DMA_MINC_ENABLE;
    hdma_adc.Init.PeriphDataAlignment = DMA_PDATAALIGN_HALFWORD;
    hdma_adc.Init.MemDataAlignment = DMA_MDATAALIGN_HALFWORD;
    hdma_adc.Init.Mode = DMA_CIRCULAR;
    hdma_adc.Init.Priority = DMA_PRIORITY_LOW;
    if (HAL_DMA_Init(&hdma_adc) != HAL_OK)
 8004114:	0020      	movs	r0, r4
    hdma_adc.Instance = DMA1_Channel1;
 8004116:	6023      	str	r3, [r4, #0]
    hdma_adc.Init.MemInc = DMA_MINC_ENABLE;
 8004118:	2380      	movs	r3, #128	; 0x80
 800411a:	60e3      	str	r3, [r4, #12]
    hdma_adc.Init.PeriphDataAlignment = DMA_PDATAALIGN_HALFWORD;
 800411c:	18db      	adds	r3, r3, r3
 800411e:	6123      	str	r3, [r4, #16]
    hdma_adc.Init.MemDataAlignment = DMA_MDATAALIGN_HALFWORD;
 8004120:	2380      	movs	r3, #128	; 0x80
 8004122:	00db      	lsls	r3, r3, #3
    hdma_adc.Init.Direction = DMA_PERIPH_TO_MEMORY;
 8004124:	6066      	str	r6, [r4, #4]
    hdma_adc.Init.PeriphInc = DMA_PINC_DISABLE;
 8004126:	60a6      	str	r6, [r4, #8]
    hdma_adc.Init.MemDataAlignment = DMA_MDATAALIGN_HALFWORD;
 8004128:	6163      	str	r3, [r4, #20]
    hdma_adc.Init.Mode = DMA_CIRCULAR;
 800412a:	61a7      	str	r7, [r4, #24]
    hdma_adc.Init.Priority = DMA_PRIORITY_LOW;
 800412c:	61e6      	str	r6, [r4, #28]
    if (HAL_DMA_Init(&hdma_adc) != HAL_OK)
 800412e:	f000 fca5 	bl	8004a7c <HAL_DMA_Init>
 8004132:	42b0      	cmp	r0, r6
 8004134:	d001      	beq.n	800413a <HAL_ADC_MspInit+0x9e>
    {
      Error_Handler();
 8004136:	f7fd fb7d 	bl	8001834 <Error_Handler>
    }

    __HAL_LINKDMA(hadc,DMA_Handle,hdma_adc);
 800413a:	632c      	str	r4, [r5, #48]	; 0x30
 800413c:	6265      	str	r5, [r4, #36]	; 0x24
  /* USER CODE BEGIN ADC1_MspInit 1 */

  /* USER CODE END ADC1_MspInit 1 */
  }

}
 800413e:	b009      	add	sp, #36	; 0x24
 8004140:	bdf0      	pop	{r4, r5, r6, r7, pc}
 8004142:	46c0      	nop			; (mov r8, r8)
 8004144:	40012400 	.word	0x40012400
 8004148:	40021000 	.word	0x40021000
 800414c:	48000400 	.word	0x48000400
 8004150:	20000420 	.word	0x20000420
 8004154:	40020008 	.word	0x40020008

08004158 <HAL_TIM_PWM_MspInit>:
* This function configures the hardware resources used in this example
* @param htim_pwm: TIM_PWM handle pointer
* @retval None
*/
void HAL_TIM_PWM_MspInit(TIM_HandleTypeDef* htim_pwm)
{
 8004158:	b530      	push	{r4, r5, lr}
 800415a:	0005      	movs	r5, r0
 800415c:	b089      	sub	sp, #36	; 0x24
  GPIO_InitTypeDef GPIO_InitStruct = {0};
 800415e:	2214      	movs	r2, #20
 8004160:	2100      	movs	r1, #0
 8004162:	a803      	add	r0, sp, #12
 8004164:	f002 f9cf 	bl	8006506 <memset>
  if(htim_pwm->Instance==TIM1)
 8004168:	4b2f      	ldr	r3, [pc, #188]	; (8004228 <HAL_TIM_PWM_MspInit+0xd0>)
 800416a:	682a      	ldr	r2, [r5, #0]
 800416c:	429a      	cmp	r2, r3
 800416e:	d159      	bne.n	8004224 <HAL_TIM_PWM_MspInit+0xcc>
  {
  /* USER CODE BEGIN TIM1_MspInit 0 */

  /* USER CODE END TIM1_MspInit 0 */
    /* Peripheral clock enable */
    __HAL_RCC_TIM1_CLK_ENABLE();
 8004170:	2180      	movs	r1, #128	; 0x80
 8004172:	4b2e      	ldr	r3, [pc, #184]	; (800422c <HAL_TIM_PWM_MspInit+0xd4>)
 8004174:	0109      	lsls	r1, r1, #4
 8004176:	699a      	ldr	r2, [r3, #24]
    GPIO_InitStruct.Pin = M1_OCP_Pin;
    GPIO_InitStruct.Mode = GPIO_MODE_AF_PP;
    GPIO_InitStruct.Pull = GPIO_PULLUP;
    GPIO_InitStruct.Speed = GPIO_SPEED_FREQ_LOW;
    GPIO_InitStruct.Alternate = GPIO_AF2_TIM1;
    HAL_GPIO_Init(M1_OCP_GPIO_Port, &GPIO_InitStruct);
 8004178:	482d      	ldr	r0, [pc, #180]	; (8004230 <HAL_TIM_PWM_MspInit+0xd8>)
    __HAL_RCC_TIM1_CLK_ENABLE();
 800417a:	430a      	orrs	r2, r1
 800417c:	619a      	str	r2, [r3, #24]
 800417e:	699a      	ldr	r2, [r3, #24]
 8004180:	400a      	ands	r2, r1
    __HAL_RCC_GPIOB_CLK_ENABLE();
 8004182:	2180      	movs	r1, #128	; 0x80
    __HAL_RCC_TIM1_CLK_ENABLE();
 8004184:	9201      	str	r2, [sp, #4]
 8004186:	9a01      	ldr	r2, [sp, #4]
    __HAL_RCC_GPIOB_CLK_ENABLE();
 8004188:	695a      	ldr	r2, [r3, #20]
 800418a:	02c9      	lsls	r1, r1, #11
 800418c:	430a      	orrs	r2, r1
 800418e:	615a      	str	r2, [r3, #20]
 8004190:	695b      	ldr	r3, [r3, #20]
    GPIO_InitStruct.Pull = GPIO_PULLUP;
 8004192:	2201      	movs	r2, #1
    __HAL_RCC_GPIOB_CLK_ENABLE();
 8004194:	400b      	ands	r3, r1
 8004196:	9302      	str	r3, [sp, #8]
 8004198:	9b02      	ldr	r3, [sp, #8]
    GPIO_InitStruct.Pin = M1_OCP_Pin;
 800419a:	2380      	movs	r3, #128	; 0x80
 800419c:	015b      	lsls	r3, r3, #5
 800419e:	9303      	str	r3, [sp, #12]
    GPIO_InitStruct.Mode = GPIO_MODE_AF_PP;
 80041a0:	2302      	movs	r3, #2
    HAL_GPIO_Init(M1_OCP_GPIO_Port, &GPIO_InitStruct);
 80041a2:	a903      	add	r1, sp, #12
    GPIO_InitStruct.Mode = GPIO_MODE_AF_PP;
 80041a4:	9304      	str	r3, [sp, #16]
    GPIO_InitStruct.Alternate = GPIO_AF2_TIM1;
 80041a6:	9307      	str	r3, [sp, #28]
    GPIO_InitStruct.Pull = GPIO_PULLUP;
 80041a8:	9205      	str	r2, [sp, #20]
    HAL_GPIO_Init(M1_OCP_GPIO_Port, &GPIO_InitStruct);
 80041aa:	f000 fc99 	bl	8004ae0 <HAL_GPIO_Init>

    /* TIM1 DMA Init */
    /* TIM1_CH4_TRIG_COM Init */
    hdma_tim1_ch4_trig_com.Instance = DMA1_Channel4;
 80041ae:	4c21      	ldr	r4, [pc, #132]	; (8004234 <HAL_TIM_PWM_MspInit+0xdc>)
 80041b0:	4b21      	ldr	r3, [pc, #132]	; (8004238 <HAL_TIM_PWM_MspInit+0xe0>)
    hdma_tim1_ch4_trig_com.Init.MemInc = DMA_MINC_ENABLE;
    hdma_tim1_ch4_trig_com.Init.PeriphDataAlignment = DMA_PDATAALIGN_HALFWORD;
    hdma_tim1_ch4_trig_com.Init.MemDataAlignment = DMA_MDATAALIGN_HALFWORD;
    hdma_tim1_ch4_trig_com.Init.Mode = DMA_CIRCULAR;
    hdma_tim1_ch4_trig_com.Init.Priority = DMA_PRIORITY_HIGH;
    if (HAL_DMA_Init(&hdma_tim1_ch4_trig_com) != HAL_OK)
 80041b2:	0020      	movs	r0, r4
    hdma_tim1_ch4_trig_com.Instance = DMA1_Channel4;
 80041b4:	6023      	str	r3, [r4, #0]
    hdma_tim1_ch4_trig_com.Init.Direction = DMA_MEMORY_TO_PERIPH;
 80041b6:	2310      	movs	r3, #16
 80041b8:	6063      	str	r3, [r4, #4]
    hdma_tim1_ch4_trig_com.Init.PeriphInc = DMA_PINC_DISABLE;
 80041ba:	2300      	movs	r3, #0
 80041bc:	60a3      	str	r3, [r4, #8]
    hdma_tim1_ch4_trig_com.Init.MemInc = DMA_MINC_ENABLE;
 80041be:	3380      	adds	r3, #128	; 0x80
 80041c0:	60e3      	str	r3, [r4, #12]
    hdma_tim1_ch4_trig_com.Init.PeriphDataAlignment = DMA_PDATAALIGN_HALFWORD;
 80041c2:	3380      	adds	r3, #128	; 0x80
 80041c4:	6123      	str	r3, [r4, #16]
    hdma_tim1_ch4_trig_com.Init.MemDataAlignment = DMA_MDATAALIGN_HALFWORD;
 80041c6:	2380      	movs	r3, #128	; 0x80
 80041c8:	00db      	lsls	r3, r3, #3
 80041ca:	6163      	str	r3, [r4, #20]
    hdma_tim1_ch4_trig_com.Init.Mode = DMA_CIRCULAR;
 80041cc:	2320      	movs	r3, #32
 80041ce:	61a3      	str	r3, [r4, #24]
    hdma_tim1_ch4_trig_com.Init.Priority = DMA_PRIORITY_HIGH;
 80041d0:	2380      	movs	r3, #128	; 0x80
 80041d2:	019b      	lsls	r3, r3, #6
 80041d4:	61e3      	str	r3, [r4, #28]
    if (HAL_DMA_Init(&hdma_tim1_ch4_trig_com) != HAL_OK)
 80041d6:	f000 fc51 	bl	8004a7c <HAL_DMA_Init>
 80041da:	2800      	cmp	r0, #0
 80041dc:	d001      	beq.n	80041e2 <HAL_TIM_PWM_MspInit+0x8a>
    {
      Error_Handler();
 80041de:	f7fd fb29 	bl	8001834 <Error_Handler>
    __HAL_LINKDMA(htim_pwm,hdma[TIM_DMA_ID_CC4],hdma_tim1_ch4_trig_com);
    __HAL_LINKDMA(htim_pwm,hdma[TIM_DMA_ID_TRIGGER],hdma_tim1_ch4_trig_com);
    __HAL_LINKDMA(htim_pwm,hdma[TIM_DMA_ID_COMMUTATION],hdma_tim1_ch4_trig_com);

    /* TIM1_CH3_UP Init */
    hdma_tim1_ch3_up.Instance = DMA1_Channel5;
 80041e2:	4b16      	ldr	r3, [pc, #88]	; (800423c <HAL_TIM_PWM_MspInit+0xe4>)
    __HAL_LINKDMA(htim_pwm,hdma[TIM_DMA_ID_CC4],hdma_tim1_ch4_trig_com);
 80041e4:	632c      	str	r4, [r5, #48]	; 0x30
 80041e6:	6265      	str	r5, [r4, #36]	; 0x24
    __HAL_LINKDMA(htim_pwm,hdma[TIM_DMA_ID_TRIGGER],hdma_tim1_ch4_trig_com);
 80041e8:	63ac      	str	r4, [r5, #56]	; 0x38
    __HAL_LINKDMA(htim_pwm,hdma[TIM_DMA_ID_COMMUTATION],hdma_tim1_ch4_trig_com);
 80041ea:	636c      	str	r4, [r5, #52]	; 0x34
    hdma_tim1_ch3_up.Instance = DMA1_Channel5;
 80041ec:	4c14      	ldr	r4, [pc, #80]	; (8004240 <HAL_TIM_PWM_MspInit+0xe8>)
 80041ee:	6023      	str	r3, [r4, #0]
    hdma_tim1_ch3_up.Init.Direction = DMA_MEMORY_TO_PERIPH;
 80041f0:	2310      	movs	r3, #16
 80041f2:	6063      	str	r3, [r4, #4]
    hdma_tim1_ch3_up.Init.PeriphInc = DMA_PINC_DISABLE;
 80041f4:	2300      	movs	r3, #0
 80041f6:	60a3      	str	r3, [r4, #8]
    hdma_tim1_ch3_up.Init.MemInc = DMA_MINC_ENABLE;
 80041f8:	3380      	adds	r3, #128	; 0x80
 80041fa:	60e3      	str	r3, [r4, #12]
    hdma_tim1_ch3_up.Init.PeriphDataAlignment = DMA_PDATAALIGN_HALFWORD;
 80041fc:	3380      	adds	r3, #128	; 0x80
 80041fe:	6123      	str	r3, [r4, #16]
    hdma_tim1_ch3_up.Init.MemDataAlignment = DMA_MDATAALIGN_HALFWORD;
 8004200:	2380      	movs	r3, #128	; 0x80
 8004202:	00db      	lsls	r3, r3, #3
 8004204:	6163      	str	r3, [r4, #20]
    hdma_tim1_ch3_up.Init.Mode = DMA_CIRCULAR;
 8004206:	2320      	movs	r3, #32
 8004208:	61a3      	str	r3, [r4, #24]
    hdma_tim1_ch3_up.Init.Priority = DMA_PRIORITY_HIGH;
 800420a:	2380      	movs	r3, #128	; 0x80
    if (HAL_DMA_Init(&hdma_tim1_ch3_up) != HAL_OK)
 800420c:	0020      	movs	r0, r4
    hdma_tim1_ch3_up.Init.Priority = DMA_PRIORITY_HIGH;
 800420e:	019b      	lsls	r3, r3, #6
 8004210:	61e3      	str	r3, [r4, #28]
    if (HAL_DMA_Init(&hdma_tim1_ch3_up) != HAL_OK)
 8004212:	f000 fc33 	bl	8004a7c <HAL_DMA_Init>
 8004216:	2800      	cmp	r0, #0
 8004218:	d001      	beq.n	800421e <HAL_TIM_PWM_MspInit+0xc6>
    {
      Error_Handler();
 800421a:	f7fd fb0b 	bl	8001834 <Error_Handler>
    }

    /* Several peripheral DMA handle pointers point to the same DMA handle.
     Be aware that there is only one channel to perform all the requested DMAs. */
    __HAL_LINKDMA(htim_pwm,hdma[TIM_DMA_ID_CC3],hdma_tim1_ch3_up);
    __HAL_LINKDMA(htim_pwm,hdma[TIM_DMA_ID_UPDATE],hdma_tim1_ch3_up);
 800421e:	622c      	str	r4, [r5, #32]
    __HAL_LINKDMA(htim_pwm,hdma[TIM_DMA_ID_CC3],hdma_tim1_ch3_up);
 8004220:	62ec      	str	r4, [r5, #44]	; 0x2c
    __HAL_LINKDMA(htim_pwm,hdma[TIM_DMA_ID_UPDATE],hdma_tim1_ch3_up);
 8004222:	6265      	str	r5, [r4, #36]	; 0x24
  /* USER CODE BEGIN TIM1_MspInit 1 */

  /* USER CODE END TIM1_MspInit 1 */
  }

}
 8004224:	b009      	add	sp, #36	; 0x24
 8004226:	bd30      	pop	{r4, r5, pc}
 8004228:	40012c00 	.word	0x40012c00
 800422c:	40021000 	.word	0x40021000
 8004230:	48000400 	.word	0x48000400
 8004234:	200004a8 	.word	0x200004a8
 8004238:	40020044 	.word	0x40020044
 800423c:	40020058 	.word	0x40020058
 8004240:	20000464 	.word	0x20000464

08004244 <HAL_TIM_Base_MspInit>:
* This function configures the hardware resources used in this example
* @param htim_base: TIM_Base handle pointer
* @retval None
*/
void HAL_TIM_Base_MspInit(TIM_HandleTypeDef* htim_base)
{
 8004244:	b510      	push	{r4, lr}
 8004246:	0004      	movs	r4, r0
 8004248:	b088      	sub	sp, #32
  GPIO_InitTypeDef GPIO_InitStruct = {0};
 800424a:	2214      	movs	r2, #20
 800424c:	2100      	movs	r1, #0
 800424e:	a803      	add	r0, sp, #12
 8004250:	f002 f959 	bl	8006506 <memset>
  if(htim_base->Instance==TIM2)
 8004254:	2380      	movs	r3, #128	; 0x80
 8004256:	6822      	ldr	r2, [r4, #0]
 8004258:	05db      	lsls	r3, r3, #23
 800425a:	429a      	cmp	r2, r3
 800425c:	d11d      	bne.n	800429a <HAL_TIM_Base_MspInit+0x56>
  {
  /* USER CODE BEGIN TIM2_MspInit 0 */

  /* USER CODE END TIM2_MspInit 0 */
    /* Peripheral clock enable */
    __HAL_RCC_TIM2_CLK_ENABLE();
 800425e:	2101      	movs	r1, #1
 8004260:	4b0f      	ldr	r3, [pc, #60]	; (80042a0 <HAL_TIM_Base_MspInit+0x5c>)
    GPIO_InitStruct.Pin = M1_HALL_H1_Pin|M1_HALL_H2_Pin|M1_HALL_H3_Pin;
    GPIO_InitStruct.Mode = GPIO_MODE_AF_PP;
    GPIO_InitStruct.Pull = GPIO_NOPULL;
    GPIO_InitStruct.Speed = GPIO_SPEED_FREQ_HIGH;
    GPIO_InitStruct.Alternate = GPIO_AF2_TIM2;
    HAL_GPIO_Init(GPIOA, &GPIO_InitStruct);
 8004262:	2090      	movs	r0, #144	; 0x90
    __HAL_RCC_TIM2_CLK_ENABLE();
 8004264:	69da      	ldr	r2, [r3, #28]
    HAL_GPIO_Init(GPIOA, &GPIO_InitStruct);
 8004266:	05c0      	lsls	r0, r0, #23
    __HAL_RCC_TIM2_CLK_ENABLE();
 8004268:	430a      	orrs	r2, r1
 800426a:	61da      	str	r2, [r3, #28]
 800426c:	69da      	ldr	r2, [r3, #28]
 800426e:	400a      	ands	r2, r1
    __HAL_RCC_GPIOA_CLK_ENABLE();
 8004270:	2180      	movs	r1, #128	; 0x80
    __HAL_RCC_TIM2_CLK_ENABLE();
 8004272:	9201      	str	r2, [sp, #4]
 8004274:	9a01      	ldr	r2, [sp, #4]
    __HAL_RCC_GPIOA_CLK_ENABLE();
 8004276:	695a      	ldr	r2, [r3, #20]
 8004278:	0289      	lsls	r1, r1, #10
 800427a:	430a      	orrs	r2, r1
 800427c:	615a      	str	r2, [r3, #20]
 800427e:	695b      	ldr	r3, [r3, #20]
    GPIO_InitStruct.Speed = GPIO_SPEED_FREQ_HIGH;
 8004280:	2203      	movs	r2, #3
    __HAL_RCC_GPIOA_CLK_ENABLE();
 8004282:	400b      	ands	r3, r1
 8004284:	9302      	str	r3, [sp, #8]
 8004286:	9b02      	ldr	r3, [sp, #8]
    GPIO_InitStruct.Pin = M1_HALL_H1_Pin|M1_HALL_H2_Pin|M1_HALL_H3_Pin;
 8004288:	2307      	movs	r3, #7
    HAL_GPIO_Init(GPIOA, &GPIO_InitStruct);
 800428a:	a903      	add	r1, sp, #12
    GPIO_InitStruct.Pin = M1_HALL_H1_Pin|M1_HALL_H2_Pin|M1_HALL_H3_Pin;
 800428c:	9303      	str	r3, [sp, #12]
    GPIO_InitStruct.Mode = GPIO_MODE_AF_PP;
 800428e:	3b05      	subs	r3, #5
 8004290:	9304      	str	r3, [sp, #16]
    GPIO_InitStruct.Speed = GPIO_SPEED_FREQ_HIGH;
 8004292:	9206      	str	r2, [sp, #24]
    GPIO_InitStruct.Alternate = GPIO_AF2_TIM2;
 8004294:	9307      	str	r3, [sp, #28]
    HAL_GPIO_Init(GPIOA, &GPIO_InitStruct);
 8004296:	f000 fc23 	bl	8004ae0 <HAL_GPIO_Init>
  /* USER CODE BEGIN TIM2_MspInit 1 */

  /* USER CODE END TIM2_MspInit 1 */
  }

}
 800429a:	b008      	add	sp, #32
 800429c:	bd10      	pop	{r4, pc}
 800429e:	46c0      	nop			; (mov r8, r8)
 80042a0:	40021000 	.word	0x40021000

080042a4 <HAL_TIM_MspPostInit>:

void HAL_TIM_MspPostInit(TIM_HandleTypeDef* htim)
{
 80042a4:	b570      	push	{r4, r5, r6, lr}
 80042a6:	0004      	movs	r4, r0
 80042a8:	b088      	sub	sp, #32
  GPIO_InitTypeDef GPIO_InitStruct = {0};
 80042aa:	2214      	movs	r2, #20
 80042ac:	2100      	movs	r1, #0
 80042ae:	a803      	add	r0, sp, #12
 80042b0:	f002 f929 	bl	8006506 <memset>
  if(htim->Instance==TIM1)
 80042b4:	4b19      	ldr	r3, [pc, #100]	; (800431c <HAL_TIM_MspPostInit+0x78>)
 80042b6:	6822      	ldr	r2, [r4, #0]
 80042b8:	429a      	cmp	r2, r3
 80042ba:	d12c      	bne.n	8004316 <HAL_TIM_MspPostInit+0x72>
  {
  /* USER CODE BEGIN TIM1_MspPostInit 0 */

  /* USER CODE END TIM1_MspPostInit 0 */

    __HAL_RCC_GPIOB_CLK_ENABLE();
 80042bc:	2180      	movs	r1, #128	; 0x80
 80042be:	4b18      	ldr	r3, [pc, #96]	; (8004320 <HAL_TIM_MspPostInit+0x7c>)
 80042c0:	02c9      	lsls	r1, r1, #11
 80042c2:	695a      	ldr	r2, [r3, #20]
    PA8     ------> TIM1_CH1
    PA9     ------> TIM1_CH2
    PA10     ------> TIM1_CH3
    */
    GPIO_InitStruct.Pin = M1_PWM_UL_Pin|M1_PWM_VL_Pin|M1_PWM_WL_Pin;
    GPIO_InitStruct.Mode = GPIO_MODE_AF_PP;
 80042c4:	2402      	movs	r4, #2
    __HAL_RCC_GPIOB_CLK_ENABLE();
 80042c6:	430a      	orrs	r2, r1
 80042c8:	615a      	str	r2, [r3, #20]
 80042ca:	695a      	ldr	r2, [r3, #20]
    GPIO_InitStruct.Pull = GPIO_PULLUP;
 80042cc:	2601      	movs	r6, #1
    __HAL_RCC_GPIOB_CLK_ENABLE();
 80042ce:	400a      	ands	r2, r1
    __HAL_RCC_GPIOA_CLK_ENABLE();
 80042d0:	2180      	movs	r1, #128	; 0x80
    __HAL_RCC_GPIOB_CLK_ENABLE();
 80042d2:	9201      	str	r2, [sp, #4]
 80042d4:	9a01      	ldr	r2, [sp, #4]
    __HAL_RCC_GPIOA_CLK_ENABLE();
 80042d6:	695a      	ldr	r2, [r3, #20]
 80042d8:	0289      	lsls	r1, r1, #10
 80042da:	430a      	orrs	r2, r1
 80042dc:	615a      	str	r2, [r3, #20]
 80042de:	695b      	ldr	r3, [r3, #20]
    GPIO_InitStruct.Speed = GPIO_SPEED_FREQ_HIGH;
 80042e0:	2503      	movs	r5, #3
    __HAL_RCC_GPIOA_CLK_ENABLE();
 80042e2:	400b      	ands	r3, r1
 80042e4:	9302      	str	r3, [sp, #8]
 80042e6:	9b02      	ldr	r3, [sp, #8]
    GPIO_InitStruct.Pin = M1_PWM_UL_Pin|M1_PWM_VL_Pin|M1_PWM_WL_Pin;
 80042e8:	23e0      	movs	r3, #224	; 0xe0
    GPIO_InitStruct.Alternate = GPIO_AF2_TIM1;
    HAL_GPIO_Init(GPIOB, &GPIO_InitStruct);
 80042ea:	480e      	ldr	r0, [pc, #56]	; (8004324 <HAL_TIM_MspPostInit+0x80>)
    GPIO_InitStruct.Pin = M1_PWM_UL_Pin|M1_PWM_VL_Pin|M1_PWM_WL_Pin;
 80042ec:	021b      	lsls	r3, r3, #8
    HAL_GPIO_Init(GPIOB, &GPIO_InitStruct);
 80042ee:	a903      	add	r1, sp, #12
    GPIO_InitStruct.Pin = M1_PWM_UL_Pin|M1_PWM_VL_Pin|M1_PWM_WL_Pin;
 80042f0:	9303      	str	r3, [sp, #12]
    GPIO_InitStruct.Mode = GPIO_MODE_AF_PP;
 80042f2:	9404      	str	r4, [sp, #16]
    GPIO_InitStruct.Pull = GPIO_PULLUP;
 80042f4:	9605      	str	r6, [sp, #20]
    GPIO_InitStruct.Speed = GPIO_SPEED_FREQ_HIGH;
 80042f6:	9506      	str	r5, [sp, #24]
    GPIO_InitStruct.Alternate = GPIO_AF2_TIM1;
 80042f8:	9407      	str	r4, [sp, #28]
    HAL_GPIO_Init(GPIOB, &GPIO_InitStruct);
 80042fa:	f000 fbf1 	bl	8004ae0 <HAL_GPIO_Init>

    GPIO_InitStruct.Pin = M1_PWM_UH_Pin|M1_PWM_VH_Pin|M1_PWM_WH_Pin;
 80042fe:	23e0      	movs	r3, #224	; 0xe0
    GPIO_InitStruct.Mode = GPIO_MODE_AF_PP;
    GPIO_InitStruct.Pull = GPIO_PULLUP;
    GPIO_InitStruct.Speed = GPIO_SPEED_FREQ_HIGH;
    GPIO_InitStruct.Alternate = GPIO_AF2_TIM1;
    HAL_GPIO_Init(GPIOA, &GPIO_InitStruct);
 8004300:	2090      	movs	r0, #144	; 0x90
    GPIO_InitStruct.Pin = M1_PWM_UH_Pin|M1_PWM_VH_Pin|M1_PWM_WH_Pin;
 8004302:	00db      	lsls	r3, r3, #3
    HAL_GPIO_Init(GPIOA, &GPIO_InitStruct);
 8004304:	a903      	add	r1, sp, #12
 8004306:	05c0      	lsls	r0, r0, #23
    GPIO_InitStruct.Pin = M1_PWM_UH_Pin|M1_PWM_VH_Pin|M1_PWM_WH_Pin;
 8004308:	9303      	str	r3, [sp, #12]
    GPIO_InitStruct.Mode = GPIO_MODE_AF_PP;
 800430a:	9404      	str	r4, [sp, #16]
    GPIO_InitStruct.Pull = GPIO_PULLUP;
 800430c:	9605      	str	r6, [sp, #20]
    GPIO_InitStruct.Speed = GPIO_SPEED_FREQ_HIGH;
 800430e:	9506      	str	r5, [sp, #24]
    GPIO_InitStruct.Alternate = GPIO_AF2_TIM1;
 8004310:	9407      	str	r4, [sp, #28]
    HAL_GPIO_Init(GPIOA, &GPIO_InitStruct);
 8004312:	f000 fbe5 	bl	8004ae0 <HAL_GPIO_Init>
  /* USER CODE BEGIN TIM1_MspPostInit 1 */

  /* USER CODE END TIM1_MspPostInit 1 */
  }

}
 8004316:	b008      	add	sp, #32
 8004318:	bd70      	pop	{r4, r5, r6, pc}
 800431a:	46c0      	nop			; (mov r8, r8)
 800431c:	40012c00 	.word	0x40012c00
 8004320:	40021000 	.word	0x40021000
 8004324:	48000400 	.word	0x48000400

08004328 <HAL_UART_MspInit>:
* This function configures the hardware resources used in this example
* @param huart: UART handle pointer
* @retval None
*/
void HAL_UART_MspInit(UART_HandleTypeDef* huart)
{
 8004328:	b530      	push	{r4, r5, lr}
 800432a:	0005      	movs	r5, r0
 800432c:	b089      	sub	sp, #36	; 0x24
  GPIO_InitTypeDef GPIO_InitStruct = {0};
 800432e:	2214      	movs	r2, #20
 8004330:	2100      	movs	r1, #0
 8004332:	a803      	add	r0, sp, #12
 8004334:	f002 f8e7 	bl	8006506 <memset>
  if(huart->Instance==USART1)
 8004338:	4b25      	ldr	r3, [pc, #148]	; (80043d0 <HAL_UART_MspInit+0xa8>)
 800433a:	682a      	ldr	r2, [r5, #0]
 800433c:	429a      	cmp	r2, r3
 800433e:	d145      	bne.n	80043cc <HAL_UART_MspInit+0xa4>
  {
  /* USER CODE BEGIN USART1_MspInit 0 */

  /* USER CODE END USART1_MspInit 0 */
    /* Peripheral clock enable */
    __HAL_RCC_USART1_CLK_ENABLE();
 8004340:	2180      	movs	r1, #128	; 0x80
 8004342:	4b24      	ldr	r3, [pc, #144]	; (80043d4 <HAL_UART_MspInit+0xac>)
 8004344:	01c9      	lsls	r1, r1, #7
 8004346:	699a      	ldr	r2, [r3, #24]
    GPIO_InitStruct.Pin = UART_TX_Pin|UART_RX_Pin;
    GPIO_InitStruct.Mode = GPIO_MODE_AF_PP;
    GPIO_InitStruct.Pull = GPIO_NOPULL;
    GPIO_InitStruct.Speed = GPIO_SPEED_FREQ_LOW;
    GPIO_InitStruct.Alternate = GPIO_AF0_USART1;
    HAL_GPIO_Init(GPIOB, &GPIO_InitStruct);
 8004348:	4823      	ldr	r0, [pc, #140]	; (80043d8 <HAL_UART_MspInit+0xb0>)
    __HAL_RCC_USART1_CLK_ENABLE();
 800434a:	430a      	orrs	r2, r1
 800434c:	619a      	str	r2, [r3, #24]
 800434e:	699a      	ldr	r2, [r3, #24]
 8004350:	400a      	ands	r2, r1
    __HAL_RCC_GPIOB_CLK_ENABLE();
 8004352:	2180      	movs	r1, #128	; 0x80
    __HAL_RCC_USART1_CLK_ENABLE();
 8004354:	9201      	str	r2, [sp, #4]
 8004356:	9a01      	ldr	r2, [sp, #4]
    __HAL_RCC_GPIOB_CLK_ENABLE();
 8004358:	695a      	ldr	r2, [r3, #20]
 800435a:	02c9      	lsls	r1, r1, #11
 800435c:	430a      	orrs	r2, r1
 800435e:	615a      	str	r2, [r3, #20]
 8004360:	695b      	ldr	r3, [r3, #20]
 8004362:	400b      	ands	r3, r1
 8004364:	9302      	str	r3, [sp, #8]
 8004366:	9b02      	ldr	r3, [sp, #8]
    GPIO_InitStruct.Pin = UART_TX_Pin|UART_RX_Pin;
 8004368:	23c0      	movs	r3, #192	; 0xc0
    HAL_GPIO_Init(GPIOB, &GPIO_InitStruct);
 800436a:	a903      	add	r1, sp, #12
    GPIO_InitStruct.Pin = UART_TX_Pin|UART_RX_Pin;
 800436c:	9303      	str	r3, [sp, #12]
    GPIO_InitStruct.Mode = GPIO_MODE_AF_PP;
 800436e:	3bbe      	subs	r3, #190	; 0xbe
 8004370:	9304      	str	r3, [sp, #16]
    HAL_GPIO_Init(GPIOB, &GPIO_InitStruct);
 8004372:	f000 fbb5 	bl	8004ae0 <HAL_GPIO_Init>

    /* USART1 DMA Init */
    /* USART1_RX Init */
    hdma_usart1_rx.Instance = DMA1_Channel3;
 8004376:	4c19      	ldr	r4, [pc, #100]	; (80043dc <HAL_UART_MspInit+0xb4>)
 8004378:	4b19      	ldr	r3, [pc, #100]	; (80043e0 <HAL_UART_MspInit+0xb8>)
    hdma_usart1_rx.Init.Direction = DMA_PERIPH_TO_MEMORY;
    hdma_usart1_rx.Init.PeriphInc = DMA_PINC_DISABLE;
    hdma_usart1_rx.Init.MemInc = DMA_MINC_ENABLE;
 800437a:	2280      	movs	r2, #128	; 0x80
    hdma_usart1_rx.Instance = DMA1_Channel3;
 800437c:	6023      	str	r3, [r4, #0]
    hdma_usart1_rx.Init.Direction = DMA_PERIPH_TO_MEMORY;
 800437e:	2300      	movs	r3, #0
    hdma_usart1_rx.Init.PeriphDataAlignment = DMA_PDATAALIGN_BYTE;
    hdma_usart1_rx.Init.MemDataAlignment = DMA_MDATAALIGN_BYTE;
    hdma_usart1_rx.Init.Mode = DMA_NORMAL;
    hdma_usart1_rx.Init.Priority = DMA_PRIORITY_LOW;
    if (HAL_DMA_Init(&hdma_usart1_rx) != HAL_OK)
 8004380:	0020      	movs	r0, r4
    hdma_usart1_rx.Init.Direction = DMA_PERIPH_TO_MEMORY;
 8004382:	6063      	str	r3, [r4, #4]
    hdma_usart1_rx.Init.PeriphInc = DMA_PINC_DISABLE;
 8004384:	60a3      	str	r3, [r4, #8]
    hdma_usart1_rx.Init.MemInc = DMA_MINC_ENABLE;
 8004386:	60e2      	str	r2, [r4, #12]
    hdma_usart1_rx.Init.PeriphDataAlignment = DMA_PDATAALIGN_BYTE;
 8004388:	6123      	str	r3, [r4, #16]
    hdma_usart1_rx.Init.MemDataAlignment = DMA_MDATAALIGN_BYTE;
 800438a:	6163      	str	r3, [r4, #20]
    hdma_usart1_rx.Init.Mode = DMA_NORMAL;
 800438c:	61a3      	str	r3, [r4, #24]
    hdma_usart1_rx.Init.Priority = DMA_PRIORITY_LOW;
 800438e:	61e3      	str	r3, [r4, #28]
    if (HAL_DMA_Init(&hdma_usart1_rx) != HAL_OK)
 8004390:	f000 fb74 	bl	8004a7c <HAL_DMA_Init>
 8004394:	2800      	cmp	r0, #0
 8004396:	d001      	beq.n	800439c <HAL_UART_MspInit+0x74>
    {
      Error_Handler();
 8004398:	f7fd fa4c 	bl	8001834 <Error_Handler>
    }

    __HAL_LINKDMA(huart,hdmarx,hdma_usart1_rx);

    /* USART1_TX Init */
    hdma_usart1_tx.Instance = DMA1_Channel2;
 800439c:	4b11      	ldr	r3, [pc, #68]	; (80043e4 <HAL_UART_MspInit+0xbc>)
    __HAL_LINKDMA(huart,hdmarx,hdma_usart1_rx);
 800439e:	676c      	str	r4, [r5, #116]	; 0x74
 80043a0:	6265      	str	r5, [r4, #36]	; 0x24
    hdma_usart1_tx.Instance = DMA1_Channel2;
 80043a2:	4c11      	ldr	r4, [pc, #68]	; (80043e8 <HAL_UART_MspInit+0xc0>)
    hdma_usart1_tx.Init.Direction = DMA_MEMORY_TO_PERIPH;
    hdma_usart1_tx.Init.PeriphInc = DMA_PINC_DISABLE;
    hdma_usart1_tx.Init.MemInc = DMA_MINC_ENABLE;
 80043a4:	2280      	movs	r2, #128	; 0x80
    hdma_usart1_tx.Instance = DMA1_Channel2;
 80043a6:	6023      	str	r3, [r4, #0]
    hdma_usart1_tx.Init.Direction = DMA_MEMORY_TO_PERIPH;
 80043a8:	2310      	movs	r3, #16
 80043aa:	6063      	str	r3, [r4, #4]
    hdma_usart1_tx.Init.PeriphInc = DMA_PINC_DISABLE;
 80043ac:	2300      	movs	r3, #0
    hdma_usart1_tx.Init.PeriphDataAlignment = DMA_PDATAALIGN_BYTE;
    hdma_usart1_tx.Init.MemDataAlignment = DMA_MDATAALIGN_BYTE;
    hdma_usart1_tx.Init.Mode = DMA_NORMAL;
    hdma_usart1_tx.Init.Priority = DMA_PRIORITY_LOW;
    if (HAL_DMA_Init(&hdma_usart1_tx) != HAL_OK)
 80043ae:	0020      	movs	r0, r4
    hdma_usart1_tx.Init.PeriphInc = DMA_PINC_DISABLE;
 80043b0:	60a3      	str	r3, [r4, #8]
    hdma_usart1_tx.Init.MemInc = DMA_MINC_ENABLE;
 80043b2:	60e2      	str	r2, [r4, #12]
    hdma_usart1_tx.Init.PeriphDataAlignment = DMA_PDATAALIGN_BYTE;
 80043b4:	6123      	str	r3, [r4, #16]
    hdma_usart1_tx.Init.MemDataAlignment = DMA_MDATAALIGN_BYTE;
 80043b6:	6163      	str	r3, [r4, #20]
    hdma_usart1_tx.Init.Mode = DMA_NORMAL;
 80043b8:	61a3      	str	r3, [r4, #24]
    hdma_usart1_tx.Init.Priority = DMA_PRIORITY_LOW;
 80043ba:	61e3      	str	r3, [r4, #28]
    if (HAL_DMA_Init(&hdma_usart1_tx) != HAL_OK)
 80043bc:	f000 fb5e 	bl	8004a7c <HAL_DMA_Init>
 80043c0:	2800      	cmp	r0, #0
 80043c2:	d001      	beq.n	80043c8 <HAL_UART_MspInit+0xa0>
    {
      Error_Handler();
 80043c4:	f7fd fa36 	bl	8001834 <Error_Handler>
    }

    __HAL_LINKDMA(huart,hdmatx,hdma_usart1_tx);
 80043c8:	672c      	str	r4, [r5, #112]	; 0x70
 80043ca:	6265      	str	r5, [r4, #36]	; 0x24
  /* USER CODE BEGIN USART1_MspInit 1 */

  /* USER CODE END USART1_MspInit 1 */
  }

}
 80043cc:	b009      	add	sp, #36	; 0x24
 80043ce:	bd30      	pop	{r4, r5, pc}
 80043d0:	40013800 	.word	0x40013800
 80043d4:	40021000 	.word	0x40021000
 80043d8:	48000400 	.word	0x48000400
 80043dc:	200004ec 	.word	0x200004ec
 80043e0:	40020030 	.word	0x40020030
 80043e4:	4002001c 	.word	0x4002001c
 80043e8:	20000530 	.word	0x20000530

080043ec <NMI_Handler>:
{
  /* USER CODE BEGIN NonMaskableInt_IRQn 0 */

  /* USER CODE END NonMaskableInt_IRQn 0 */
  /* USER CODE BEGIN NonMaskableInt_IRQn 1 */
  while (1)
 80043ec:	e7fe      	b.n	80043ec <NMI_Handler>

080043ee <PendSV_Handler>:

  /* USER CODE END PendSV_IRQn 0 */
  /* USER CODE BEGIN PendSV_IRQn 1 */

  /* USER CODE END PendSV_IRQn 1 */
}
 80043ee:	4770      	bx	lr

080043f0 <DMA1_Channel1_IRQHandler>:
  /* USER CODE BEGIN CURRENT_REGULATION_IRQn 0 */

  /* USER CODE END CURRENT_REGULATION_IRQn 0 */

  /* Clear Flags */
  DMA1->IFCR = (LL_DMA_ISR_GIF1|LL_DMA_ISR_TCIF1|LL_DMA_ISR_HTIF1);
 80043f0:	2207      	movs	r2, #7
{
 80043f2:	b510      	push	{r4, lr}
  DMA1->IFCR = (LL_DMA_ISR_GIF1|LL_DMA_ISR_TCIF1|LL_DMA_ISR_HTIF1);
 80043f4:	4b02      	ldr	r3, [pc, #8]	; (8004400 <DMA1_Channel1_IRQHandler+0x10>)
 80043f6:	605a      	str	r2, [r3, #4]

  /* USER CODE BEGIN CURRENT_REGULATION_IRQn 1 */

  /* USER CODE END CURRENT_REGULATION_IRQn 1 */
    TSK_HighFrequencyTask();
 80043f8:	f7fd fe24 	bl	8002044 <TSK_HighFrequencyTask>

  /* USER CODE BEGIN CURRENT_REGULATION_IRQn 2 */

  /* USER CODE END CURRENT_REGULATION_IRQn 2 */
}
 80043fc:	bd10      	pop	{r4, pc}
 80043fe:	46c0      	nop			; (mov r8, r8)
 8004400:	40020000 	.word	0x40020000

08004404 <TIM1_BRK_UP_TRG_COM_IRQHandler>:
  return ((READ_BIT(TIMx->SR, TIM_SR_UIF) == (TIM_SR_UIF)) ? 1UL : 0UL);
 8004404:	2301      	movs	r3, #1
/**
  * @brief  This function handles first motor TIMx Update, Break-in interrupt request.
  * @param  None
  */
void TIMx_UP_BRK_M1_IRQHandler(void)
{
 8004406:	b510      	push	{r4, lr}
 8004408:	4c0d      	ldr	r4, [pc, #52]	; (8004440 <TIM1_BRK_UP_TRG_COM_IRQHandler+0x3c>)
 800440a:	6922      	ldr	r2, [r4, #16]
 800440c:	421a      	tst	r2, r3
 800440e:	d008      	beq.n	8004422 <TIM1_BRK_UP_TRG_COM_IRQHandler+0x1e>
  return ((READ_BIT(TIMx->DIER, TIM_DIER_UIE) == (TIM_DIER_UIE)) ? 1UL : 0UL);
 8004410:	68e2      	ldr	r2, [r4, #12]
 8004412:	421a      	tst	r2, r3
 8004414:	d005      	beq.n	8004422 <TIM1_BRK_UP_TRG_COM_IRQHandler+0x1e>

  /* USER CODE END TIMx_UP_BRK_M1_IRQn 0 */

  if(LL_TIM_IsActiveFlag_UPDATE(TIM1) && LL_TIM_IsEnabledIT_UPDATE(TIM1))
  {
    R1_TIM1_UP_IRQHandler(&PWM_Handle_M1);
 8004416:	480b      	ldr	r0, [pc, #44]	; (8004444 <TIM1_BRK_UP_TRG_COM_IRQHandler+0x40>)
 8004418:	f7ff f98c 	bl	8003734 <R1_TIM1_UP_IRQHandler>
  WRITE_REG(TIMx->SR, ~(TIM_SR_UIF));
 800441c:	2302      	movs	r3, #2
 800441e:	425b      	negs	r3, r3
 8004420:	6123      	str	r3, [r4, #16]
  return ((READ_BIT(TIMx->SR, TIM_SR_BIF) == (TIM_SR_BIF)) ? 1UL : 0UL);
 8004422:	2380      	movs	r3, #128	; 0x80
 8004424:	6922      	ldr	r2, [r4, #16]
 8004426:	421a      	tst	r2, r3
 8004428:	d008      	beq.n	800443c <TIM1_BRK_UP_TRG_COM_IRQHandler+0x38>
  return ((READ_BIT(TIMx->DIER, TIM_DIER_BIE) == (TIM_DIER_BIE)) ? 1UL : 0UL);
 800442a:	68e2      	ldr	r2, [r4, #12]
 800442c:	421a      	tst	r2, r3
 800442e:	d005      	beq.n	800443c <TIM1_BRK_UP_TRG_COM_IRQHandler+0x38>
  WRITE_REG(TIMx->SR, ~(TIM_SR_BIF));
 8004430:	3b02      	subs	r3, #2
 8004432:	3bff      	subs	r3, #255	; 0xff
    /* USER CODE END PWM_Update */
  }
  if(LL_TIM_IsActiveFlag_BRK(TIM1) && LL_TIM_IsEnabledIT_BRK(TIM1))
  {
    LL_TIM_ClearFlag_BRK(TIM1);
    PWMC_OCP_Handler(&PWM_Handle_M1._Super);
 8004434:	4803      	ldr	r0, [pc, #12]	; (8004444 <TIM1_BRK_UP_TRG_COM_IRQHandler+0x40>)
 8004436:	6123      	str	r3, [r4, #16]
 8004438:	f7fe fa64 	bl	8002904 <PWMC_OCP_Handler>
   /* No other interrupts are routed to this handler */
  }
  /* USER CODE BEGIN TIMx_UP_BRK_M1_IRQn 1 */

  /* USER CODE END TIMx_UP_BRK_M1_IRQn 1 */
}
 800443c:	bd10      	pop	{r4, pc}
 800443e:	46c0      	nop			; (mov r8, r8)
 8004440:	40012c00 	.word	0x40012c00
 8004444:	20000180 	.word	0x20000180

08004448 <DMA1_Channel4_5_IRQHandler>:
  return (READ_BIT(DMAx->ISR, DMA_ISR_TCIF5) == (DMA_ISR_TCIF5));
 8004448:	2280      	movs	r2, #128	; 0x80
 800444a:	4b05      	ldr	r3, [pc, #20]	; (8004460 <DMA1_Channel4_5_IRQHandler+0x18>)
 800444c:	0292      	lsls	r2, r2, #10
 800444e:	6819      	ldr	r1, [r3, #0]
  * @brief  This function handles first motor DMAx TC interrupt request.
  *         Required only for R1 with rep rate > 1
  * @param  None
  */
void DMAx_R1_M1_IRQHandler(void)
{
 8004450:	b510      	push	{r4, lr}
  /* USER CODE BEGIN DMAx_R1_M1_IRQn 0 */

  /* USER CODE END DMAx_R1_M1_IRQn 0 */
  if (LL_DMA_IsActiveFlag_TC5(DMA1))
 8004452:	4211      	tst	r1, r2
 8004454:	d003      	beq.n	800445e <DMA1_Channel4_5_IRQHandler+0x16>
  {
    LL_DMA_ClearFlag_TC5(DMA1);
    R1_DMAx_TC_IRQHandler(&PWM_Handle_M1);
 8004456:	4803      	ldr	r0, [pc, #12]	; (8004464 <DMA1_Channel4_5_IRQHandler+0x1c>)
  WRITE_REG(DMAx->IFCR, DMA_IFCR_CTCIF5);
 8004458:	605a      	str	r2, [r3, #4]
 800445a:	f7ff f989 	bl	8003770 <R1_DMAx_TC_IRQHandler>
  }

  /* USER CODE BEGIN DMAx_R1_M1_IRQn 1 */

  /* USER CODE END DMAx_R1_M1_IRQn 1 */
}
 800445e:	bd10      	pop	{r4, pc}
 8004460:	40020000 	.word	0x40020000
 8004464:	20000180 	.word	0x20000180

08004468 <TIM2_IRQHandler>:
/**
  * @brief  This function handles TIMx global interrupt request for M1 Speed Sensor.
  * @param  None
  */
void SPD_TIM_M1_IRQHandler(void)
{
 8004468:	b510      	push	{r4, lr}
  /* USER CODE BEGIN SPD_TIM_M1_IRQn 0 */

  /* USER CODE END SPD_TIM_M1_IRQn 0 */

  /* HALL Timer Update IT always enabled, no need to check enable UPDATE state */
  if (LL_TIM_IsActiveFlag_UPDATE(HALL_M1.TIMx) != 0)
 800446a:	4c0b      	ldr	r4, [pc, #44]	; (8004498 <TIM2_IRQHandler+0x30>)
 800446c:	6ae3      	ldr	r3, [r4, #44]	; 0x2c
  return ((READ_BIT(TIMx->SR, TIM_SR_UIF) == (TIM_SR_UIF)) ? 1UL : 0UL);
 800446e:	691a      	ldr	r2, [r3, #16]
 8004470:	07d2      	lsls	r2, r2, #31
 8004472:	d505      	bpl.n	8004480 <TIM2_IRQHandler+0x18>
  WRITE_REG(TIMx->SR, ~(TIM_SR_UIF));
 8004474:	2202      	movs	r2, #2
 8004476:	4252      	negs	r2, r2
  {
    LL_TIM_ClearFlag_UPDATE(HALL_M1.TIMx);
    HALL_TIMx_UP_IRQHandler(&HALL_M1);
 8004478:	0020      	movs	r0, r4
 800447a:	611a      	str	r2, [r3, #16]
 800447c:	f7fc ff9e 	bl	80013bc <HALL_TIMx_UP_IRQHandler>
  else
  {
    /* Nothing to do */
  }
  /* HALL Timer CC1 IT always enabled, no need to check enable CC1 state */
  if (LL_TIM_IsActiveFlag_CC1 (HALL_M1.TIMx))
 8004480:	6ae3      	ldr	r3, [r4, #44]	; 0x2c
  return ((READ_BIT(TIMx->SR, TIM_SR_CC1IF) == (TIM_SR_CC1IF)) ? 1UL : 0UL);
 8004482:	691a      	ldr	r2, [r3, #16]
 8004484:	0792      	lsls	r2, r2, #30
 8004486:	d505      	bpl.n	8004494 <TIM2_IRQHandler+0x2c>
  WRITE_REG(TIMx->SR, ~(TIM_SR_CC1IF));
 8004488:	2203      	movs	r2, #3
 800448a:	4252      	negs	r2, r2
  {
    LL_TIM_ClearFlag_CC1(HALL_M1.TIMx);
    HALL_TIMx_CC_IRQHandler(&HALL_M1);
 800448c:	0020      	movs	r0, r4
 800448e:	611a      	str	r2, [r3, #16]
 8004490:	f7fc fe32 	bl	80010f8 <HALL_TIMx_CC_IRQHandler>
  /* Nothing to do */
  }
  /* USER CODE BEGIN SPD_TIM_M1_IRQn 1 */

  /* USER CODE END SPD_TIM_M1_IRQn 1 */
}
 8004494:	bd10      	pop	{r4, pc}
 8004496:	46c0      	nop			; (mov r8, r8)
 8004498:	20000020 	.word	0x20000020

0800449c <DMA1_Channel2_3_IRQHandler>:
  return ((NULL == DMAx) ? 0U : ((READ_BIT(DMAx->ISR,
 800449c:	2280      	movs	r2, #128	; 0x80
 800449e:	4b05      	ldr	r3, [pc, #20]	; (80044b4 <DMA1_Channel2_3_IRQHandler+0x18>)
 80044a0:	0092      	lsls	r2, r2, #2
 80044a2:	6819      	ldr	r1, [r3, #0]

void DMA1_Channel2_3_IRQHandler (void)
{
 80044a4:	b510      	push	{r4, lr}
 80044a6:	4211      	tst	r1, r2
 80044a8:	d003      	beq.n	80044b2 <DMA1_Channel2_3_IRQHandler+0x16>
  /* Buffer is ready by the HW layer to be processed */
  if (LL_DMA_IsActiveFlag_TC (DMA_RX_A, DMACH_RX_A) ){
    LL_DMA_ClearFlag_TC (DMA_RX_A, DMACH_RX_A);
    ASPEP_HWDataReceivedIT (&aspepOverUartA);
 80044aa:	4803      	ldr	r0, [pc, #12]	; (80044b8 <DMA1_Channel2_3_IRQHandler+0x1c>)
    WRITE_REG (DMAx->IFCR, DMA_IFCR_CTCIF1 << ((Channel-LL_DMA_CHANNEL_1)<<2));
 80044ac:	605a      	str	r2, [r3, #4]
 80044ae:	f7fc fc17 	bl	8000ce0 <ASPEP_HWDataReceivedIT>
  }
}
 80044b2:	bd10      	pop	{r4, pc}
 80044b4:	40020000 	.word	0x40020000
 80044b8:	20000340 	.word	0x20000340

080044bc <USART1_IRQHandler>:
  * @param  USARTx USART Instance
  * @retval State of bit (1 or 0).
  */
__STATIC_INLINE uint32_t LL_USART_IsActiveFlag_TC(const USART_TypeDef *USARTx)
{
  return ((READ_BIT(USARTx->ISR, USART_ISR_TC) == (USART_ISR_TC)) ? 1UL : 0UL);
 80044bc:	2240      	movs	r2, #64	; 0x40

void USART1_IRQHandler(void)
{
 80044be:	b510      	push	{r4, lr}
 80044c0:	4c22      	ldr	r4, [pc, #136]	; (800454c <USART1_IRQHandler+0x90>)
 80044c2:	69e3      	ldr	r3, [r4, #28]
 80044c4:	4213      	tst	r3, r2
 80044c6:	d008      	beq.n	80044da <USART1_IRQHandler+0x1e>
  CLEAR_BIT(((DMA_Channel_TypeDef *)((uint32_t)((uint32_t)DMAx + CHANNEL_OFFSET_TAB[Channel - 1U])))->CCR, DMA_CCR_EN);
 80044c8:	2001      	movs	r0, #1
 80044ca:	4921      	ldr	r1, [pc, #132]	; (8004550 <USART1_IRQHandler+0x94>)
 80044cc:	680b      	ldr	r3, [r1, #0]
 80044ce:	4383      	bics	r3, r0
 80044d0:	600b      	str	r3, [r1, #0]
    /* Disable the DMA channel to prepare the next chunck of data*/
    LL_DMA_DisableChannel( DMA_TX_A, DMACH_TX_A );
    LL_USART_ClearFlag_TC (USARTA);
    /* Data Sent by UART*/
    /* Need to free the buffer, and to check pending transfer*/
    ASPEP_HWDataTransmittedIT (&aspepOverUartA);
 80044d2:	4820      	ldr	r0, [pc, #128]	; (8004554 <USART1_IRQHandler+0x98>)
  * @param  USARTx USART Instance
  * @retval None
  */
__STATIC_INLINE void LL_USART_ClearFlag_TC(USART_TypeDef *USARTx)
{
  WRITE_REG(USARTx->ICR, USART_ICR_TCCF);
 80044d4:	6222      	str	r2, [r4, #32]
 80044d6:	f7fc fb29 	bl	8000b2c <ASPEP_HWDataTransmittedIT>
  return ((READ_BIT(USARTx->ISR, USART_ISR_ORE) == (USART_ISR_ORE)) ? 1UL : 0UL);
 80044da:	2308      	movs	r3, #8
 80044dc:	69e2      	ldr	r2, [r4, #28]
 80044de:	421a      	tst	r2, r3
 80044e0:	d00b      	beq.n	80044fa <USART1_IRQHandler+0x3e>
  WRITE_REG(USARTx->ICR, USART_ICR_ORECF);
 80044e2:	6223      	str	r3, [r4, #32]
 */
__STATIC_FORCEINLINE uint32_t __get_PRIMASK(void)
{
  uint32_t result;

  __ASM volatile ("MRS %0, primask" : "=r" (result) :: "memory");
 80044e4:	f3ef 8210 	mrs	r2, PRIMASK
  \details Assigns the given value to the Priority Mask Register.
  \param [in]    priMask  Priority Mask
 */
__STATIC_FORCEINLINE void __set_PRIMASK(uint32_t priMask)
{
  __ASM volatile ("MSR primask, %0" : : "r" (priMask) : "memory");
 80044e8:	3b07      	subs	r3, #7
 80044ea:	f383 8810 	msr	PRIMASK, r3
  * @param  USARTx USART Instance
  * @retval None
  */
__STATIC_INLINE void LL_USART_EnableIT_IDLE(USART_TypeDef *USARTx)
{
  ATOMIC_SET_BIT(USARTx->CR1, USART_CR1_IDLEIE);
 80044ee:	6821      	ldr	r1, [r4, #0]
 80044f0:	330f      	adds	r3, #15
 80044f2:	430b      	orrs	r3, r1
 80044f4:	6023      	str	r3, [r4, #0]
 80044f6:	f382 8810 	msr	PRIMASK, r2
  return ((READ_BIT(USARTx->ISR, USART_ISR_IDLE) == (USART_ISR_IDLE)) ? 1UL : 0UL);
 80044fa:	2110      	movs	r1, #16
 80044fc:	69e3      	ldr	r3, [r4, #28]
 80044fe:	420b      	tst	r3, r1
 8004500:	d023      	beq.n	800454a <USART1_IRQHandler+0x8e>
  * @param  USARTx USART Instance
  * @retval State of bit (1 or 0).
  */
__STATIC_INLINE uint32_t LL_USART_IsEnabledIT_IDLE(const USART_TypeDef *USARTx)
{
  return ((READ_BIT(USARTx->CR1, USART_CR1_IDLEIE) == (USART_CR1_IDLEIE)) ? 1UL : 0UL);
 8004502:	6823      	ldr	r3, [r4, #0]
 8004504:	420b      	tst	r3, r1
 8004506:	d020      	beq.n	800454a <USART1_IRQHandler+0x8e>
  __ASM volatile ("MRS %0, primask" : "=r" (result) :: "memory");
 8004508:	f3ef 8010 	mrs	r0, PRIMASK
  __ASM volatile ("MSR primask, %0" : : "r" (priMask) : "memory");
 800450c:	2201      	movs	r2, #1
 800450e:	f382 8810 	msr	PRIMASK, r2
  ATOMIC_CLEAR_BIT(USARTx->CR1, USART_CR1_IDLEIE);
 8004512:	6823      	ldr	r3, [r4, #0]
 8004514:	438b      	bics	r3, r1
 8004516:	6023      	str	r3, [r4, #0]
 8004518:	f380 8810 	msr	PRIMASK, r0
  __ASM volatile ("MRS %0, primask" : "=r" (result) :: "memory");
 800451c:	f3ef 8010 	mrs	r0, PRIMASK
  __ASM volatile ("MSR primask, %0" : : "r" (priMask) : "memory");
 8004520:	f382 8810 	msr	PRIMASK, r2
  * @param  USARTx USART Instance
  * @retval None
  */
__STATIC_INLINE void LL_USART_DisableDMAReq_RX(USART_TypeDef *USARTx)
{
  ATOMIC_CLEAR_BIT(USARTx->CR3, USART_CR3_DMAR);
 8004524:	2340      	movs	r3, #64	; 0x40
 8004526:	68a1      	ldr	r1, [r4, #8]
 8004528:	4399      	bics	r1, r3
 800452a:	60a1      	str	r1, [r4, #8]
 800452c:	f380 8810 	msr	PRIMASK, r0
  * @param  USARTx USART Instance
  * @retval Value between Min_Data=0x00 and Max_Data=0xFF
  */
__STATIC_INLINE uint8_t LL_USART_ReceiveData8(const USART_TypeDef *USARTx)
{
  return (uint8_t)(READ_BIT(USARTx->RDR, USART_RDR_RDR) & 0xFFU);
 8004530:	8ca1      	ldrh	r1, [r4, #36]	; 0x24
  __ASM volatile ("MRS %0, primask" : "=r" (result) :: "memory");
 8004532:	f3ef 8110 	mrs	r1, PRIMASK
  __ASM volatile ("MSR primask, %0" : : "r" (priMask) : "memory");
 8004536:	f382 8810 	msr	PRIMASK, r2
  ATOMIC_SET_BIT(USARTx->CR3, USART_CR3_DMAR);
 800453a:	68a2      	ldr	r2, [r4, #8]
 800453c:	4313      	orrs	r3, r2
 800453e:	60a3      	str	r3, [r4, #8]
 8004540:	f381 8810 	msr	PRIMASK, r1
    /* To be sure we fetch the potential pendig data*/
    /* We disable the DMA request, Read the dummy data, endable back the DMA request */
    LL_USART_DisableDMAReq_RX (USARTA);
    LL_USART_ReceiveData8(USARTA);
    LL_USART_EnableDMAReq_RX (USARTA);
    ASPEP_HWDMAReset (&aspepOverUartA);
 8004544:	4803      	ldr	r0, [pc, #12]	; (8004554 <USART1_IRQHandler+0x98>)
 8004546:	f7fc fc19 	bl	8000d7c <ASPEP_HWDMAReset>
  /* USER CODE END USART1_IRQHandlern 0 */

  /* USER CODE BEGIN USART1_IRQHandler 1 */

  /* USER CODE END USART1_IRQHandler 1 */
}
 800454a:	bd10      	pop	{r4, pc}
 800454c:	40013800 	.word	0x40013800
 8004550:	4002001c 	.word	0x4002001c
 8004554:	20000340 	.word	0x20000340

08004558 <HardFault_Handler>:
/**
  * @brief  This function handles Hard Fault exception.
  * @param  None
  */
void HardFault_Handler(void)
{
 8004558:	b510      	push	{r4, lr}
 /* USER CODE BEGIN HardFault_IRQn 0 */

 /* USER CODE END HardFault_IRQn 0 */
  TSK_HardwareFaultTask();
 800455a:	f7fd fe69 	bl	8002230 <TSK_HardwareFaultTask>

  /* Go to infinite loop when Hard Fault exception occurs */
  while (1)
 800455e:	e7fe      	b.n	800455e <HardFault_Handler+0x6>

08004560 <SysTick_Handler>:
 /* USER CODE END HardFault_IRQn 1 */

}

void SysTick_Handler(void)
{
 8004560:	b510      	push	{r4, lr}
#ifdef MC_HAL_IS_USED
static uint8_t SystickDividerCounter = SYSTICK_DIVIDER;
  /* USER CODE BEGIN SysTick_IRQn 0 */

  /* USER CODE END SysTick_IRQn 0 */
  if (SystickDividerCounter == SYSTICK_DIVIDER)
 8004562:	4c0d      	ldr	r4, [pc, #52]	; (8004598 <SysTick_Handler+0x38>)
 8004564:	7823      	ldrb	r3, [r4, #0]
 8004566:	2b02      	cmp	r3, #2
 8004568:	d105      	bne.n	8004576 <SysTick_Handler+0x16>
  {
    HAL_IncTick();
 800456a:	f000 f8f7 	bl	800475c <HAL_IncTick>
    HAL_SYSTICK_IRQHandler();
 800456e:	f000 fa80 	bl	8004a72 <HAL_SYSTICK_IRQHandler>
    SystickDividerCounter = 0;
 8004572:	2300      	movs	r3, #0
 8004574:	7023      	strb	r3, [r4, #0]
  return ((NULL == DMAx) ? 0U : ((READ_BIT(DMAx->ISR,
 8004576:	2280      	movs	r2, #128	; 0x80
  }
  else
  {
    /* Nothing to do */
  }
  SystickDividerCounter ++;
 8004578:	7823      	ldrb	r3, [r4, #0]
 800457a:	0092      	lsls	r2, r2, #2
 800457c:	3301      	adds	r3, #1
 800457e:	7023      	strb	r3, [r4, #0]
 8004580:	4b06      	ldr	r3, [pc, #24]	; (800459c <SysTick_Handler+0x3c>)
 8004582:	6819      	ldr	r1, [r3, #0]
 8004584:	4211      	tst	r1, r2
 8004586:	d003      	beq.n	8004590 <SysTick_Handler+0x30>

  /* Buffer is ready by the HW layer to be processed */
  if (LL_DMA_IsActiveFlag_TC (DMA_RX_A, DMACH_RX_A))
  {
    LL_DMA_ClearFlag_TC (DMA_RX_A, DMACH_RX_A);
    ASPEP_HWDataReceivedIT(&aspepOverUartA);
 8004588:	4805      	ldr	r0, [pc, #20]	; (80045a0 <SysTick_Handler+0x40>)
    WRITE_REG (DMAx->IFCR, DMA_IFCR_CTCIF1 << ((Channel-LL_DMA_CHANNEL_1)<<2));
 800458a:	605a      	str	r2, [r3, #4]
 800458c:	f7fc fba8 	bl	8000ce0 <ASPEP_HWDataReceivedIT>
  }

  /* USER CODE BEGIN SysTick_IRQn 1 */
  /* USER CODE END SysTick_IRQn 1 */

    MC_RunMotorControlTasks();
 8004590:	f7fd fe42 	bl	8002218 <MC_RunMotorControlTasks>

  /* USER CODE BEGIN SysTick_IRQn 2 */
  /* USER CODE END SysTick_IRQn 2 */
}
 8004594:	bd10      	pop	{r4, pc}
 8004596:	46c0      	nop			; (mov r8, r8)
 8004598:	200003b4 	.word	0x200003b4
 800459c:	40020000 	.word	0x40020000
 80045a0:	20000340 	.word	0x20000340

080045a4 <EXTI4_15_IRQHandler>:
  * @note   Please check each device line mapping for EXTI Line availability
  * @retval @note This bit is set when the selected edge event arrives on the interrupt
  */
__STATIC_INLINE uint32_t LL_EXTI_ReadFlag_0_31(uint32_t ExtiLine)
{
  return (uint32_t)(READ_BIT(EXTI->PR, ExtiLine));
 80045a4:	2280      	movs	r2, #128	; 0x80
 80045a6:	4b05      	ldr	r3, [pc, #20]	; (80045bc <EXTI4_15_IRQHandler+0x18>)
 80045a8:	0212      	lsls	r2, r2, #8
 80045aa:	6959      	ldr	r1, [r3, #20]

/**
  * @brief  This function handles Button IRQ on PIN PC15.
  */
void EXTI4_15_IRQHandler (void)
{
 80045ac:	b510      	push	{r4, lr}
	/* USER CODE BEGIN START_STOP_BTN */
  if ( LL_EXTI_ReadFlag_0_31(LL_EXTI_LINE_15) )
 80045ae:	4211      	tst	r1, r2
 80045b0:	d002      	beq.n	80045b8 <EXTI4_15_IRQHandler+0x14>
  * @note   Please check each device line mapping for EXTI Line availability
  * @retval None
  */
__STATIC_INLINE void LL_EXTI_ClearFlag_0_31(uint32_t ExtiLine)
{
  WRITE_REG(EXTI->PR, ExtiLine);
 80045b2:	615a      	str	r2, [r3, #20]
  {
    LL_EXTI_ClearFlag_0_31 (LL_EXTI_LINE_15);
    UI_HandleStartStopButton_cb ();
 80045b4:	f7fd fe4c 	bl	8002250 <UI_HandleStartStopButton_cb>
  }

}
 80045b8:	bd10      	pop	{r4, pc}
 80045ba:	46c0      	nop			; (mov r8, r8)
 80045bc:	40010400 	.word	0x40010400

080045c0 <UASPEP_DAMCONFIG_TX>:
  WRITE_REG(USARTx->ICR, USART_ICR_TCCF);
 80045c0:	2240      	movs	r2, #64	; 0x40
  }
  else
  {
#endif
    /* Enable DMA UART */
    LL_USART_ClearFlag_TC(pHandle->USARTx);
 80045c2:	6803      	ldr	r3, [r0, #0]
{
 80045c4:	b530      	push	{r4, r5, lr}
 80045c6:	621a      	str	r2, [r3, #32]
  __ASM volatile ("MRS %0, primask" : "=r" (result) :: "memory");
 80045c8:	f3ef 8510 	mrs	r5, PRIMASK
  __ASM volatile ("MSR primask, %0" : : "r" (priMask) : "memory");
 80045cc:	2401      	movs	r4, #1
 80045ce:	f384 8810 	msr	PRIMASK, r4
  ATOMIC_SET_BIT(USARTx->CR1, USART_CR1_TCIE);
 80045d2:	6819      	ldr	r1, [r3, #0]
 80045d4:	4311      	orrs	r1, r2
 80045d6:	6019      	str	r1, [r3, #0]
 80045d8:	f385 8810 	msr	PRIMASK, r5
    LL_USART_EnableIT_TC(pHandle->USARTx);

    /* Enable DMA UART to start the TX request */
    LL_USART_EnableDMAReq_TX(pHandle->USARTx);
 80045dc:	6801      	ldr	r1, [r0, #0]
  __ASM volatile ("MRS %0, primask" : "=r" (result) :: "memory");
 80045de:	f3ef 8510 	mrs	r5, PRIMASK
  __ASM volatile ("MSR primask, %0" : : "r" (priMask) : "memory");
 80045e2:	f384 8810 	msr	PRIMASK, r4
  ATOMIC_SET_BIT(USARTx->CR3, USART_CR3_DMAT);
 80045e6:	2380      	movs	r3, #128	; 0x80
 80045e8:	688c      	ldr	r4, [r1, #8]
 80045ea:	4323      	orrs	r3, r4
 80045ec:	608b      	str	r3, [r1, #8]
 80045ee:	f385 8810 	msr	PRIMASK, r5

    /* Write the USART_TDR register address in the DMA control register to configure it as
     * the destination of the transfer */
    //cstat !MISRAC2012-Rule-11.4
    LL_DMA_SetPeriphAddress(pHandle->txDMA, pHandle->txChannel, (uint32_t)&pHandle->USARTx->TDR);
 80045f2:	6801      	ldr	r1, [r0, #0]
  WRITE_REG(((DMA_Channel_TypeDef *)((uint32_t)((uint32_t)DMAx + CHANNEL_OFFSET_TAB[Channel - 1U])))->CPAR, PeriphAddress);
 80045f4:	6905      	ldr	r5, [r0, #16]
 80045f6:	000c      	movs	r4, r1
 80045f8:	4b04      	ldr	r3, [pc, #16]	; (800460c <UASPEP_DAMCONFIG_TX+0x4c>)
 80045fa:	3428      	adds	r4, #40	; 0x28
 80045fc:	195b      	adds	r3, r3, r5
 80045fe:	3b01      	subs	r3, #1
 8004600:	781d      	ldrb	r5, [r3, #0]
 8004602:	6883      	ldr	r3, [r0, #8]
 8004604:	195b      	adds	r3, r3, r5
 8004606:	609c      	str	r4, [r3, #8]
  WRITE_REG(USARTx->ICR, USART_ICR_TCCF);
 8004608:	620a      	str	r2, [r1, #32]
    /* DMA end of transfer on UART TX channel completion is not activated */
    /* We prefer to activate UART TC itself to avoid to trig IT while queued data are still to be transmitted */
#ifdef NULL_PTR_CHECK_USA_ASP_DRV
  }
#endif
}
 800460a:	bd30      	pop	{r4, r5, pc}
 800460c:	08006917 	.word	0x08006917

08004610 <UASPEP_DAMCONFIG_RX>:
  * @brief  Configures the DMA used for data reception from controller.
  *
  * @param  pHandle Handler of the current instance of the UASPEP component
  */
void UASPEP_DAMCONFIG_RX(UASPEP_Handle_t *pHandle)
{
 8004610:	b530      	push	{r4, r5, lr}
  else
  {
#endif
    /* DMA interrupt not used for F0 family */
    /* Enable Error interrupt (EIE) to unmask Overrun interrupt */
    LL_USART_EnableIT_ERROR(pHandle->USARTx);
 8004612:	6802      	ldr	r2, [r0, #0]
  __ASM volatile ("MRS %0, primask" : "=r" (result) :: "memory");
 8004614:	f3ef 8410 	mrs	r4, PRIMASK
  __ASM volatile ("MSR primask, %0" : : "r" (priMask) : "memory");
 8004618:	2101      	movs	r1, #1
 800461a:	f381 8810 	msr	PRIMASK, r1
  ATOMIC_SET_BIT(USARTx->CR3, USART_CR3_EIE);
 800461e:	6893      	ldr	r3, [r2, #8]
 8004620:	430b      	orrs	r3, r1
 8004622:	6093      	str	r3, [r2, #8]
 8004624:	f384 8810 	msr	PRIMASK, r4

    /* Write the USART_RDR register address in the DMA control register to configure it as
     * the source of the transfer */
    //cstat !MISRAC2012-Rule-11.4
    LL_DMA_SetPeriphAddress(pHandle->rxDMA, pHandle->rxChannel, (uint32_t)&pHandle->USARTx->RDR);
 8004628:	6802      	ldr	r2, [r0, #0]
 800462a:	68c5      	ldr	r5, [r0, #12]
 800462c:	0014      	movs	r4, r2
 800462e:	4b0a      	ldr	r3, [pc, #40]	; (8004658 <UASPEP_DAMCONFIG_RX+0x48>)
 8004630:	3424      	adds	r4, #36	; 0x24
 8004632:	195b      	adds	r3, r3, r5
 8004634:	3b01      	subs	r3, #1
 8004636:	781d      	ldrb	r5, [r3, #0]
 8004638:	6843      	ldr	r3, [r0, #4]
 800463a:	195b      	adds	r3, r3, r5
 800463c:	609c      	str	r4, [r3, #8]
  WRITE_REG(USARTx->ICR, USART_ICR_TCCF);
 800463e:	2340      	movs	r3, #64	; 0x40
 8004640:	6213      	str	r3, [r2, #32]
  __ASM volatile ("MRS %0, primask" : "=r" (result) :: "memory");
 8004642:	f3ef 8010 	mrs	r0, PRIMASK
  __ASM volatile ("MSR primask, %0" : : "r" (priMask) : "memory");
 8004646:	f381 8810 	msr	PRIMASK, r1
  ATOMIC_SET_BIT(USARTx->CR3, USART_CR3_DMAR);
 800464a:	6891      	ldr	r1, [r2, #8]
 800464c:	430b      	orrs	r3, r1
 800464e:	6093      	str	r3, [r2, #8]
 8004650:	f380 8810 	msr	PRIMASK, r0

    LL_USART_EnableDMAReq_RX(pHandle->USARTx);
#ifdef NULL_PTR_CHECK_USA_ASP_DRV
  }
#endif
}
 8004654:	bd30      	pop	{r4, r5, pc}
 8004656:	46c0      	nop			; (mov r8, r8)
 8004658:	08006917 	.word	0x08006917

0800465c <UASPEP_INIT>:
{
 800465c:	b510      	push	{r4, lr}
 800465e:	0004      	movs	r4, r0
  UASPEP_DAMCONFIG_TX(pHandle);
 8004660:	f7ff ffae 	bl	80045c0 <UASPEP_DAMCONFIG_TX>
  UASPEP_DAMCONFIG_RX(pHandle);
 8004664:	0020      	movs	r0, r4
 8004666:	f7ff ffd3 	bl	8004610 <UASPEP_DAMCONFIG_RX>
}
 800466a:	bd10      	pop	{r4, pc}

0800466c <UASPEP_SEND_PACKET>:
  * @param  pHWHandle Hardware components chosen for communication
  * @param  data Data to be transmitted to controller
  * @param  length Length of the data to be transmitted
  */
bool UASPEP_SEND_PACKET(void *pHWHandle, void *data, uint16_t length)
{
 800466c:	b530      	push	{r4, r5, lr}
  UASPEP_Handle_t *pHandle = (UASPEP_Handle_t *)pHWHandle; //cstat !MISRAC2012-Rule-11.5
  bool result;
  if (0U == LL_DMA_IsEnabledChannel(pHandle->txDMA, pHandle->txChannel))
 800466e:	2501      	movs	r5, #1
{
 8004670:	0014      	movs	r4, r2
  return (READ_BIT(((DMA_Channel_TypeDef *)((uint32_t)((uint32_t)DMAx + CHANNEL_OFFSET_TAB[Channel - 1U])))->CCR,
 8004672:	4b0b      	ldr	r3, [pc, #44]	; (80046a0 <UASPEP_SEND_PACKET+0x34>)
 8004674:	6902      	ldr	r2, [r0, #16]
 8004676:	189b      	adds	r3, r3, r2
 8004678:	3b01      	subs	r3, #1
 800467a:	781a      	ldrb	r2, [r3, #0]
 800467c:	6883      	ldr	r3, [r0, #8]
    LL_DMA_EnableChannel(pHandle->txDMA, pHandle->txChannel);
    result = true;
  }
  else
  {
    result = false;
 800467e:	2000      	movs	r0, #0
 8004680:	189b      	adds	r3, r3, r2
 8004682:	681a      	ldr	r2, [r3, #0]
  if (0U == LL_DMA_IsEnabledChannel(pHandle->txDMA, pHandle->txChannel))
 8004684:	422a      	tst	r2, r5
 8004686:	d109      	bne.n	800469c <UASPEP_SEND_PACKET+0x30>
    result = true;
 8004688:	0028      	movs	r0, r5
  WRITE_REG(((DMA_Channel_TypeDef *)((uint32_t)((uint32_t)DMAx + CHANNEL_OFFSET_TAB[Channel - 1U])))->CMAR, MemoryAddress);
 800468a:	60d9      	str	r1, [r3, #12]
  MODIFY_REG(((DMA_Channel_TypeDef *)((uint32_t)((uint32_t)DMAx + CHANNEL_OFFSET_TAB[Channel - 1U])))->CNDTR,
 800468c:	685a      	ldr	r2, [r3, #4]
 800468e:	0c12      	lsrs	r2, r2, #16
 8004690:	0412      	lsls	r2, r2, #16
 8004692:	4322      	orrs	r2, r4
 8004694:	605a      	str	r2, [r3, #4]
  SET_BIT(((DMA_Channel_TypeDef *)((uint32_t)((uint32_t)DMAx + CHANNEL_OFFSET_TAB[Channel - 1U])))->CCR, DMA_CCR_EN);
 8004696:	681a      	ldr	r2, [r3, #0]
 8004698:	432a      	orrs	r2, r5
 800469a:	601a      	str	r2, [r3, #0]
  }
  return (result);
}
 800469c:	bd30      	pop	{r4, r5, pc}
 800469e:	46c0      	nop			; (mov r8, r8)
 80046a0:	08006917 	.word	0x08006917

080046a4 <UASPEP_RECEIVE_BUFFER>:
  * @param  pHWHandle Hardware components chosen for communication
  * @param  buffer Buffer which will receive the communicated data
  * @param  length Length of the received data
  */
void UASPEP_RECEIVE_BUFFER(void *pHWHandle, void* buffer, uint16_t length)
{
 80046a4:	b510      	push	{r4, lr}
  CLEAR_BIT(((DMA_Channel_TypeDef *)((uint32_t)((uint32_t)DMAx + CHANNEL_OFFSET_TAB[Channel - 1U])))->CCR, DMA_CCR_EN);
 80046a6:	4b0a      	ldr	r3, [pc, #40]	; (80046d0 <UASPEP_RECEIVE_BUFFER+0x2c>)
 80046a8:	68c4      	ldr	r4, [r0, #12]
 80046aa:	191b      	adds	r3, r3, r4
 80046ac:	3b01      	subs	r3, #1
 80046ae:	781c      	ldrb	r4, [r3, #0]
 80046b0:	6843      	ldr	r3, [r0, #4]
 80046b2:	2001      	movs	r0, #1
 80046b4:	191b      	adds	r3, r3, r4
 80046b6:	681c      	ldr	r4, [r3, #0]
 80046b8:	4384      	bics	r4, r0
 80046ba:	601c      	str	r4, [r3, #0]
  WRITE_REG(((DMA_Channel_TypeDef *)((uint32_t)((uint32_t)DMAx + CHANNEL_OFFSET_TAB[Channel - 1U])))->CMAR, MemoryAddress);
 80046bc:	60d9      	str	r1, [r3, #12]
  MODIFY_REG(((DMA_Channel_TypeDef *)((uint32_t)((uint32_t)DMAx + CHANNEL_OFFSET_TAB[Channel - 1U])))->CNDTR,
 80046be:	6859      	ldr	r1, [r3, #4]
 80046c0:	0c09      	lsrs	r1, r1, #16
 80046c2:	0409      	lsls	r1, r1, #16
 80046c4:	4311      	orrs	r1, r2
 80046c6:	6059      	str	r1, [r3, #4]
  SET_BIT(((DMA_Channel_TypeDef *)((uint32_t)((uint32_t)DMAx + CHANNEL_OFFSET_TAB[Channel - 1U])))->CCR, DMA_CCR_EN);
 80046c8:	681a      	ldr	r2, [r3, #0]
 80046ca:	4310      	orrs	r0, r2
 80046cc:	6018      	str	r0, [r3, #0]
  //cstat !MISRAC2012-Rule-11.4 !MISRAC2012-Rule-11.6
  LL_DMA_SetMemoryAddress(pHandle->rxDMA, pHandle->rxChannel, (uint32_t)buffer);
  LL_DMA_SetDataLength(pHandle->rxDMA, pHandle->rxChannel, length);

  LL_DMA_EnableChannel(pHandle->rxDMA, pHandle->rxChannel);
}
 80046ce:	bd10      	pop	{r4, pc}
 80046d0:	08006917 	.word	0x08006917

080046d4 <UASPEP_IDLE_ENABLE>:
  WRITE_REG(USARTx->ICR, USART_ICR_IDLECF);
 80046d4:	2310      	movs	r3, #16
  * @param  pHandle Handler of the current instance of the UASPEP component
  */
void UASPEP_IDLE_ENABLE(void *pHWHandle)
{
  UASPEP_Handle_t *pHandle = (UASPEP_Handle_t *)pHWHandle; //cstat !MISRAC2012-Rule-11.5
  LL_USART_ClearFlag_IDLE(pHandle->USARTx);
 80046d6:	6802      	ldr	r2, [r0, #0]
 80046d8:	6213      	str	r3, [r2, #32]
  __ASM volatile ("MRS %0, primask" : "=r" (result) :: "memory");
 80046da:	f3ef 8110 	mrs	r1, PRIMASK
  __ASM volatile ("MSR primask, %0" : : "r" (priMask) : "memory");
 80046de:	2001      	movs	r0, #1
 80046e0:	f380 8810 	msr	PRIMASK, r0
  ATOMIC_SET_BIT(USARTx->CR1, USART_CR1_IDLEIE);
 80046e4:	6810      	ldr	r0, [r2, #0]
 80046e6:	4303      	orrs	r3, r0
 80046e8:	6013      	str	r3, [r2, #0]
 80046ea:	f381 8810 	msr	PRIMASK, r1
  LL_USART_EnableIT_IDLE(pHandle->USARTx);
}
 80046ee:	4770      	bx	lr

080046f0 <SystemInit>:
                         before branch to main program. This call is made inside
                         the "startup_stm32f0xx.s" file.
                         User can setups the default system clock (System clock source, PLL Multiplier
                         and Divider factors, AHB/APBx prescalers and Flash settings).
   */
}
 80046f0:	4770      	bx	lr
	...

080046f4 <HAL_InitTick>:
  *       implementation  in user file.
  * @param TickPriority Tick interrupt priority.
  * @retval HAL status
  */
__weak HAL_StatusTypeDef HAL_InitTick(uint32_t TickPriority)
{
 80046f4:	b570      	push	{r4, r5, r6, lr}
 80046f6:	0005      	movs	r5, r0
  /*Configure the SysTick to have interrupt in 1ms time basis*/
  if (HAL_SYSTICK_Config(SystemCoreClock / (1000U / uwTickFreq)) > 0U)
 80046f8:	20fa      	movs	r0, #250	; 0xfa
 80046fa:	4b0d      	ldr	r3, [pc, #52]	; (8004730 <HAL_InitTick+0x3c>)
 80046fc:	0080      	lsls	r0, r0, #2
 80046fe:	7819      	ldrb	r1, [r3, #0]
 8004700:	f7fb fd16 	bl	8000130 <__udivsi3>
 8004704:	4c0b      	ldr	r4, [pc, #44]	; (8004734 <HAL_InitTick+0x40>)
 8004706:	0001      	movs	r1, r0
 8004708:	6820      	ldr	r0, [r4, #0]
 800470a:	f7fb fd11 	bl	8000130 <__udivsi3>
 800470e:	f000 f995 	bl	8004a3c <HAL_SYSTICK_Config>
 8004712:	0004      	movs	r4, r0
  {
    return HAL_ERROR;
 8004714:	2001      	movs	r0, #1
  if (HAL_SYSTICK_Config(SystemCoreClock / (1000U / uwTickFreq)) > 0U)
 8004716:	2c00      	cmp	r4, #0
 8004718:	d109      	bne.n	800472e <HAL_InitTick+0x3a>
  }

  /* Configure the SysTick IRQ priority */
  if (TickPriority < (1UL << __NVIC_PRIO_BITS))
 800471a:	2d03      	cmp	r5, #3
 800471c:	d807      	bhi.n	800472e <HAL_InitTick+0x3a>
  {
    HAL_NVIC_SetPriority(SysTick_IRQn, TickPriority, 0U);
 800471e:	3802      	subs	r0, #2
 8004720:	0022      	movs	r2, r4
 8004722:	0029      	movs	r1, r5
 8004724:	f000 f954 	bl	80049d0 <HAL_NVIC_SetPriority>
    uwTickPrio = TickPriority;
 8004728:	0020      	movs	r0, r4
 800472a:	4b03      	ldr	r3, [pc, #12]	; (8004738 <HAL_InitTick+0x44>)
 800472c:	601d      	str	r5, [r3, #0]
    return HAL_ERROR;
  }

   /* Return function status */
  return HAL_OK;
}
 800472e:	bd70      	pop	{r4, r5, r6, pc}
 8004730:	200003bc 	.word	0x200003bc
 8004734:	200003b8 	.word	0x200003b8
 8004738:	200003c0 	.word	0x200003c0

0800473c <HAL_Init>:
  __HAL_FLASH_PREFETCH_BUFFER_ENABLE();
 800473c:	2310      	movs	r3, #16
 800473e:	4a06      	ldr	r2, [pc, #24]	; (8004758 <HAL_Init+0x1c>)
{
 8004740:	b510      	push	{r4, lr}
  __HAL_FLASH_PREFETCH_BUFFER_ENABLE();
 8004742:	6811      	ldr	r1, [r2, #0]
  HAL_InitTick(TICK_INT_PRIORITY);
 8004744:	2002      	movs	r0, #2
  __HAL_FLASH_PREFETCH_BUFFER_ENABLE();
 8004746:	430b      	orrs	r3, r1
 8004748:	6013      	str	r3, [r2, #0]
  HAL_InitTick(TICK_INT_PRIORITY);
 800474a:	f7ff ffd3 	bl	80046f4 <HAL_InitTick>
  HAL_MspInit();
 800474e:	f7ff fc8d 	bl	800406c <HAL_MspInit>
}
 8004752:	2000      	movs	r0, #0
 8004754:	bd10      	pop	{r4, pc}
 8004756:	46c0      	nop			; (mov r8, r8)
 8004758:	40022000 	.word	0x40022000

0800475c <HAL_IncTick>:
  *       implementations in user file.
  * @retval None
  */
__weak void HAL_IncTick(void)
{
  uwTick += uwTickFreq;
 800475c:	4a03      	ldr	r2, [pc, #12]	; (800476c <HAL_IncTick+0x10>)
 800475e:	4b04      	ldr	r3, [pc, #16]	; (8004770 <HAL_IncTick+0x14>)
 8004760:	6811      	ldr	r1, [r2, #0]
 8004762:	781b      	ldrb	r3, [r3, #0]
 8004764:	185b      	adds	r3, r3, r1
 8004766:	6013      	str	r3, [r2, #0]
}
 8004768:	4770      	bx	lr
 800476a:	46c0      	nop			; (mov r8, r8)
 800476c:	200009e0 	.word	0x200009e0
 8004770:	200003bc 	.word	0x200003bc

08004774 <HAL_GetTick>:
  *       implementations in user file.
  * @retval tick value
  */
__weak uint32_t HAL_GetTick(void)
{
  return uwTick;
 8004774:	4b01      	ldr	r3, [pc, #4]	; (800477c <HAL_GetTick+0x8>)
 8004776:	6818      	ldr	r0, [r3, #0]
}
 8004778:	4770      	bx	lr
 800477a:	46c0      	nop			; (mov r8, r8)
 800477c:	200009e0 	.word	0x200009e0

08004780 <HAL_ADC_Init>:
  *         of structure "ADC_InitTypeDef".
  * @param  hadc ADC handle
  * @retval HAL status
  */
HAL_StatusTypeDef HAL_ADC_Init(ADC_HandleTypeDef* hadc)
{
 8004780:	b570      	push	{r4, r5, r6, lr}
 8004782:	0004      	movs	r4, r0
  uint32_t tmpCFGR1 = 0U;

  /* Check ADC handle */
  if(hadc == NULL)
  {
    return HAL_ERROR;
 8004784:	2001      	movs	r0, #1
  if(hadc == NULL)
 8004786:	2c00      	cmp	r4, #0
 8004788:	d07e      	beq.n	8004888 <HAL_ADC_Init+0x108>
  /* Refer to header of this file for more details on clock enabling procedure*/
  
  /* Actions performed only if ADC is coming from state reset:                */
  /* - Initialization of ADC MSP                                              */
  /* - ADC voltage regulator enable                                           */
  if (hadc->State == HAL_ADC_STATE_RESET)
 800478a:	6ba3      	ldr	r3, [r4, #56]	; 0x38
 800478c:	2b00      	cmp	r3, #0
 800478e:	d106      	bne.n	800479e <HAL_ADC_Init+0x1e>
  {
    /* Initialize ADC error code */
    ADC_CLEAR_ERRORCODE(hadc);
    
    /* Allocate lock resource and initialize it */
    hadc->Lock = HAL_UNLOCKED;
 8004790:	0022      	movs	r2, r4
 8004792:	3234      	adds	r2, #52	; 0x34
    ADC_CLEAR_ERRORCODE(hadc);
 8004794:	63e3      	str	r3, [r4, #60]	; 0x3c
    
    /* Init the low level hardware */
    hadc->MspInitCallback(hadc);
#else
    /* Init the low level hardware */
    HAL_ADC_MspInit(hadc);
 8004796:	0020      	movs	r0, r4
    hadc->Lock = HAL_UNLOCKED;
 8004798:	7013      	strb	r3, [r2, #0]
    HAL_ADC_MspInit(hadc);
 800479a:	f7ff fc7f 	bl	800409c <HAL_ADC_MspInit>
  /* Configuration of ADC parameters if previous preliminary actions are      */ 
  /* correctly completed.                                                     */
  /* and if there is no conversion on going on regular group (ADC can be      */ 
  /* enabled anyway, in case of call of this function to update a parameter   */
  /* on the fly).                                                             */
  if (HAL_IS_BIT_CLR(hadc->State, HAL_ADC_STATE_ERROR_INTERNAL) &&
 800479e:	6ba3      	ldr	r3, [r4, #56]	; 0x38
 80047a0:	06db      	lsls	r3, r3, #27
 80047a2:	d500      	bpl.n	80047a6 <HAL_ADC_Init+0x26>
 80047a4:	e084      	b.n	80048b0 <HAL_ADC_Init+0x130>
      (tmp_hal_status == HAL_OK)                                &&
      (ADC_IS_CONVERSION_ONGOING_REGULAR(hadc) == RESET)          )
 80047a6:	6822      	ldr	r2, [r4, #0]
 80047a8:	6893      	ldr	r3, [r2, #8]
      (tmp_hal_status == HAL_OK)                                &&
 80047aa:	075b      	lsls	r3, r3, #29
 80047ac:	d500      	bpl.n	80047b0 <HAL_ADC_Init+0x30>
 80047ae:	e07f      	b.n	80048b0 <HAL_ADC_Init+0x130>
  {
    /* Set ADC state */
    ADC_STATE_CLR_SET(hadc->State,
 80047b0:	6ba1      	ldr	r1, [r4, #56]	; 0x38
 80047b2:	4b42      	ldr	r3, [pc, #264]	; (80048bc <HAL_ADC_Init+0x13c>)
 80047b4:	4019      	ands	r1, r3
 80047b6:	3306      	adds	r3, #6
 80047b8:	33ff      	adds	r3, #255	; 0xff
 80047ba:	430b      	orrs	r3, r1
    /* Parameters update conditioned to ADC state:                            */
    /* Parameters that can be updated only when ADC is disabled:              */
    /*  - ADC clock mode                                                      */
    /*  - ADC clock prescaler                                                 */
    /*  - ADC resolution                                                      */
    if (ADC_IS_ENABLE(hadc) == RESET)
 80047bc:	2103      	movs	r1, #3
    ADC_STATE_CLR_SET(hadc->State,
 80047be:	63a3      	str	r3, [r4, #56]	; 0x38
    if (ADC_IS_ENABLE(hadc) == RESET)
 80047c0:	6893      	ldr	r3, [r2, #8]
 80047c2:	400b      	ands	r3, r1
 80047c4:	2b01      	cmp	r3, #1
 80047c6:	d105      	bne.n	80047d4 <HAL_ADC_Init+0x54>
 80047c8:	6811      	ldr	r1, [r2, #0]
 80047ca:	4219      	tst	r1, r3
 80047cc:	d10e      	bne.n	80047ec <HAL_ADC_Init+0x6c>
 80047ce:	68d3      	ldr	r3, [r2, #12]
 80047d0:	041b      	lsls	r3, r3, #16
 80047d2:	d40b      	bmi.n	80047ec <HAL_ADC_Init+0x6c>
      /* parameters):                                                         */
      /*   - internal measurement paths: Vbat, temperature sensor, Vref       */
      /*     (set into HAL_ADC_ConfigChannel() )                              */
     
      /* Configuration of ADC resolution                                      */
      MODIFY_REG(hadc->Instance->CFGR1,
 80047d4:	2118      	movs	r1, #24
 80047d6:	68d3      	ldr	r3, [r2, #12]
 80047d8:	438b      	bics	r3, r1
 80047da:	68a1      	ldr	r1, [r4, #8]
 80047dc:	430b      	orrs	r3, r1
 80047de:	60d3      	str	r3, [r2, #12]
                 ADC_CFGR1_RES        ,
                 hadc->Init.Resolution );
      
      /* Configuration of ADC clock mode: clock source AHB or HSI with        */
      /* selectable prescaler                                                 */
      MODIFY_REG(hadc->Instance->CFGR2    ,
 80047e0:	6913      	ldr	r3, [r2, #16]
 80047e2:	6861      	ldr	r1, [r4, #4]
 80047e4:	009b      	lsls	r3, r3, #2
 80047e6:	089b      	lsrs	r3, r3, #2
 80047e8:	430b      	orrs	r3, r1
 80047ea:	6113      	str	r3, [r2, #16]
    /*  - external trigger polarity                                           */
    /*  - data alignment                                                      */
    /*  - resolution                                                          */
    /*  - scan direction                                                      */
    /*  - DMA continuous request                                              */
    hadc->Instance->CFGR1 &= ~( ADC_CFGR1_DISCEN  |
 80047ec:	68d3      	ldr	r3, [r2, #12]
 80047ee:	4934      	ldr	r1, [pc, #208]	; (80048c0 <HAL_ADC_Init+0x140>)
 80047f0:	400b      	ands	r3, r1
 80047f2:	60d3      	str	r3, [r2, #12]
                                ADC_CFGR1_EXTEN   |
                                ADC_CFGR1_ALIGN   |
                                ADC_CFGR1_SCANDIR |
                                ADC_CFGR1_DMACFG   );

    tmpCFGR1 |= (ADC_CFGR1_AUTOWAIT((uint32_t)hadc->Init.LowPowerAutoWait)        |
 80047f4:	7e23      	ldrb	r3, [r4, #24]
                 ADC_CFGR1_AUTOOFF((uint32_t)hadc->Init.LowPowerAutoPowerOff)     |
 80047f6:	7e60      	ldrb	r0, [r4, #25]
    tmpCFGR1 |= (ADC_CFGR1_AUTOWAIT((uint32_t)hadc->Init.LowPowerAutoWait)        |
 80047f8:	039b      	lsls	r3, r3, #14
                 ADC_CFGR1_AUTOOFF((uint32_t)hadc->Init.LowPowerAutoPowerOff)     |
 80047fa:	03c0      	lsls	r0, r0, #15
    tmpCFGR1 |= (ADC_CFGR1_AUTOWAIT((uint32_t)hadc->Init.LowPowerAutoWait)        |
 80047fc:	4303      	orrs	r3, r0
                 ADC_CFGR1_CONTINUOUS((uint32_t)hadc->Init.ContinuousConvMode)    |
 80047fe:	7ea1      	ldrb	r1, [r4, #26]
                 ADC_CFGR1_OVERRUN(hadc->Init.Overrun)                            |
                 hadc->Init.DataAlign                                             |
                 ADC_SCANDIR(hadc->Init.ScanConvMode)                             |
 8004800:	68e0      	ldr	r0, [r4, #12]
 8004802:	4303      	orrs	r3, r0
                 ADC_CFGR1_CONTINUOUS((uint32_t)hadc->Init.ContinuousConvMode)    |
 8004804:	0348      	lsls	r0, r1, #13
                 ADC_SCANDIR(hadc->Init.ScanConvMode)                             |
 8004806:	4303      	orrs	r3, r0
                 ADC_CFGR1_DMACONTREQ((uint32_t)hadc->Init.DMAContinuousRequests)  );
 8004808:	1d60      	adds	r0, r4, #5
 800480a:	7fc0      	ldrb	r0, [r0, #31]
 800480c:	0040      	lsls	r0, r0, #1
                 ADC_SCANDIR(hadc->Init.ScanConvMode)                             |
 800480e:	4303      	orrs	r3, r0
                 ADC_CFGR1_OVERRUN(hadc->Init.Overrun)                            |
 8004810:	6aa0      	ldr	r0, [r4, #40]	; 0x28
 8004812:	3801      	subs	r0, #1
 8004814:	1e45      	subs	r5, r0, #1
 8004816:	41a8      	sbcs	r0, r5
 8004818:	0300      	lsls	r0, r0, #12
                 ADC_SCANDIR(hadc->Init.ScanConvMode)                             |
 800481a:	4303      	orrs	r3, r0
 800481c:	6920      	ldr	r0, [r4, #16]
 800481e:	3802      	subs	r0, #2
 8004820:	4245      	negs	r5, r0
 8004822:	4168      	adcs	r0, r5
 8004824:	0080      	lsls	r0, r0, #2
 8004826:	4303      	orrs	r3, r0
    
    /* Enable discontinuous mode only if continuous mode is disabled */
    if (hadc->Init.DiscontinuousConvMode == ENABLE)
 8004828:	7ee0      	ldrb	r0, [r4, #27]
 800482a:	2801      	cmp	r0, #1
 800482c:	d104      	bne.n	8004838 <HAL_ADC_Init+0xb8>
    {
      if (hadc->Init.ContinuousConvMode == DISABLE)
 800482e:	2900      	cmp	r1, #0
 8004830:	d12b      	bne.n	800488a <HAL_ADC_Init+0x10a>
      {
        /* Enable the selected ADC group regular discontinuous mode */
        tmpCFGR1 |= ADC_CFGR1_DISCEN;
 8004832:	2180      	movs	r1, #128	; 0x80
 8004834:	0249      	lsls	r1, r1, #9
 8004836:	430b      	orrs	r3, r1
    /* Enable external trigger if trigger selection is different of software  */
    /* start.                                                                 */
    /* Note: This configuration keeps the hardware feature of parameter       */
    /*       ExternalTrigConvEdge "trigger edge none" equivalent to           */
    /*       software start.                                                  */
    if (hadc->Init.ExternalTrigConv != ADC_SOFTWARE_START)
 8004838:	20c2      	movs	r0, #194	; 0xc2
 800483a:	69e1      	ldr	r1, [r4, #28]
 800483c:	30ff      	adds	r0, #255	; 0xff
 800483e:	4281      	cmp	r1, r0
 8004840:	d002      	beq.n	8004848 <HAL_ADC_Init+0xc8>
    {
      tmpCFGR1 |= ( hadc->Init.ExternalTrigConv    |
 8004842:	6a20      	ldr	r0, [r4, #32]
 8004844:	4301      	orrs	r1, r0
 8004846:	430b      	orrs	r3, r1
    /* Management of parameters "SamplingTimeCommon" and "SamplingTime"       */
    /* (obsolete): sampling time set in this function if parameter            */
    /*  "SamplingTimeCommon" has been set to a valid sampling time.           */
    /* Otherwise, sampling time is set into ADC channel initialization        */
    /* structure with parameter "SamplingTime" (obsolete).                    */
    if (IS_ADC_SAMPLE_TIME(hadc->Init.SamplingTimeCommon))
 8004848:	2080      	movs	r0, #128	; 0x80
    hadc->Instance->CFGR1 |= tmpCFGR1;
 800484a:	68d1      	ldr	r1, [r2, #12]
    if (IS_ADC_SAMPLE_TIME(hadc->Init.SamplingTimeCommon))
 800484c:	0540      	lsls	r0, r0, #21
    hadc->Instance->CFGR1 |= tmpCFGR1;
 800484e:	4319      	orrs	r1, r3
 8004850:	60d1      	str	r1, [r2, #12]
    if (IS_ADC_SAMPLE_TIME(hadc->Init.SamplingTimeCommon))
 8004852:	6ae1      	ldr	r1, [r4, #44]	; 0x2c
 8004854:	4281      	cmp	r1, r0
 8004856:	d002      	beq.n	800485e <HAL_ADC_Init+0xde>
 8004858:	1e48      	subs	r0, r1, #1
 800485a:	2806      	cmp	r0, #6
 800485c:	d807      	bhi.n	800486e <HAL_ADC_Init+0xee>
    {
      /* Channel sampling time configuration */
      /* Clear the old sample time */
      hadc->Instance->SMPR &= ~(ADC_SMPR_SMP);
 800485e:	2507      	movs	r5, #7
 8004860:	6950      	ldr	r0, [r2, #20]
      
      /* Set the new sample time */
      hadc->Instance->SMPR |= ADC_SMPR_SET(hadc->Init.SamplingTimeCommon);
 8004862:	4029      	ands	r1, r5
      hadc->Instance->SMPR &= ~(ADC_SMPR_SMP);
 8004864:	43a8      	bics	r0, r5
 8004866:	6150      	str	r0, [r2, #20]
      hadc->Instance->SMPR |= ADC_SMPR_SET(hadc->Init.SamplingTimeCommon);
 8004868:	6950      	ldr	r0, [r2, #20]
 800486a:	4301      	orrs	r1, r0
 800486c:	6151      	str	r1, [r2, #20]
    /* Check back that ADC registers have effectively been configured to      */
    /* ensure of no potential problem of ADC core IP clocking.                */
    /* Check through register CFGR1 (excluding analog watchdog configuration: */
    /* set into separate dedicated function, and bits of ADC resolution set   */
    /* out of temporary variable 'tmpCFGR1').                                 */
    if ((hadc->Instance->CFGR1 & ~(ADC_CFGR1_AWDCH | ADC_CFGR1_AWDEN | ADC_CFGR1_AWDSGL | ADC_CFGR1_RES))
 800486e:	68d2      	ldr	r2, [r2, #12]
 8004870:	4914      	ldr	r1, [pc, #80]	; (80048c4 <HAL_ADC_Init+0x144>)
 8004872:	400a      	ands	r2, r1
 8004874:	429a      	cmp	r2, r3
 8004876:	d110      	bne.n	800489a <HAL_ADC_Init+0x11a>
         == tmpCFGR1)
    {
      /* Set ADC error code to none */
      ADC_CLEAR_ERRORCODE(hadc);
 8004878:	2000      	movs	r0, #0
      
      /* Set the ADC state */
      ADC_STATE_CLR_SET(hadc->State,
 800487a:	2303      	movs	r3, #3
      ADC_CLEAR_ERRORCODE(hadc);
 800487c:	63e0      	str	r0, [r4, #60]	; 0x3c
      ADC_STATE_CLR_SET(hadc->State,
 800487e:	6ba2      	ldr	r2, [r4, #56]	; 0x38
 8004880:	439a      	bics	r2, r3
 8004882:	3b02      	subs	r3, #2
 8004884:	4313      	orrs	r3, r2
 8004886:	63a3      	str	r3, [r4, #56]	; 0x38
    tmp_hal_status = HAL_ERROR;
  }
  
  /* Return function status */
  return tmp_hal_status;
}
 8004888:	bd70      	pop	{r4, r5, r6, pc}
        SET_BIT(hadc->State, HAL_ADC_STATE_ERROR_CONFIG);
 800488a:	2120      	movs	r1, #32
 800488c:	6ba5      	ldr	r5, [r4, #56]	; 0x38
 800488e:	4329      	orrs	r1, r5
 8004890:	63a1      	str	r1, [r4, #56]	; 0x38
        SET_BIT(hadc->ErrorCode, HAL_ADC_ERROR_INTERNAL);
 8004892:	6be1      	ldr	r1, [r4, #60]	; 0x3c
 8004894:	4308      	orrs	r0, r1
 8004896:	63e0      	str	r0, [r4, #60]	; 0x3c
 8004898:	e7ce      	b.n	8004838 <HAL_ADC_Init+0xb8>
      ADC_STATE_CLR_SET(hadc->State,
 800489a:	2312      	movs	r3, #18
      SET_BIT(hadc->ErrorCode, HAL_ADC_ERROR_INTERNAL);
 800489c:	2001      	movs	r0, #1
      ADC_STATE_CLR_SET(hadc->State,
 800489e:	6ba2      	ldr	r2, [r4, #56]	; 0x38
 80048a0:	439a      	bics	r2, r3
 80048a2:	3b02      	subs	r3, #2
 80048a4:	4313      	orrs	r3, r2
 80048a6:	63a3      	str	r3, [r4, #56]	; 0x38
      SET_BIT(hadc->ErrorCode, HAL_ADC_ERROR_INTERNAL);
 80048a8:	6be3      	ldr	r3, [r4, #60]	; 0x3c
 80048aa:	4303      	orrs	r3, r0
 80048ac:	63e3      	str	r3, [r4, #60]	; 0x3c
      tmp_hal_status = HAL_ERROR;
 80048ae:	e7eb      	b.n	8004888 <HAL_ADC_Init+0x108>
    SET_BIT(hadc->State, HAL_ADC_STATE_ERROR_INTERNAL);
 80048b0:	2310      	movs	r3, #16
 80048b2:	6ba2      	ldr	r2, [r4, #56]	; 0x38
    tmp_hal_status = HAL_ERROR;
 80048b4:	2001      	movs	r0, #1
    SET_BIT(hadc->State, HAL_ADC_STATE_ERROR_INTERNAL);
 80048b6:	4313      	orrs	r3, r2
 80048b8:	63a3      	str	r3, [r4, #56]	; 0x38
    tmp_hal_status = HAL_ERROR;
 80048ba:	e7e5      	b.n	8004888 <HAL_ADC_Init+0x108>
 80048bc:	fffffefd 	.word	0xfffffefd
 80048c0:	fffe0219 	.word	0xfffe0219
 80048c4:	833fffe7 	.word	0x833fffe7

080048c8 <HAL_ADC_ConfigChannel>:
  * @param  hadc ADC handle
  * @param  sConfig Structure of ADC channel for regular group.
  * @retval HAL status
  */
HAL_StatusTypeDef HAL_ADC_ConfigChannel(ADC_HandleTypeDef* hadc, ADC_ChannelConfTypeDef* sConfig)
{
 80048c8:	b5f7      	push	{r0, r1, r2, r4, r5, r6, r7, lr}
  HAL_StatusTypeDef tmp_hal_status = HAL_OK;
  __IO uint32_t wait_loop_index = 0U;
 80048ca:	2200      	movs	r2, #0
  {
    assert_param(IS_ADC_SAMPLE_TIME(sConfig->SamplingTime));
  }
  
  /* Process locked */
  __HAL_LOCK(hadc);
 80048cc:	0004      	movs	r4, r0
  __IO uint32_t wait_loop_index = 0U;
 80048ce:	9201      	str	r2, [sp, #4]
  __HAL_LOCK(hadc);
 80048d0:	3434      	adds	r4, #52	; 0x34
 80048d2:	7822      	ldrb	r2, [r4, #0]
{
 80048d4:	0003      	movs	r3, r0
  if (! IS_ADC_SAMPLE_TIME(hadc->Init.SamplingTimeCommon))
 80048d6:	6ac5      	ldr	r5, [r0, #44]	; 0x2c
  __HAL_LOCK(hadc);
 80048d8:	2002      	movs	r0, #2
 80048da:	2a01      	cmp	r2, #1
 80048dc:	d02a      	beq.n	8004934 <HAL_ADC_ConfigChannel+0x6c>
 80048de:	3801      	subs	r0, #1
 80048e0:	7020      	strb	r0, [r4, #0]
  /* Parameters that can be updated when ADC is disabled or enabled without   */
  /* conversion on going on regular group:                                    */
  /*  - Channel number                                                        */
  /*  - Channel sampling time                                                 */
  /*  - Management of internal measurement channels: VrefInt/TempSensor/Vbat  */
  if (ADC_IS_CONVERSION_ONGOING_REGULAR(hadc) == RESET)
 80048e2:	681a      	ldr	r2, [r3, #0]
 80048e4:	6896      	ldr	r6, [r2, #8]
 80048e6:	0776      	lsls	r6, r6, #29
 80048e8:	d45f      	bmi.n	80049aa <HAL_ADC_ConfigChannel+0xe2>
    /* ADC conversion sequencer.                                              */
    if (sConfig->Rank != ADC_RANK_NONE)
    {
      /* Regular sequence configuration */
      /* Set the channel selection register from the selected channel */
      hadc->Instance->CHSELR |= ADC_CHSELR_CHANNEL(sConfig->Channel);
 80048ea:	680b      	ldr	r3, [r1, #0]
    if (sConfig->Rank != ADC_RANK_NONE)
 80048ec:	684f      	ldr	r7, [r1, #4]
      /* internal measurement paths enable: If internal channel selected,     */
      /* enable dedicated internal buffers and path.                          */
      /* Note: these internal measurement paths can be disabled using         */
      /*       HAL_ADC_DeInit() or removing the channel from sequencer with   */
      /*       channel configuration parameter "Rank".                        */
      if(ADC_IS_CHANNEL_INTERNAL(sConfig->Channel))
 80048ee:	001e      	movs	r6, r3
    if (sConfig->Rank != ADC_RANK_NONE)
 80048f0:	46bc      	mov	ip, r7
 80048f2:	4f30      	ldr	r7, [pc, #192]	; (80049b4 <HAL_ADC_ConfigChannel+0xec>)
      hadc->Instance->CHSELR |= ADC_CHSELR_CHANNEL(sConfig->Channel);
 80048f4:	4098      	lsls	r0, r3
      if(ADC_IS_CHANNEL_INTERNAL(sConfig->Channel))
 80048f6:	3e10      	subs	r6, #16
    if (sConfig->Rank != ADC_RANK_NONE)
 80048f8:	45bc      	cmp	ip, r7
 80048fa:	d03f      	beq.n	800497c <HAL_ADC_ConfigChannel+0xb4>
      hadc->Instance->CHSELR |= ADC_CHSELR_CHANNEL(sConfig->Channel);
 80048fc:	6a97      	ldr	r7, [r2, #40]	; 0x28
 80048fe:	4338      	orrs	r0, r7
 8004900:	6290      	str	r0, [r2, #40]	; 0x28
      if (! IS_ADC_SAMPLE_TIME(hadc->Init.SamplingTimeCommon))
 8004902:	2080      	movs	r0, #128	; 0x80
 8004904:	0540      	lsls	r0, r0, #21
 8004906:	4285      	cmp	r5, r0
 8004908:	d00f      	beq.n	800492a <HAL_ADC_ConfigChannel+0x62>
 800490a:	3d01      	subs	r5, #1
 800490c:	2d06      	cmp	r5, #6
 800490e:	d90c      	bls.n	800492a <HAL_ADC_ConfigChannel+0x62>
        if (sConfig->SamplingTime != ADC_GET_SAMPLINGTIME(hadc))
 8004910:	2007      	movs	r0, #7
 8004912:	6955      	ldr	r5, [r2, #20]
 8004914:	6889      	ldr	r1, [r1, #8]
 8004916:	4005      	ands	r5, r0
 8004918:	42a9      	cmp	r1, r5
 800491a:	d006      	beq.n	800492a <HAL_ADC_ConfigChannel+0x62>
          hadc->Instance->SMPR &= ~(ADC_SMPR_SMP);
 800491c:	6955      	ldr	r5, [r2, #20]
          hadc->Instance->SMPR |= ADC_SMPR_SET(sConfig->SamplingTime);
 800491e:	4001      	ands	r1, r0
          hadc->Instance->SMPR &= ~(ADC_SMPR_SMP);
 8004920:	4385      	bics	r5, r0
 8004922:	6155      	str	r5, [r2, #20]
          hadc->Instance->SMPR |= ADC_SMPR_SET(sConfig->SamplingTime);
 8004924:	6955      	ldr	r5, [r2, #20]
 8004926:	4329      	orrs	r1, r5
 8004928:	6151      	str	r1, [r2, #20]
      if(ADC_IS_CHANNEL_INTERNAL(sConfig->Channel))
 800492a:	2e02      	cmp	r6, #2
 800492c:	d903      	bls.n	8004936 <HAL_ADC_ConfigChannel+0x6e>
  HAL_StatusTypeDef tmp_hal_status = HAL_OK;
 800492e:	2000      	movs	r0, #0
    
    tmp_hal_status = HAL_ERROR;
  }
  
  /* Process unlocked */
  __HAL_UNLOCK(hadc);
 8004930:	2300      	movs	r3, #0
 8004932:	7023      	strb	r3, [r4, #0]
  
  /* Return function status */
  return tmp_hal_status;
}
 8004934:	bdfe      	pop	{r1, r2, r3, r4, r5, r6, r7, pc}
        ADC->CCR |= ADC_CHANNEL_INTERNAL_PATH(sConfig->Channel);
 8004936:	4820      	ldr	r0, [pc, #128]	; (80049b8 <HAL_ADC_ConfigChannel+0xf0>)
 8004938:	6801      	ldr	r1, [r0, #0]
 800493a:	2b10      	cmp	r3, #16
 800493c:	d01b      	beq.n	8004976 <HAL_ADC_ConfigChannel+0xae>
 800493e:	001a      	movs	r2, r3
 8004940:	3a11      	subs	r2, #17
 8004942:	4255      	negs	r5, r2
 8004944:	416a      	adcs	r2, r5
 8004946:	4d1d      	ldr	r5, [pc, #116]	; (80049bc <HAL_ADC_ConfigChannel+0xf4>)
 8004948:	4252      	negs	r2, r2
 800494a:	402a      	ands	r2, r5
 800494c:	2580      	movs	r5, #128	; 0x80
 800494e:	046d      	lsls	r5, r5, #17
 8004950:	1952      	adds	r2, r2, r5
 8004952:	430a      	orrs	r2, r1
 8004954:	6002      	str	r2, [r0, #0]
        if (sConfig->Channel == ADC_CHANNEL_TEMPSENSOR)
 8004956:	2b10      	cmp	r3, #16
 8004958:	d1e9      	bne.n	800492e <HAL_ADC_ConfigChannel+0x66>
          wait_loop_index = (ADC_TEMPSENSOR_DELAY_US * (SystemCoreClock / 1000000U));
 800495a:	4b19      	ldr	r3, [pc, #100]	; (80049c0 <HAL_ADC_ConfigChannel+0xf8>)
 800495c:	4919      	ldr	r1, [pc, #100]	; (80049c4 <HAL_ADC_ConfigChannel+0xfc>)
 800495e:	6818      	ldr	r0, [r3, #0]
 8004960:	f7fb fbe6 	bl	8000130 <__udivsi3>
 8004964:	230a      	movs	r3, #10
 8004966:	4343      	muls	r3, r0
            wait_loop_index--;
 8004968:	9301      	str	r3, [sp, #4]
          while(wait_loop_index != 0U)
 800496a:	9b01      	ldr	r3, [sp, #4]
 800496c:	2b00      	cmp	r3, #0
 800496e:	d0de      	beq.n	800492e <HAL_ADC_ConfigChannel+0x66>
            wait_loop_index--;
 8004970:	9b01      	ldr	r3, [sp, #4]
 8004972:	3b01      	subs	r3, #1
 8004974:	e7f8      	b.n	8004968 <HAL_ADC_ConfigChannel+0xa0>
        ADC->CCR |= ADC_CHANNEL_INTERNAL_PATH(sConfig->Channel);
 8004976:	2280      	movs	r2, #128	; 0x80
 8004978:	0412      	lsls	r2, r2, #16
 800497a:	e7ea      	b.n	8004952 <HAL_ADC_ConfigChannel+0x8a>
      hadc->Instance->CHSELR &= ~ADC_CHSELR_CHANNEL(sConfig->Channel);
 800497c:	6a91      	ldr	r1, [r2, #40]	; 0x28
 800497e:	4381      	bics	r1, r0
 8004980:	6291      	str	r1, [r2, #40]	; 0x28
      if(ADC_IS_CHANNEL_INTERNAL(sConfig->Channel))
 8004982:	2e02      	cmp	r6, #2
 8004984:	d8d3      	bhi.n	800492e <HAL_ADC_ConfigChannel+0x66>
        ADC->CCR &= ~ADC_CHANNEL_INTERNAL_PATH(sConfig->Channel);
 8004986:	4a0c      	ldr	r2, [pc, #48]	; (80049b8 <HAL_ADC_ConfigChannel+0xf0>)
 8004988:	6811      	ldr	r1, [r2, #0]
 800498a:	2b10      	cmp	r3, #16
 800498c:	d00b      	beq.n	80049a6 <HAL_ADC_ConfigChannel+0xde>
 800498e:	3b11      	subs	r3, #17
 8004990:	4258      	negs	r0, r3
 8004992:	4143      	adcs	r3, r0
 8004994:	20c0      	movs	r0, #192	; 0xc0
 8004996:	425b      	negs	r3, r3
 8004998:	0400      	lsls	r0, r0, #16
 800499a:	4003      	ands	r3, r0
 800499c:	480a      	ldr	r0, [pc, #40]	; (80049c8 <HAL_ADC_ConfigChannel+0x100>)
 800499e:	181b      	adds	r3, r3, r0
 80049a0:	400b      	ands	r3, r1
 80049a2:	6013      	str	r3, [r2, #0]
 80049a4:	e7c3      	b.n	800492e <HAL_ADC_ConfigChannel+0x66>
 80049a6:	4b09      	ldr	r3, [pc, #36]	; (80049cc <HAL_ADC_ConfigChannel+0x104>)
 80049a8:	e7fa      	b.n	80049a0 <HAL_ADC_ConfigChannel+0xd8>
    SET_BIT(hadc->State, HAL_ADC_STATE_ERROR_CONFIG);
 80049aa:	2220      	movs	r2, #32
 80049ac:	6b99      	ldr	r1, [r3, #56]	; 0x38
 80049ae:	430a      	orrs	r2, r1
 80049b0:	639a      	str	r2, [r3, #56]	; 0x38
    tmp_hal_status = HAL_ERROR;
 80049b2:	e7bd      	b.n	8004930 <HAL_ADC_ConfigChannel+0x68>
 80049b4:	00001001 	.word	0x00001001
 80049b8:	40012708 	.word	0x40012708
 80049bc:	ff400000 	.word	0xff400000
 80049c0:	200003b8 	.word	0x200003b8
 80049c4:	000f4240 	.word	0x000f4240
 80049c8:	feffffff 	.word	0xfeffffff
 80049cc:	ff7fffff 	.word	0xff7fffff

080049d0 <HAL_NVIC_SetPriority>:
  *         with stm32f0xx devices, this parameter is a dummy value and it is ignored, because 
  *         no subpriority supported in Cortex M0 based products.   
  * @retval None
  */
void HAL_NVIC_SetPriority(IRQn_Type IRQn, uint32_t PreemptPriority, uint32_t SubPriority)
{ 
 80049d0:	b530      	push	{r4, r5, lr}
 */
__STATIC_INLINE void __NVIC_SetPriority(IRQn_Type IRQn, uint32_t priority)
{
  if ((int32_t)(IRQn) >= 0)
  {
    NVIC->IP[_IP_IDX(IRQn)]  = ((uint32_t)(NVIC->IP[_IP_IDX(IRQn)]  & ~(0xFFUL << _BIT_SHIFT(IRQn))) |
 80049d2:	25ff      	movs	r5, #255	; 0xff
 80049d4:	2403      	movs	r4, #3
 80049d6:	002a      	movs	r2, r5
 80049d8:	4004      	ands	r4, r0
 80049da:	00e4      	lsls	r4, r4, #3
 80049dc:	40a2      	lsls	r2, r4
       (((priority << (8U - __NVIC_PRIO_BITS)) & (uint32_t)0xFFUL) << _BIT_SHIFT(IRQn)));
 80049de:	0189      	lsls	r1, r1, #6
 80049e0:	4029      	ands	r1, r5
    NVIC->IP[_IP_IDX(IRQn)]  = ((uint32_t)(NVIC->IP[_IP_IDX(IRQn)]  & ~(0xFFUL << _BIT_SHIFT(IRQn))) |
 80049e2:	43d2      	mvns	r2, r2
       (((priority << (8U - __NVIC_PRIO_BITS)) & (uint32_t)0xFFUL) << _BIT_SHIFT(IRQn)));
 80049e4:	40a1      	lsls	r1, r4
    NVIC->IP[_IP_IDX(IRQn)]  = ((uint32_t)(NVIC->IP[_IP_IDX(IRQn)]  & ~(0xFFUL << _BIT_SHIFT(IRQn))) |
 80049e6:	b2c3      	uxtb	r3, r0
  if ((int32_t)(IRQn) >= 0)
 80049e8:	2800      	cmp	r0, #0
 80049ea:	db0a      	blt.n	8004a02 <HAL_NVIC_SetPriority+0x32>
    NVIC->IP[_IP_IDX(IRQn)]  = ((uint32_t)(NVIC->IP[_IP_IDX(IRQn)]  & ~(0xFFUL << _BIT_SHIFT(IRQn))) |
 80049ec:	24c0      	movs	r4, #192	; 0xc0
 80049ee:	4b0b      	ldr	r3, [pc, #44]	; (8004a1c <HAL_NVIC_SetPriority+0x4c>)
 80049f0:	0880      	lsrs	r0, r0, #2
 80049f2:	0080      	lsls	r0, r0, #2
 80049f4:	18c0      	adds	r0, r0, r3
 80049f6:	00a4      	lsls	r4, r4, #2
 80049f8:	5903      	ldr	r3, [r0, r4]
 80049fa:	4013      	ands	r3, r2
 80049fc:	430b      	orrs	r3, r1
 80049fe:	5103      	str	r3, [r0, r4]
  /* Check the parameters */
  assert_param(IS_NVIC_PREEMPTION_PRIORITY(PreemptPriority));
  NVIC_SetPriority(IRQn,PreemptPriority);
}
 8004a00:	bd30      	pop	{r4, r5, pc}
  }
  else
  {
    SCB->SHP[_SHP_IDX(IRQn)] = ((uint32_t)(SCB->SHP[_SHP_IDX(IRQn)] & ~(0xFFUL << _BIT_SHIFT(IRQn))) |
 8004a02:	200f      	movs	r0, #15
 8004a04:	4003      	ands	r3, r0
 8004a06:	3b08      	subs	r3, #8
 8004a08:	4805      	ldr	r0, [pc, #20]	; (8004a20 <HAL_NVIC_SetPriority+0x50>)
 8004a0a:	089b      	lsrs	r3, r3, #2
 8004a0c:	009b      	lsls	r3, r3, #2
 8004a0e:	181b      	adds	r3, r3, r0
 8004a10:	69d8      	ldr	r0, [r3, #28]
 8004a12:	4002      	ands	r2, r0
 8004a14:	430a      	orrs	r2, r1
 8004a16:	61da      	str	r2, [r3, #28]
 8004a18:	e7f2      	b.n	8004a00 <HAL_NVIC_SetPriority+0x30>
 8004a1a:	46c0      	nop			; (mov r8, r8)
 8004a1c:	e000e100 	.word	0xe000e100
 8004a20:	e000ed00 	.word	0xe000ed00

08004a24 <HAL_NVIC_EnableIRQ>:
  if ((int32_t)(IRQn) >= 0)
 8004a24:	2800      	cmp	r0, #0
 8004a26:	db05      	blt.n	8004a34 <HAL_NVIC_EnableIRQ+0x10>
    NVIC->ISER[0U] = (uint32_t)(1UL << (((uint32_t)IRQn) & 0x1FUL));
 8004a28:	231f      	movs	r3, #31
 8004a2a:	4018      	ands	r0, r3
 8004a2c:	3b1e      	subs	r3, #30
 8004a2e:	4083      	lsls	r3, r0
 8004a30:	4a01      	ldr	r2, [pc, #4]	; (8004a38 <HAL_NVIC_EnableIRQ+0x14>)
 8004a32:	6013      	str	r3, [r2, #0]
  /* Check the parameters */
  assert_param(IS_NVIC_DEVICE_IRQ(IRQn));
  
  /* Enable interrupt */
  NVIC_EnableIRQ(IRQn);
}
 8004a34:	4770      	bx	lr
 8004a36:	46c0      	nop			; (mov r8, r8)
 8004a38:	e000e100 	.word	0xe000e100

08004a3c <HAL_SYSTICK_Config>:
           function <b>SysTick_Config</b> is not included. In this case, the file <b><i>device</i>.h</b>
           must contain a vendor-specific implementation of this function.
 */
__STATIC_INLINE uint32_t SysTick_Config(uint32_t ticks)
{
  if ((ticks - 1UL) > SysTick_LOAD_RELOAD_Msk)
 8004a3c:	2280      	movs	r2, #128	; 0x80
 8004a3e:	1e43      	subs	r3, r0, #1
 8004a40:	0452      	lsls	r2, r2, #17
  {
    return (1UL);                                                   /* Reload value impossible */
 8004a42:	2001      	movs	r0, #1
  if ((ticks - 1UL) > SysTick_LOAD_RELOAD_Msk)
 8004a44:	4293      	cmp	r3, r2
 8004a46:	d20d      	bcs.n	8004a64 <HAL_SYSTICK_Config+0x28>
    SCB->SHP[_SHP_IDX(IRQn)] = ((uint32_t)(SCB->SHP[_SHP_IDX(IRQn)] & ~(0xFFUL << _BIT_SHIFT(IRQn))) |
 8004a48:	21c0      	movs	r1, #192	; 0xc0
  }

  SysTick->LOAD  = (uint32_t)(ticks - 1UL);                         /* set reload register */
 8004a4a:	4a07      	ldr	r2, [pc, #28]	; (8004a68 <HAL_SYSTICK_Config+0x2c>)
    SCB->SHP[_SHP_IDX(IRQn)] = ((uint32_t)(SCB->SHP[_SHP_IDX(IRQn)] & ~(0xFFUL << _BIT_SHIFT(IRQn))) |
 8004a4c:	4807      	ldr	r0, [pc, #28]	; (8004a6c <HAL_SYSTICK_Config+0x30>)
  SysTick->LOAD  = (uint32_t)(ticks - 1UL);                         /* set reload register */
 8004a4e:	6053      	str	r3, [r2, #4]
    SCB->SHP[_SHP_IDX(IRQn)] = ((uint32_t)(SCB->SHP[_SHP_IDX(IRQn)] & ~(0xFFUL << _BIT_SHIFT(IRQn))) |
 8004a50:	6a03      	ldr	r3, [r0, #32]
 8004a52:	0609      	lsls	r1, r1, #24
 8004a54:	021b      	lsls	r3, r3, #8
 8004a56:	0a1b      	lsrs	r3, r3, #8
 8004a58:	430b      	orrs	r3, r1
 8004a5a:	6203      	str	r3, [r0, #32]
  NVIC_SetPriority (SysTick_IRQn, (1UL << __NVIC_PRIO_BITS) - 1UL); /* set Priority for Systick Interrupt */
  SysTick->VAL   = 0UL;                                             /* Load the SysTick Counter Value */
 8004a5c:	2000      	movs	r0, #0
  SysTick->CTRL  = SysTick_CTRL_CLKSOURCE_Msk |
 8004a5e:	2307      	movs	r3, #7
  SysTick->VAL   = 0UL;                                             /* Load the SysTick Counter Value */
 8004a60:	6090      	str	r0, [r2, #8]
  SysTick->CTRL  = SysTick_CTRL_CLKSOURCE_Msk |
 8004a62:	6013      	str	r3, [r2, #0]
  *                  - 1  Function failed.
  */
uint32_t HAL_SYSTICK_Config(uint32_t TicksNumb)
{
   return SysTick_Config(TicksNumb);
}
 8004a64:	4770      	bx	lr
 8004a66:	46c0      	nop			; (mov r8, r8)
 8004a68:	e000e010 	.word	0xe000e010
 8004a6c:	e000ed00 	.word	0xe000ed00

08004a70 <HAL_SYSTICK_Callback>:
__weak void HAL_SYSTICK_Callback(void)
{
  /* NOTE : This function Should not be modified, when the callback is needed,
            the HAL_SYSTICK_Callback could be implemented in the user file
   */
}
 8004a70:	4770      	bx	lr

08004a72 <HAL_SYSTICK_IRQHandler>:
{
 8004a72:	b510      	push	{r4, lr}
  HAL_SYSTICK_Callback();
 8004a74:	f7ff fffc 	bl	8004a70 <HAL_SYSTICK_Callback>
}
 8004a78:	bd10      	pop	{r4, pc}
	...

08004a7c <HAL_DMA_Init>:
  * @param  hdma Pointer to a DMA_HandleTypeDef structure that contains
  *               the configuration information for the specified DMA Channel.
  * @retval HAL status
  */
HAL_StatusTypeDef HAL_DMA_Init(DMA_HandleTypeDef *hdma)
{
 8004a7c:	b570      	push	{r4, r5, r6, lr}
 8004a7e:	0004      	movs	r4, r0
  uint32_t tmp = 0U;

  /* Check the DMA handle allocation */
  if (NULL == hdma)
  {
    return HAL_ERROR;
 8004a80:	2001      	movs	r0, #1
  if (NULL == hdma)
 8004a82:	2c00      	cmp	r4, #0
 8004a84:	d024      	beq.n	8004ad0 <HAL_DMA_Init+0x54>
  assert_param(IS_DMA_MEMORY_DATA_SIZE(hdma->Init.MemDataAlignment));
  assert_param(IS_DMA_MODE(hdma->Init.Mode));
  assert_param(IS_DMA_PRIORITY(hdma->Init.Priority));

  /* Change DMA peripheral state */
  hdma->State = HAL_DMA_STATE_BUSY;
 8004a86:	2302      	movs	r3, #2
 8004a88:	1ca5      	adds	r5, r4, #2
 8004a8a:	77eb      	strb	r3, [r5, #31]

  /* Get the CR register value */
  tmp = hdma->Instance->CCR;
 8004a8c:	6820      	ldr	r0, [r4, #0]

  /* Clear PL, MSIZE, PSIZE, MINC, PINC, CIRC, DIR bits */
  tmp &= ((uint32_t)~(DMA_CCR_PL    | DMA_CCR_MSIZE  | DMA_CCR_PSIZE  | \
 8004a8e:	4b11      	ldr	r3, [pc, #68]	; (8004ad4 <HAL_DMA_Init+0x58>)
  tmp = hdma->Instance->CCR;
 8004a90:	6802      	ldr	r2, [r0, #0]
                      DMA_CCR_MINC  | DMA_CCR_PINC   | DMA_CCR_CIRC   | \
                      DMA_CCR_DIR));

  /* Prepare the DMA Channel configuration */
  tmp |=  hdma->Init.Direction        |
 8004a92:	68a1      	ldr	r1, [r4, #8]
  tmp &= ((uint32_t)~(DMA_CCR_PL    | DMA_CCR_MSIZE  | DMA_CCR_PSIZE  | \
 8004a94:	401a      	ands	r2, r3
  tmp |=  hdma->Init.Direction        |
 8004a96:	6863      	ldr	r3, [r4, #4]
 8004a98:	430b      	orrs	r3, r1
          hdma->Init.PeriphInc           | hdma->Init.MemInc           |
 8004a9a:	68e1      	ldr	r1, [r4, #12]
 8004a9c:	430b      	orrs	r3, r1
 8004a9e:	6921      	ldr	r1, [r4, #16]
 8004aa0:	430b      	orrs	r3, r1
          hdma->Init.PeriphDataAlignment | hdma->Init.MemDataAlignment |
 8004aa2:	6961      	ldr	r1, [r4, #20]
 8004aa4:	430b      	orrs	r3, r1
 8004aa6:	69a1      	ldr	r1, [r4, #24]
 8004aa8:	430b      	orrs	r3, r1
          hdma->Init.Mode                | hdma->Init.Priority;
 8004aaa:	69e1      	ldr	r1, [r4, #28]
 8004aac:	430b      	orrs	r3, r1
  tmp |=  hdma->Init.Direction        |
 8004aae:	4313      	orrs	r3, r2

  /* Write to DMA Channel CR register */
  hdma->Instance->CCR = tmp;
 8004ab0:	6003      	str	r3, [r0, #0]
    hdma->DmaBaseAddress = DMA2;
  }
#else
  /* calculation of the channel index */
  /* DMA1 */
  hdma->ChannelIndex = (((uint32_t)hdma->Instance - (uint32_t)DMA1_Channel1) / ((uint32_t)DMA1_Channel2 - (uint32_t)DMA1_Channel1)) << 2U;
 8004ab2:	4b09      	ldr	r3, [pc, #36]	; (8004ad8 <HAL_DMA_Init+0x5c>)
 8004ab4:	2114      	movs	r1, #20
 8004ab6:	18c0      	adds	r0, r0, r3
 8004ab8:	f7fb fb3a 	bl	8000130 <__udivsi3>
  hdma->DmaBaseAddress = DMA1;
 8004abc:	4b07      	ldr	r3, [pc, #28]	; (8004adc <HAL_DMA_Init+0x60>)
  hdma->ChannelIndex = (((uint32_t)hdma->Instance - (uint32_t)DMA1_Channel1) / ((uint32_t)DMA1_Channel2 - (uint32_t)DMA1_Channel1)) << 2U;
 8004abe:	0080      	lsls	r0, r0, #2
 8004ac0:	6420      	str	r0, [r4, #64]	; 0x40
  hdma->DmaBaseAddress = DMA1;
 8004ac2:	63e3      	str	r3, [r4, #60]	; 0x3c
  hdma->ErrorCode = HAL_DMA_ERROR_NONE;
 8004ac4:	2000      	movs	r0, #0
  hdma->State = HAL_DMA_STATE_READY;
 8004ac6:	2301      	movs	r3, #1
  hdma->ErrorCode = HAL_DMA_ERROR_NONE;
 8004ac8:	63a0      	str	r0, [r4, #56]	; 0x38
  hdma->Lock = HAL_UNLOCKED;
 8004aca:	18e4      	adds	r4, r4, r3
  hdma->State = HAL_DMA_STATE_READY;
 8004acc:	77eb      	strb	r3, [r5, #31]
  hdma->Lock = HAL_UNLOCKED;
 8004ace:	77e0      	strb	r0, [r4, #31]
}
 8004ad0:	bd70      	pop	{r4, r5, r6, pc}
 8004ad2:	46c0      	nop			; (mov r8, r8)
 8004ad4:	ffffc00f 	.word	0xffffc00f
 8004ad8:	bffdfff8 	.word	0xbffdfff8
 8004adc:	40020000 	.word	0x40020000

08004ae0 <HAL_GPIO_Init>:
  *         the configuration information for the specified GPIO peripheral.
  * @retval None
  */
void HAL_GPIO_Init(GPIO_TypeDef  *GPIOx, GPIO_InitTypeDef *GPIO_Init)
{
  uint32_t position = 0x00u;
 8004ae0:	2300      	movs	r3, #0
{
 8004ae2:	b5f0      	push	{r4, r5, r6, r7, lr}
 8004ae4:	b087      	sub	sp, #28
  assert_param(IS_GPIO_ALL_INSTANCE(GPIOx));
  assert_param(IS_GPIO_PIN(GPIO_Init->Pin));
  assert_param(IS_GPIO_MODE(GPIO_Init->Mode));

  /* Configure the port pins */
  while (((GPIO_Init->Pin) >> position) != 0x00u)
 8004ae6:	680a      	ldr	r2, [r1, #0]
 8004ae8:	0014      	movs	r4, r2
 8004aea:	40dc      	lsrs	r4, r3
 8004aec:	d101      	bne.n	8004af2 <HAL_GPIO_Init+0x12>
      }
    }

    position++;
  } 
}
 8004aee:	b007      	add	sp, #28
 8004af0:	bdf0      	pop	{r4, r5, r6, r7, pc}
    iocurrent = (GPIO_Init->Pin) & (1uL << position);
 8004af2:	2501      	movs	r5, #1
 8004af4:	0014      	movs	r4, r2
 8004af6:	409d      	lsls	r5, r3
 8004af8:	402c      	ands	r4, r5
 8004afa:	9400      	str	r4, [sp, #0]
    if (iocurrent != 0x00u)
 8004afc:	422a      	tst	r2, r5
 8004afe:	d100      	bne.n	8004b02 <HAL_GPIO_Init+0x22>
 8004b00:	e094      	b.n	8004c2c <HAL_GPIO_Init+0x14c>
      if(((GPIO_Init->Mode & GPIO_MODE) == MODE_OUTPUT) ||
 8004b02:	684a      	ldr	r2, [r1, #4]
 8004b04:	005f      	lsls	r7, r3, #1
 8004b06:	4694      	mov	ip, r2
 8004b08:	2203      	movs	r2, #3
 8004b0a:	4664      	mov	r4, ip
 8004b0c:	4022      	ands	r2, r4
        temp &= ~(GPIO_OSPEEDER_OSPEEDR0 << (position * 2u));
 8004b0e:	2403      	movs	r4, #3
 8004b10:	40bc      	lsls	r4, r7
 8004b12:	43e4      	mvns	r4, r4
 8004b14:	9401      	str	r4, [sp, #4]
      if(((GPIO_Init->Mode & GPIO_MODE) == MODE_OUTPUT) ||
 8004b16:	1e54      	subs	r4, r2, #1
 8004b18:	2c01      	cmp	r4, #1
 8004b1a:	d82e      	bhi.n	8004b7a <HAL_GPIO_Init+0x9a>
        temp = GPIOx->OSPEEDR;
 8004b1c:	6886      	ldr	r6, [r0, #8]
        temp &= ~(GPIO_OSPEEDER_OSPEEDR0 << (position * 2u));
 8004b1e:	9c01      	ldr	r4, [sp, #4]
 8004b20:	4026      	ands	r6, r4
        temp |= (GPIO_Init->Speed << (position * 2u));
 8004b22:	68cc      	ldr	r4, [r1, #12]
 8004b24:	40bc      	lsls	r4, r7
 8004b26:	4334      	orrs	r4, r6
        GPIOx->OSPEEDR = temp;
 8004b28:	6084      	str	r4, [r0, #8]
        temp = GPIOx->OTYPER;
 8004b2a:	6844      	ldr	r4, [r0, #4]
        temp |= (((GPIO_Init->Mode & OUTPUT_TYPE) >> OUTPUT_TYPE_Pos) << position);
 8004b2c:	2601      	movs	r6, #1
        temp &= ~(GPIO_OTYPER_OT_0 << position) ;
 8004b2e:	43ac      	bics	r4, r5
 8004b30:	0025      	movs	r5, r4
        temp |= (((GPIO_Init->Mode & OUTPUT_TYPE) >> OUTPUT_TYPE_Pos) << position);
 8004b32:	4664      	mov	r4, ip
 8004b34:	0924      	lsrs	r4, r4, #4
 8004b36:	4034      	ands	r4, r6
 8004b38:	409c      	lsls	r4, r3
 8004b3a:	432c      	orrs	r4, r5
        GPIOx->OTYPER = temp;
 8004b3c:	6044      	str	r4, [r0, #4]
        temp = GPIOx->PUPDR;
 8004b3e:	68c5      	ldr	r5, [r0, #12]
        temp &= ~(GPIO_PUPDR_PUPDR0 << (position * 2u));
 8004b40:	9c01      	ldr	r4, [sp, #4]
 8004b42:	4025      	ands	r5, r4
        temp |= ((GPIO_Init->Pull) << (position * 2u));
 8004b44:	688c      	ldr	r4, [r1, #8]
 8004b46:	40bc      	lsls	r4, r7
 8004b48:	432c      	orrs	r4, r5
        GPIOx->PUPDR = temp;
 8004b4a:	60c4      	str	r4, [r0, #12]
      if((GPIO_Init->Mode & GPIO_MODE) == MODE_AF)
 8004b4c:	2a02      	cmp	r2, #2
 8004b4e:	d116      	bne.n	8004b7e <HAL_GPIO_Init+0x9e>
        temp &= ~(0xFu << ((position & 0x07u) * 4u));
 8004b50:	2507      	movs	r5, #7
 8004b52:	260f      	movs	r6, #15
 8004b54:	401d      	ands	r5, r3
 8004b56:	00ad      	lsls	r5, r5, #2
 8004b58:	40ae      	lsls	r6, r5
        temp = GPIOx->AFR[position >> 3u];
 8004b5a:	08dc      	lsrs	r4, r3, #3
 8004b5c:	00a4      	lsls	r4, r4, #2
 8004b5e:	1904      	adds	r4, r0, r4
 8004b60:	9402      	str	r4, [sp, #8]
 8004b62:	6a24      	ldr	r4, [r4, #32]
        temp &= ~(0xFu << ((position & 0x07u) * 4u));
 8004b64:	9603      	str	r6, [sp, #12]
 8004b66:	0026      	movs	r6, r4
 8004b68:	9c03      	ldr	r4, [sp, #12]
 8004b6a:	43a6      	bics	r6, r4
 8004b6c:	0034      	movs	r4, r6
        temp |= ((GPIO_Init->Alternate) << ((position & 0x07u) * 4u));
 8004b6e:	690e      	ldr	r6, [r1, #16]
 8004b70:	40ae      	lsls	r6, r5
 8004b72:	4326      	orrs	r6, r4
        GPIOx->AFR[position >> 3u] = temp;
 8004b74:	9c02      	ldr	r4, [sp, #8]
 8004b76:	6226      	str	r6, [r4, #32]
 8004b78:	e001      	b.n	8004b7e <HAL_GPIO_Init+0x9e>
      if((GPIO_Init->Mode & GPIO_MODE) != MODE_ANALOG)
 8004b7a:	2a03      	cmp	r2, #3
 8004b7c:	d1df      	bne.n	8004b3e <HAL_GPIO_Init+0x5e>
      temp |= ((GPIO_Init->Mode & GPIO_MODE) << (position * 2u));
 8004b7e:	40ba      	lsls	r2, r7
      temp = GPIOx->MODER;
 8004b80:	6804      	ldr	r4, [r0, #0]
      temp &= ~(GPIO_MODER_MODER0 << (position * 2u));
 8004b82:	9d01      	ldr	r5, [sp, #4]
 8004b84:	4025      	ands	r5, r4
      temp |= ((GPIO_Init->Mode & GPIO_MODE) << (position * 2u));
 8004b86:	432a      	orrs	r2, r5
      if((GPIO_Init->Mode & EXTI_MODE) != 0x00u)
 8004b88:	24c0      	movs	r4, #192	; 0xc0
      GPIOx->MODER = temp;
 8004b8a:	6002      	str	r2, [r0, #0]
      if((GPIO_Init->Mode & EXTI_MODE) != 0x00u)
 8004b8c:	4662      	mov	r2, ip
 8004b8e:	02a4      	lsls	r4, r4, #10
 8004b90:	4222      	tst	r2, r4
 8004b92:	d04b      	beq.n	8004c2c <HAL_GPIO_Init+0x14c>
        __HAL_RCC_SYSCFG_CLK_ENABLE();
 8004b94:	2501      	movs	r5, #1
 8004b96:	4a26      	ldr	r2, [pc, #152]	; (8004c30 <HAL_GPIO_Init+0x150>)
        temp |= (GPIO_GET_INDEX(GPIOx) << (4u * (position & 0x03u)));
 8004b98:	2790      	movs	r7, #144	; 0x90
        __HAL_RCC_SYSCFG_CLK_ENABLE();
 8004b9a:	6994      	ldr	r4, [r2, #24]
        temp |= (GPIO_GET_INDEX(GPIOx) << (4u * (position & 0x03u)));
 8004b9c:	05ff      	lsls	r7, r7, #23
        __HAL_RCC_SYSCFG_CLK_ENABLE();
 8004b9e:	432c      	orrs	r4, r5
 8004ba0:	6194      	str	r4, [r2, #24]
 8004ba2:	6992      	ldr	r2, [r2, #24]
        temp = SYSCFG->EXTICR[position >> 2u];
 8004ba4:	089c      	lsrs	r4, r3, #2
        __HAL_RCC_SYSCFG_CLK_ENABLE();
 8004ba6:	402a      	ands	r2, r5
 8004ba8:	9205      	str	r2, [sp, #20]
 8004baa:	9a05      	ldr	r2, [sp, #20]
        temp = SYSCFG->EXTICR[position >> 2u];
 8004bac:	4a21      	ldr	r2, [pc, #132]	; (8004c34 <HAL_GPIO_Init+0x154>)
 8004bae:	00a4      	lsls	r4, r4, #2
 8004bb0:	18a4      	adds	r4, r4, r2
        temp &= ~(0x0FuL << (4u * (position & 0x03u)));
 8004bb2:	220f      	movs	r2, #15
 8004bb4:	3502      	adds	r5, #2
 8004bb6:	401d      	ands	r5, r3
 8004bb8:	00ad      	lsls	r5, r5, #2
 8004bba:	40aa      	lsls	r2, r5
        temp = SYSCFG->EXTICR[position >> 2u];
 8004bbc:	68a6      	ldr	r6, [r4, #8]
        temp &= ~(0x0FuL << (4u * (position & 0x03u)));
 8004bbe:	4396      	bics	r6, r2
        temp |= (GPIO_GET_INDEX(GPIOx) << (4u * (position & 0x03u)));
 8004bc0:	2200      	movs	r2, #0
 8004bc2:	42b8      	cmp	r0, r7
 8004bc4:	d008      	beq.n	8004bd8 <HAL_GPIO_Init+0xf8>
 8004bc6:	4f1c      	ldr	r7, [pc, #112]	; (8004c38 <HAL_GPIO_Init+0x158>)
 8004bc8:	3201      	adds	r2, #1
 8004bca:	42b8      	cmp	r0, r7
 8004bcc:	d004      	beq.n	8004bd8 <HAL_GPIO_Init+0xf8>
 8004bce:	4f1b      	ldr	r7, [pc, #108]	; (8004c3c <HAL_GPIO_Init+0x15c>)
 8004bd0:	3201      	adds	r2, #1
 8004bd2:	42b8      	cmp	r0, r7
 8004bd4:	d000      	beq.n	8004bd8 <HAL_GPIO_Init+0xf8>
 8004bd6:	3203      	adds	r2, #3
 8004bd8:	40aa      	lsls	r2, r5
        if((GPIO_Init->Mode & TRIGGER_RISING) != 0x00u)
 8004bda:	4667      	mov	r7, ip
        temp |= (GPIO_GET_INDEX(GPIOx) << (4u * (position & 0x03u)));
 8004bdc:	4332      	orrs	r2, r6
        SYSCFG->EXTICR[position >> 2u] = temp;
 8004bde:	60a2      	str	r2, [r4, #8]
        temp = EXTI->RTSR;
 8004be0:	4a17      	ldr	r2, [pc, #92]	; (8004c40 <HAL_GPIO_Init+0x160>)
        temp &= ~(iocurrent);
 8004be2:	9c00      	ldr	r4, [sp, #0]
        temp = EXTI->RTSR;
 8004be4:	6896      	ldr	r6, [r2, #8]
          temp |= iocurrent;
 8004be6:	9d00      	ldr	r5, [sp, #0]
        temp &= ~(iocurrent);
 8004be8:	43e4      	mvns	r4, r4
          temp |= iocurrent;
 8004bea:	4335      	orrs	r5, r6
        if((GPIO_Init->Mode & TRIGGER_RISING) != 0x00u)
 8004bec:	02ff      	lsls	r7, r7, #11
 8004bee:	d401      	bmi.n	8004bf4 <HAL_GPIO_Init+0x114>
        temp &= ~(iocurrent);
 8004bf0:	0035      	movs	r5, r6
 8004bf2:	4025      	ands	r5, r4
        if((GPIO_Init->Mode & TRIGGER_FALLING) != 0x00u)
 8004bf4:	4667      	mov	r7, ip
        EXTI->RTSR = temp;
 8004bf6:	6095      	str	r5, [r2, #8]
        temp = EXTI->FTSR;
 8004bf8:	68d6      	ldr	r6, [r2, #12]
          temp |= iocurrent;
 8004bfa:	9d00      	ldr	r5, [sp, #0]
 8004bfc:	4335      	orrs	r5, r6
        if((GPIO_Init->Mode & TRIGGER_FALLING) != 0x00u)
 8004bfe:	02bf      	lsls	r7, r7, #10
 8004c00:	d401      	bmi.n	8004c06 <HAL_GPIO_Init+0x126>
        temp &= ~(iocurrent);
 8004c02:	0035      	movs	r5, r6
 8004c04:	4025      	ands	r5, r4
        if((GPIO_Init->Mode & EXTI_EVT) != 0x00u)
 8004c06:	4667      	mov	r7, ip
        EXTI->FTSR = temp;
 8004c08:	60d5      	str	r5, [r2, #12]
        temp = EXTI->EMR;
 8004c0a:	6856      	ldr	r6, [r2, #4]
          temp |= iocurrent;
 8004c0c:	9d00      	ldr	r5, [sp, #0]
 8004c0e:	4335      	orrs	r5, r6
        if((GPIO_Init->Mode & EXTI_EVT) != 0x00u)
 8004c10:	03bf      	lsls	r7, r7, #14
 8004c12:	d401      	bmi.n	8004c18 <HAL_GPIO_Init+0x138>
        temp &= ~(iocurrent);
 8004c14:	0035      	movs	r5, r6
 8004c16:	4025      	ands	r5, r4
        if((GPIO_Init->Mode & EXTI_IT) != 0x00u)
 8004c18:	4667      	mov	r7, ip
        EXTI->EMR = temp;
 8004c1a:	6055      	str	r5, [r2, #4]
        temp = EXTI->IMR;
 8004c1c:	6815      	ldr	r5, [r2, #0]
          temp |= iocurrent;
 8004c1e:	9e00      	ldr	r6, [sp, #0]
 8004c20:	432e      	orrs	r6, r5
        if((GPIO_Init->Mode & EXTI_IT) != 0x00u)
 8004c22:	03ff      	lsls	r7, r7, #15
 8004c24:	d401      	bmi.n	8004c2a <HAL_GPIO_Init+0x14a>
        temp &= ~(iocurrent);
 8004c26:	4025      	ands	r5, r4
 8004c28:	002e      	movs	r6, r5
        EXTI->IMR = temp;
 8004c2a:	6016      	str	r6, [r2, #0]
    position++;
 8004c2c:	3301      	adds	r3, #1
 8004c2e:	e75a      	b.n	8004ae6 <HAL_GPIO_Init+0x6>
 8004c30:	40021000 	.word	0x40021000
 8004c34:	40010000 	.word	0x40010000
 8004c38:	48000400 	.word	0x48000400
 8004c3c:	48000800 	.word	0x48000800
 8004c40:	40010400 	.word	0x40010400

08004c44 <HAL_GPIO_WritePin>:
{
  /* Check the parameters */
  assert_param(IS_GPIO_PIN(GPIO_Pin));
  assert_param(IS_GPIO_PIN_ACTION(PinState));

  if (PinState != GPIO_PIN_RESET)
 8004c44:	2a00      	cmp	r2, #0
 8004c46:	d001      	beq.n	8004c4c <HAL_GPIO_WritePin+0x8>
  {
    GPIOx->BSRR = (uint32_t)GPIO_Pin;
 8004c48:	6181      	str	r1, [r0, #24]
  }
  else
  {
    GPIOx->BRR = (uint32_t)GPIO_Pin;
  }
}
 8004c4a:	4770      	bx	lr
    GPIOx->BRR = (uint32_t)GPIO_Pin;
 8004c4c:	6281      	str	r1, [r0, #40]	; 0x28
}
 8004c4e:	e7fc      	b.n	8004c4a <HAL_GPIO_WritePin+0x6>

08004c50 <HAL_RCC_OscConfig>:
  *         supported by this macro. User should request a transition to HSE Off
  *         first and then HSE On or HSE Bypass.
  * @retval HAL status
  */
HAL_StatusTypeDef HAL_RCC_OscConfig(RCC_OscInitTypeDef  *RCC_OscInitStruct)
{
 8004c50:	b5f0      	push	{r4, r5, r6, r7, lr}
 8004c52:	0004      	movs	r4, r0
 8004c54:	b085      	sub	sp, #20
  uint32_t tickstart;
  uint32_t pll_config;
  uint32_t pll_config2;

  /* Check Null pointer */
  if(RCC_OscInitStruct == NULL)
 8004c56:	2800      	cmp	r0, #0
 8004c58:	d045      	beq.n	8004ce6 <HAL_RCC_OscConfig+0x96>

  /* Check the parameters */
  assert_param(IS_RCC_OSCILLATORTYPE(RCC_OscInitStruct->OscillatorType));

  /*------------------------------- HSE Configuration ------------------------*/ 
  if(((RCC_OscInitStruct->OscillatorType) & RCC_OSCILLATORTYPE_HSE) == RCC_OSCILLATORTYPE_HSE)
 8004c5a:	6803      	ldr	r3, [r0, #0]
 8004c5c:	07db      	lsls	r3, r3, #31
 8004c5e:	d42f      	bmi.n	8004cc0 <HAL_RCC_OscConfig+0x70>
        }
      }
    }
  }
  /*----------------------------- HSI Configuration --------------------------*/ 
  if(((RCC_OscInitStruct->OscillatorType) & RCC_OSCILLATORTYPE_HSI) == RCC_OSCILLATORTYPE_HSI)
 8004c60:	6823      	ldr	r3, [r4, #0]
 8004c62:	079b      	lsls	r3, r3, #30
 8004c64:	d500      	bpl.n	8004c68 <HAL_RCC_OscConfig+0x18>
 8004c66:	e081      	b.n	8004d6c <HAL_RCC_OscConfig+0x11c>
        }
      }
    }
  }
  /*------------------------------ LSI Configuration -------------------------*/ 
  if(((RCC_OscInitStruct->OscillatorType) & RCC_OSCILLATORTYPE_LSI) == RCC_OSCILLATORTYPE_LSI)
 8004c68:	6823      	ldr	r3, [r4, #0]
 8004c6a:	071b      	lsls	r3, r3, #28
 8004c6c:	d500      	bpl.n	8004c70 <HAL_RCC_OscConfig+0x20>
 8004c6e:	e0bc      	b.n	8004dea <HAL_RCC_OscConfig+0x19a>
        }
      }
    }
  }
  /*------------------------------ LSE Configuration -------------------------*/ 
  if(((RCC_OscInitStruct->OscillatorType) & RCC_OSCILLATORTYPE_LSE) == RCC_OSCILLATORTYPE_LSE)
 8004c70:	6823      	ldr	r3, [r4, #0]
 8004c72:	075b      	lsls	r3, r3, #29
 8004c74:	d500      	bpl.n	8004c78 <HAL_RCC_OscConfig+0x28>
 8004c76:	e0df      	b.n	8004e38 <HAL_RCC_OscConfig+0x1e8>
      __HAL_RCC_PWR_CLK_DISABLE();
    }
  }

  /*----------------------------- HSI14 Configuration --------------------------*/
  if(((RCC_OscInitStruct->OscillatorType) & RCC_OSCILLATORTYPE_HSI14) == RCC_OSCILLATORTYPE_HSI14)
 8004c78:	6823      	ldr	r3, [r4, #0]
 8004c7a:	06db      	lsls	r3, r3, #27
 8004c7c:	d51a      	bpl.n	8004cb4 <HAL_RCC_OscConfig+0x64>
    /* Check the parameters */
    assert_param(IS_RCC_HSI14(RCC_OscInitStruct->HSI14State));
    assert_param(IS_RCC_CALIBRATION_VALUE(RCC_OscInitStruct->HSI14CalibrationValue));

    /* Check the HSI14 State */
    if(RCC_OscInitStruct->HSI14State == RCC_HSI14_ON)
 8004c7e:	6962      	ldr	r2, [r4, #20]
 8004c80:	2304      	movs	r3, #4
 8004c82:	4db4      	ldr	r5, [pc, #720]	; (8004f54 <HAL_RCC_OscConfig+0x304>)
 8004c84:	2a01      	cmp	r2, #1
 8004c86:	d000      	beq.n	8004c8a <HAL_RCC_OscConfig+0x3a>
 8004c88:	e148      	b.n	8004f1c <HAL_RCC_OscConfig+0x2cc>
    {
      /* Disable ADC control of the Internal High Speed oscillator HSI14 */
      __HAL_RCC_HSI14ADC_DISABLE();
 8004c8a:	6b69      	ldr	r1, [r5, #52]	; 0x34

      /* Get Start Tick */
      tickstart = HAL_GetTick();
      
      /* Wait till HSI is ready */  
      while(__HAL_RCC_GET_FLAG(RCC_FLAG_HSI14RDY) == RESET)
 8004c8c:	2702      	movs	r7, #2
      __HAL_RCC_HSI14ADC_DISABLE();
 8004c8e:	430b      	orrs	r3, r1
 8004c90:	636b      	str	r3, [r5, #52]	; 0x34
      __HAL_RCC_HSI14_ENABLE();
 8004c92:	6b6b      	ldr	r3, [r5, #52]	; 0x34
 8004c94:	431a      	orrs	r2, r3
 8004c96:	636a      	str	r2, [r5, #52]	; 0x34
      tickstart = HAL_GetTick();
 8004c98:	f7ff fd6c 	bl	8004774 <HAL_GetTick>
 8004c9c:	0006      	movs	r6, r0
      while(__HAL_RCC_GET_FLAG(RCC_FLAG_HSI14RDY) == RESET)
 8004c9e:	6b6b      	ldr	r3, [r5, #52]	; 0x34
 8004ca0:	423b      	tst	r3, r7
 8004ca2:	d100      	bne.n	8004ca6 <HAL_RCC_OscConfig+0x56>
 8004ca4:	e133      	b.n	8004f0e <HAL_RCC_OscConfig+0x2be>
    {
      /* Enable ADC control of the Internal High Speed oscillator HSI14 */
      __HAL_RCC_HSI14ADC_ENABLE();

      /* Adjusts the Internal High Speed oscillator 14Mhz (HSI14) calibration value. */
      __HAL_RCC_HSI14_CALIBRATIONVALUE_ADJUST(RCC_OscInitStruct->HSI14CalibrationValue);
 8004ca6:	21f8      	movs	r1, #248	; 0xf8
 8004ca8:	6b6a      	ldr	r2, [r5, #52]	; 0x34
 8004caa:	69a3      	ldr	r3, [r4, #24]
 8004cac:	438a      	bics	r2, r1
 8004cae:	00db      	lsls	r3, r3, #3
 8004cb0:	4313      	orrs	r3, r2
 8004cb2:	636b      	str	r3, [r5, #52]	; 0x34
#endif /* RCC_HSI48_SUPPORT */
       
  /*-------------------------------- PLL Configuration -----------------------*/
  /* Check the parameters */
  assert_param(IS_RCC_PLL(RCC_OscInitStruct->PLL.PLLState));
  if ((RCC_OscInitStruct->PLL.PLLState) != RCC_PLL_NONE)
 8004cb4:	6a23      	ldr	r3, [r4, #32]
 8004cb6:	2b00      	cmp	r3, #0
 8004cb8:	d000      	beq.n	8004cbc <HAL_RCC_OscConfig+0x6c>
 8004cba:	e157      	b.n	8004f6c <HAL_RCC_OscConfig+0x31c>
        }
      }
    }
  }

  return HAL_OK;
 8004cbc:	2000      	movs	r0, #0
 8004cbe:	e02a      	b.n	8004d16 <HAL_RCC_OscConfig+0xc6>
    if((__HAL_RCC_GET_SYSCLK_SOURCE() == RCC_SYSCLKSOURCE_STATUS_HSE) 
 8004cc0:	220c      	movs	r2, #12
 8004cc2:	4da4      	ldr	r5, [pc, #656]	; (8004f54 <HAL_RCC_OscConfig+0x304>)
 8004cc4:	686b      	ldr	r3, [r5, #4]
 8004cc6:	4013      	ands	r3, r2
 8004cc8:	2b04      	cmp	r3, #4
 8004cca:	d006      	beq.n	8004cda <HAL_RCC_OscConfig+0x8a>
       || ((__HAL_RCC_GET_SYSCLK_SOURCE() == RCC_SYSCLKSOURCE_STATUS_PLLCLK) && (__HAL_RCC_GET_PLL_OSCSOURCE() == RCC_PLLSOURCE_HSE)))
 8004ccc:	686b      	ldr	r3, [r5, #4]
 8004cce:	4013      	ands	r3, r2
 8004cd0:	2b08      	cmp	r3, #8
 8004cd2:	d10a      	bne.n	8004cea <HAL_RCC_OscConfig+0x9a>
 8004cd4:	686b      	ldr	r3, [r5, #4]
 8004cd6:	03db      	lsls	r3, r3, #15
 8004cd8:	d507      	bpl.n	8004cea <HAL_RCC_OscConfig+0x9a>
      if((__HAL_RCC_GET_FLAG(RCC_FLAG_HSERDY) != RESET) && (RCC_OscInitStruct->HSEState == RCC_HSE_OFF))
 8004cda:	682b      	ldr	r3, [r5, #0]
 8004cdc:	039b      	lsls	r3, r3, #14
 8004cde:	d5bf      	bpl.n	8004c60 <HAL_RCC_OscConfig+0x10>
 8004ce0:	6863      	ldr	r3, [r4, #4]
 8004ce2:	2b00      	cmp	r3, #0
 8004ce4:	d1bc      	bne.n	8004c60 <HAL_RCC_OscConfig+0x10>
          return HAL_ERROR;
 8004ce6:	2001      	movs	r0, #1
 8004ce8:	e015      	b.n	8004d16 <HAL_RCC_OscConfig+0xc6>
      __HAL_RCC_HSE_CONFIG(RCC_OscInitStruct->HSEState);
 8004cea:	6863      	ldr	r3, [r4, #4]
 8004cec:	2b01      	cmp	r3, #1
 8004cee:	d114      	bne.n	8004d1a <HAL_RCC_OscConfig+0xca>
 8004cf0:	2380      	movs	r3, #128	; 0x80
 8004cf2:	682a      	ldr	r2, [r5, #0]
 8004cf4:	025b      	lsls	r3, r3, #9
 8004cf6:	4313      	orrs	r3, r2
 8004cf8:	602b      	str	r3, [r5, #0]
        tickstart = HAL_GetTick();
 8004cfa:	f7ff fd3b 	bl	8004774 <HAL_GetTick>
        while(__HAL_RCC_GET_FLAG(RCC_FLAG_HSERDY) == RESET)
 8004cfe:	2780      	movs	r7, #128	; 0x80
        tickstart = HAL_GetTick();
 8004d00:	0006      	movs	r6, r0
        while(__HAL_RCC_GET_FLAG(RCC_FLAG_HSERDY) == RESET)
 8004d02:	02bf      	lsls	r7, r7, #10
 8004d04:	682b      	ldr	r3, [r5, #0]
 8004d06:	423b      	tst	r3, r7
 8004d08:	d1aa      	bne.n	8004c60 <HAL_RCC_OscConfig+0x10>
          if((HAL_GetTick() - tickstart ) > HSE_TIMEOUT_VALUE)
 8004d0a:	f7ff fd33 	bl	8004774 <HAL_GetTick>
 8004d0e:	1b80      	subs	r0, r0, r6
 8004d10:	2864      	cmp	r0, #100	; 0x64
 8004d12:	d9f7      	bls.n	8004d04 <HAL_RCC_OscConfig+0xb4>
            return HAL_TIMEOUT;
 8004d14:	2003      	movs	r0, #3
}
 8004d16:	b005      	add	sp, #20
 8004d18:	bdf0      	pop	{r4, r5, r6, r7, pc}
      __HAL_RCC_HSE_CONFIG(RCC_OscInitStruct->HSEState);
 8004d1a:	2b00      	cmp	r3, #0
 8004d1c:	d116      	bne.n	8004d4c <HAL_RCC_OscConfig+0xfc>
 8004d1e:	682b      	ldr	r3, [r5, #0]
 8004d20:	4a8d      	ldr	r2, [pc, #564]	; (8004f58 <HAL_RCC_OscConfig+0x308>)
        while(__HAL_RCC_GET_FLAG(RCC_FLAG_HSERDY) != RESET)
 8004d22:	2780      	movs	r7, #128	; 0x80
      __HAL_RCC_HSE_CONFIG(RCC_OscInitStruct->HSEState);
 8004d24:	4013      	ands	r3, r2
 8004d26:	602b      	str	r3, [r5, #0]
 8004d28:	682b      	ldr	r3, [r5, #0]
 8004d2a:	4a8c      	ldr	r2, [pc, #560]	; (8004f5c <HAL_RCC_OscConfig+0x30c>)
        while(__HAL_RCC_GET_FLAG(RCC_FLAG_HSERDY) != RESET)
 8004d2c:	02bf      	lsls	r7, r7, #10
      __HAL_RCC_HSE_CONFIG(RCC_OscInitStruct->HSEState);
 8004d2e:	4013      	ands	r3, r2
 8004d30:	602b      	str	r3, [r5, #0]
        tickstart = HAL_GetTick();
 8004d32:	f7ff fd1f 	bl	8004774 <HAL_GetTick>
 8004d36:	0006      	movs	r6, r0
        while(__HAL_RCC_GET_FLAG(RCC_FLAG_HSERDY) != RESET)
 8004d38:	682b      	ldr	r3, [r5, #0]
 8004d3a:	423b      	tst	r3, r7
 8004d3c:	d100      	bne.n	8004d40 <HAL_RCC_OscConfig+0xf0>
 8004d3e:	e78f      	b.n	8004c60 <HAL_RCC_OscConfig+0x10>
           if((HAL_GetTick() - tickstart ) > HSE_TIMEOUT_VALUE)
 8004d40:	f7ff fd18 	bl	8004774 <HAL_GetTick>
 8004d44:	1b80      	subs	r0, r0, r6
 8004d46:	2864      	cmp	r0, #100	; 0x64
 8004d48:	d9f6      	bls.n	8004d38 <HAL_RCC_OscConfig+0xe8>
 8004d4a:	e7e3      	b.n	8004d14 <HAL_RCC_OscConfig+0xc4>
      __HAL_RCC_HSE_CONFIG(RCC_OscInitStruct->HSEState);
 8004d4c:	2b05      	cmp	r3, #5
 8004d4e:	d105      	bne.n	8004d5c <HAL_RCC_OscConfig+0x10c>
 8004d50:	2380      	movs	r3, #128	; 0x80
 8004d52:	682a      	ldr	r2, [r5, #0]
 8004d54:	02db      	lsls	r3, r3, #11
 8004d56:	4313      	orrs	r3, r2
 8004d58:	602b      	str	r3, [r5, #0]
 8004d5a:	e7c9      	b.n	8004cf0 <HAL_RCC_OscConfig+0xa0>
 8004d5c:	682b      	ldr	r3, [r5, #0]
 8004d5e:	4a7e      	ldr	r2, [pc, #504]	; (8004f58 <HAL_RCC_OscConfig+0x308>)
 8004d60:	4013      	ands	r3, r2
 8004d62:	602b      	str	r3, [r5, #0]
 8004d64:	682b      	ldr	r3, [r5, #0]
 8004d66:	4a7d      	ldr	r2, [pc, #500]	; (8004f5c <HAL_RCC_OscConfig+0x30c>)
 8004d68:	4013      	ands	r3, r2
 8004d6a:	e7c5      	b.n	8004cf8 <HAL_RCC_OscConfig+0xa8>
    if((__HAL_RCC_GET_SYSCLK_SOURCE() == RCC_SYSCLKSOURCE_STATUS_HSI) 
 8004d6c:	220c      	movs	r2, #12
 8004d6e:	4d79      	ldr	r5, [pc, #484]	; (8004f54 <HAL_RCC_OscConfig+0x304>)
 8004d70:	686b      	ldr	r3, [r5, #4]
 8004d72:	4213      	tst	r3, r2
 8004d74:	d006      	beq.n	8004d84 <HAL_RCC_OscConfig+0x134>
       || ((__HAL_RCC_GET_SYSCLK_SOURCE() == RCC_SYSCLKSOURCE_STATUS_PLLCLK) && (__HAL_RCC_GET_PLL_OSCSOURCE() == RCC_PLLSOURCE_HSI)))
 8004d76:	686b      	ldr	r3, [r5, #4]
 8004d78:	4013      	ands	r3, r2
 8004d7a:	2b08      	cmp	r3, #8
 8004d7c:	d110      	bne.n	8004da0 <HAL_RCC_OscConfig+0x150>
 8004d7e:	686b      	ldr	r3, [r5, #4]
 8004d80:	03db      	lsls	r3, r3, #15
 8004d82:	d40d      	bmi.n	8004da0 <HAL_RCC_OscConfig+0x150>
      if((__HAL_RCC_GET_FLAG(RCC_FLAG_HSIRDY) != RESET) && (RCC_OscInitStruct->HSIState != RCC_HSI_ON))
 8004d84:	682b      	ldr	r3, [r5, #0]
 8004d86:	079b      	lsls	r3, r3, #30
 8004d88:	d502      	bpl.n	8004d90 <HAL_RCC_OscConfig+0x140>
 8004d8a:	68e3      	ldr	r3, [r4, #12]
 8004d8c:	2b01      	cmp	r3, #1
 8004d8e:	d1aa      	bne.n	8004ce6 <HAL_RCC_OscConfig+0x96>
        __HAL_RCC_HSI_CALIBRATIONVALUE_ADJUST(RCC_OscInitStruct->HSICalibrationValue);
 8004d90:	21f8      	movs	r1, #248	; 0xf8
 8004d92:	682a      	ldr	r2, [r5, #0]
 8004d94:	6923      	ldr	r3, [r4, #16]
 8004d96:	438a      	bics	r2, r1
 8004d98:	00db      	lsls	r3, r3, #3
 8004d9a:	4313      	orrs	r3, r2
 8004d9c:	602b      	str	r3, [r5, #0]
 8004d9e:	e763      	b.n	8004c68 <HAL_RCC_OscConfig+0x18>
      if(RCC_OscInitStruct->HSIState != RCC_HSI_OFF)
 8004da0:	68e2      	ldr	r2, [r4, #12]
 8004da2:	2301      	movs	r3, #1
 8004da4:	2a00      	cmp	r2, #0
 8004da6:	d00f      	beq.n	8004dc8 <HAL_RCC_OscConfig+0x178>
        __HAL_RCC_HSI_ENABLE();
 8004da8:	682a      	ldr	r2, [r5, #0]
        while(__HAL_RCC_GET_FLAG(RCC_FLAG_HSIRDY) == RESET)
 8004daa:	2702      	movs	r7, #2
        __HAL_RCC_HSI_ENABLE();
 8004dac:	4313      	orrs	r3, r2
 8004dae:	602b      	str	r3, [r5, #0]
        tickstart = HAL_GetTick();
 8004db0:	f7ff fce0 	bl	8004774 <HAL_GetTick>
 8004db4:	0006      	movs	r6, r0
        while(__HAL_RCC_GET_FLAG(RCC_FLAG_HSIRDY) == RESET)
 8004db6:	682b      	ldr	r3, [r5, #0]
 8004db8:	423b      	tst	r3, r7
 8004dba:	d1e9      	bne.n	8004d90 <HAL_RCC_OscConfig+0x140>
          if((HAL_GetTick() - tickstart ) > HSI_TIMEOUT_VALUE)
 8004dbc:	f7ff fcda 	bl	8004774 <HAL_GetTick>
 8004dc0:	1b80      	subs	r0, r0, r6
 8004dc2:	2802      	cmp	r0, #2
 8004dc4:	d9f7      	bls.n	8004db6 <HAL_RCC_OscConfig+0x166>
 8004dc6:	e7a5      	b.n	8004d14 <HAL_RCC_OscConfig+0xc4>
        __HAL_RCC_HSI_DISABLE();
 8004dc8:	682a      	ldr	r2, [r5, #0]
        while(__HAL_RCC_GET_FLAG(RCC_FLAG_HSIRDY) != RESET)
 8004dca:	2702      	movs	r7, #2
        __HAL_RCC_HSI_DISABLE();
 8004dcc:	439a      	bics	r2, r3
 8004dce:	602a      	str	r2, [r5, #0]
        tickstart = HAL_GetTick();
 8004dd0:	f7ff fcd0 	bl	8004774 <HAL_GetTick>
 8004dd4:	0006      	movs	r6, r0
        while(__HAL_RCC_GET_FLAG(RCC_FLAG_HSIRDY) != RESET)
 8004dd6:	682b      	ldr	r3, [r5, #0]
 8004dd8:	423b      	tst	r3, r7
 8004dda:	d100      	bne.n	8004dde <HAL_RCC_OscConfig+0x18e>
 8004ddc:	e744      	b.n	8004c68 <HAL_RCC_OscConfig+0x18>
          if((HAL_GetTick() - tickstart ) > HSI_TIMEOUT_VALUE)
 8004dde:	f7ff fcc9 	bl	8004774 <HAL_GetTick>
 8004de2:	1b80      	subs	r0, r0, r6
 8004de4:	2802      	cmp	r0, #2
 8004de6:	d9f6      	bls.n	8004dd6 <HAL_RCC_OscConfig+0x186>
 8004de8:	e794      	b.n	8004d14 <HAL_RCC_OscConfig+0xc4>
    if(RCC_OscInitStruct->LSIState != RCC_LSI_OFF)
 8004dea:	69e2      	ldr	r2, [r4, #28]
 8004dec:	2301      	movs	r3, #1
 8004dee:	4d59      	ldr	r5, [pc, #356]	; (8004f54 <HAL_RCC_OscConfig+0x304>)
 8004df0:	2a00      	cmp	r2, #0
 8004df2:	d010      	beq.n	8004e16 <HAL_RCC_OscConfig+0x1c6>
      __HAL_RCC_LSI_ENABLE();
 8004df4:	6a6a      	ldr	r2, [r5, #36]	; 0x24
      while(__HAL_RCC_GET_FLAG(RCC_FLAG_LSIRDY) == RESET)
 8004df6:	2702      	movs	r7, #2
      __HAL_RCC_LSI_ENABLE();
 8004df8:	4313      	orrs	r3, r2
 8004dfa:	626b      	str	r3, [r5, #36]	; 0x24
      tickstart = HAL_GetTick();
 8004dfc:	f7ff fcba 	bl	8004774 <HAL_GetTick>
 8004e00:	0006      	movs	r6, r0
      while(__HAL_RCC_GET_FLAG(RCC_FLAG_LSIRDY) == RESET)
 8004e02:	6a6b      	ldr	r3, [r5, #36]	; 0x24
 8004e04:	423b      	tst	r3, r7
 8004e06:	d000      	beq.n	8004e0a <HAL_RCC_OscConfig+0x1ba>
 8004e08:	e732      	b.n	8004c70 <HAL_RCC_OscConfig+0x20>
        if((HAL_GetTick() - tickstart ) > LSI_TIMEOUT_VALUE)
 8004e0a:	f7ff fcb3 	bl	8004774 <HAL_GetTick>
 8004e0e:	1b80      	subs	r0, r0, r6
 8004e10:	2802      	cmp	r0, #2
 8004e12:	d9f6      	bls.n	8004e02 <HAL_RCC_OscConfig+0x1b2>
 8004e14:	e77e      	b.n	8004d14 <HAL_RCC_OscConfig+0xc4>
      __HAL_RCC_LSI_DISABLE();
 8004e16:	6a6a      	ldr	r2, [r5, #36]	; 0x24
      while(__HAL_RCC_GET_FLAG(RCC_FLAG_LSIRDY) != RESET)
 8004e18:	2702      	movs	r7, #2
      __HAL_RCC_LSI_DISABLE();
 8004e1a:	439a      	bics	r2, r3
 8004e1c:	626a      	str	r2, [r5, #36]	; 0x24
      tickstart = HAL_GetTick();
 8004e1e:	f7ff fca9 	bl	8004774 <HAL_GetTick>
 8004e22:	0006      	movs	r6, r0
      while(__HAL_RCC_GET_FLAG(RCC_FLAG_LSIRDY) != RESET)
 8004e24:	6a6b      	ldr	r3, [r5, #36]	; 0x24
 8004e26:	423b      	tst	r3, r7
 8004e28:	d100      	bne.n	8004e2c <HAL_RCC_OscConfig+0x1dc>
 8004e2a:	e721      	b.n	8004c70 <HAL_RCC_OscConfig+0x20>
        if((HAL_GetTick() - tickstart ) > LSI_TIMEOUT_VALUE)
 8004e2c:	f7ff fca2 	bl	8004774 <HAL_GetTick>
 8004e30:	1b80      	subs	r0, r0, r6
 8004e32:	2802      	cmp	r0, #2
 8004e34:	d9f6      	bls.n	8004e24 <HAL_RCC_OscConfig+0x1d4>
 8004e36:	e76d      	b.n	8004d14 <HAL_RCC_OscConfig+0xc4>
    if(__HAL_RCC_PWR_IS_CLK_DISABLED())
 8004e38:	2280      	movs	r2, #128	; 0x80
    FlagStatus       pwrclkchanged = RESET;
 8004e3a:	2100      	movs	r1, #0
    if(__HAL_RCC_PWR_IS_CLK_DISABLED())
 8004e3c:	4d45      	ldr	r5, [pc, #276]	; (8004f54 <HAL_RCC_OscConfig+0x304>)
 8004e3e:	0552      	lsls	r2, r2, #21
 8004e40:	69eb      	ldr	r3, [r5, #28]
    FlagStatus       pwrclkchanged = RESET;
 8004e42:	9100      	str	r1, [sp, #0]
    if(__HAL_RCC_PWR_IS_CLK_DISABLED())
 8004e44:	4213      	tst	r3, r2
 8004e46:	d108      	bne.n	8004e5a <HAL_RCC_OscConfig+0x20a>
      __HAL_RCC_PWR_CLK_ENABLE();
 8004e48:	69eb      	ldr	r3, [r5, #28]
 8004e4a:	4313      	orrs	r3, r2
 8004e4c:	61eb      	str	r3, [r5, #28]
 8004e4e:	69eb      	ldr	r3, [r5, #28]
 8004e50:	4013      	ands	r3, r2
 8004e52:	9303      	str	r3, [sp, #12]
 8004e54:	9b03      	ldr	r3, [sp, #12]
      pwrclkchanged = SET;
 8004e56:	2301      	movs	r3, #1
 8004e58:	9300      	str	r3, [sp, #0]
    if(HAL_IS_BIT_CLR(PWR->CR, PWR_CR_DBP))
 8004e5a:	2780      	movs	r7, #128	; 0x80
 8004e5c:	4e40      	ldr	r6, [pc, #256]	; (8004f60 <HAL_RCC_OscConfig+0x310>)
 8004e5e:	007f      	lsls	r7, r7, #1
 8004e60:	6833      	ldr	r3, [r6, #0]
 8004e62:	423b      	tst	r3, r7
 8004e64:	d015      	beq.n	8004e92 <HAL_RCC_OscConfig+0x242>
    __HAL_RCC_LSE_CONFIG(RCC_OscInitStruct->LSEState);
 8004e66:	68a3      	ldr	r3, [r4, #8]
 8004e68:	2b01      	cmp	r3, #1
 8004e6a:	d122      	bne.n	8004eb2 <HAL_RCC_OscConfig+0x262>
 8004e6c:	6a2a      	ldr	r2, [r5, #32]
 8004e6e:	4313      	orrs	r3, r2
 8004e70:	622b      	str	r3, [r5, #32]
      tickstart = HAL_GetTick();
 8004e72:	f7ff fc7f 	bl	8004774 <HAL_GetTick>
      while(__HAL_RCC_GET_FLAG(RCC_FLAG_LSERDY) == RESET)
 8004e76:	2702      	movs	r7, #2
      tickstart = HAL_GetTick();
 8004e78:	0006      	movs	r6, r0
      while(__HAL_RCC_GET_FLAG(RCC_FLAG_LSERDY) == RESET)
 8004e7a:	6a2b      	ldr	r3, [r5, #32]
 8004e7c:	423b      	tst	r3, r7
 8004e7e:	d03f      	beq.n	8004f00 <HAL_RCC_OscConfig+0x2b0>
    if(pwrclkchanged == SET)
 8004e80:	9b00      	ldr	r3, [sp, #0]
 8004e82:	2b01      	cmp	r3, #1
 8004e84:	d000      	beq.n	8004e88 <HAL_RCC_OscConfig+0x238>
 8004e86:	e6f7      	b.n	8004c78 <HAL_RCC_OscConfig+0x28>
      __HAL_RCC_PWR_CLK_DISABLE();
 8004e88:	69eb      	ldr	r3, [r5, #28]
 8004e8a:	4a36      	ldr	r2, [pc, #216]	; (8004f64 <HAL_RCC_OscConfig+0x314>)
 8004e8c:	4013      	ands	r3, r2
 8004e8e:	61eb      	str	r3, [r5, #28]
 8004e90:	e6f2      	b.n	8004c78 <HAL_RCC_OscConfig+0x28>
      SET_BIT(PWR->CR, PWR_CR_DBP);
 8004e92:	6833      	ldr	r3, [r6, #0]
 8004e94:	433b      	orrs	r3, r7
 8004e96:	6033      	str	r3, [r6, #0]
      tickstart = HAL_GetTick();
 8004e98:	f7ff fc6c 	bl	8004774 <HAL_GetTick>
 8004e9c:	9001      	str	r0, [sp, #4]
      while(HAL_IS_BIT_CLR(PWR->CR, PWR_CR_DBP))
 8004e9e:	6833      	ldr	r3, [r6, #0]
 8004ea0:	423b      	tst	r3, r7
 8004ea2:	d1e0      	bne.n	8004e66 <HAL_RCC_OscConfig+0x216>
        if((HAL_GetTick() - tickstart) > RCC_DBP_TIMEOUT_VALUE)
 8004ea4:	f7ff fc66 	bl	8004774 <HAL_GetTick>
 8004ea8:	9b01      	ldr	r3, [sp, #4]
 8004eaa:	1ac0      	subs	r0, r0, r3
 8004eac:	2864      	cmp	r0, #100	; 0x64
 8004eae:	d9f6      	bls.n	8004e9e <HAL_RCC_OscConfig+0x24e>
 8004eb0:	e730      	b.n	8004d14 <HAL_RCC_OscConfig+0xc4>
    __HAL_RCC_LSE_CONFIG(RCC_OscInitStruct->LSEState);
 8004eb2:	2201      	movs	r2, #1
 8004eb4:	2b00      	cmp	r3, #0
 8004eb6:	d114      	bne.n	8004ee2 <HAL_RCC_OscConfig+0x292>
 8004eb8:	6a2b      	ldr	r3, [r5, #32]
      while(__HAL_RCC_GET_FLAG(RCC_FLAG_LSERDY) != RESET)
 8004eba:	2702      	movs	r7, #2
    __HAL_RCC_LSE_CONFIG(RCC_OscInitStruct->LSEState);
 8004ebc:	4393      	bics	r3, r2
 8004ebe:	622b      	str	r3, [r5, #32]
 8004ec0:	6a2b      	ldr	r3, [r5, #32]
 8004ec2:	3203      	adds	r2, #3
 8004ec4:	4393      	bics	r3, r2
 8004ec6:	622b      	str	r3, [r5, #32]
      tickstart = HAL_GetTick();
 8004ec8:	f7ff fc54 	bl	8004774 <HAL_GetTick>
 8004ecc:	0006      	movs	r6, r0
      while(__HAL_RCC_GET_FLAG(RCC_FLAG_LSERDY) != RESET)
 8004ece:	6a2b      	ldr	r3, [r5, #32]
 8004ed0:	423b      	tst	r3, r7
 8004ed2:	d0d5      	beq.n	8004e80 <HAL_RCC_OscConfig+0x230>
        if((HAL_GetTick() - tickstart ) > RCC_LSE_TIMEOUT_VALUE)
 8004ed4:	f7ff fc4e 	bl	8004774 <HAL_GetTick>
 8004ed8:	4b23      	ldr	r3, [pc, #140]	; (8004f68 <HAL_RCC_OscConfig+0x318>)
 8004eda:	1b80      	subs	r0, r0, r6
 8004edc:	4298      	cmp	r0, r3
 8004ede:	d9f6      	bls.n	8004ece <HAL_RCC_OscConfig+0x27e>
 8004ee0:	e718      	b.n	8004d14 <HAL_RCC_OscConfig+0xc4>
    __HAL_RCC_LSE_CONFIG(RCC_OscInitStruct->LSEState);
 8004ee2:	2b05      	cmp	r3, #5
 8004ee4:	d105      	bne.n	8004ef2 <HAL_RCC_OscConfig+0x2a2>
 8004ee6:	6a29      	ldr	r1, [r5, #32]
 8004ee8:	3b01      	subs	r3, #1
 8004eea:	430b      	orrs	r3, r1
 8004eec:	622b      	str	r3, [r5, #32]
 8004eee:	6a2b      	ldr	r3, [r5, #32]
 8004ef0:	e7bd      	b.n	8004e6e <HAL_RCC_OscConfig+0x21e>
 8004ef2:	6a2b      	ldr	r3, [r5, #32]
 8004ef4:	4393      	bics	r3, r2
 8004ef6:	2204      	movs	r2, #4
 8004ef8:	622b      	str	r3, [r5, #32]
 8004efa:	6a2b      	ldr	r3, [r5, #32]
 8004efc:	4393      	bics	r3, r2
 8004efe:	e7b7      	b.n	8004e70 <HAL_RCC_OscConfig+0x220>
        if((HAL_GetTick() - tickstart ) > RCC_LSE_TIMEOUT_VALUE)
 8004f00:	f7ff fc38 	bl	8004774 <HAL_GetTick>
 8004f04:	4b18      	ldr	r3, [pc, #96]	; (8004f68 <HAL_RCC_OscConfig+0x318>)
 8004f06:	1b80      	subs	r0, r0, r6
 8004f08:	4298      	cmp	r0, r3
 8004f0a:	d9b6      	bls.n	8004e7a <HAL_RCC_OscConfig+0x22a>
 8004f0c:	e702      	b.n	8004d14 <HAL_RCC_OscConfig+0xc4>
        if((HAL_GetTick() - tickstart) > HSI14_TIMEOUT_VALUE)
 8004f0e:	f7ff fc31 	bl	8004774 <HAL_GetTick>
 8004f12:	1b80      	subs	r0, r0, r6
 8004f14:	2802      	cmp	r0, #2
 8004f16:	d800      	bhi.n	8004f1a <HAL_RCC_OscConfig+0x2ca>
 8004f18:	e6c1      	b.n	8004c9e <HAL_RCC_OscConfig+0x4e>
 8004f1a:	e6fb      	b.n	8004d14 <HAL_RCC_OscConfig+0xc4>
    else if(RCC_OscInitStruct->HSI14State == RCC_HSI14_ADC_CONTROL)
 8004f1c:	3205      	adds	r2, #5
 8004f1e:	d103      	bne.n	8004f28 <HAL_RCC_OscConfig+0x2d8>
      __HAL_RCC_HSI14ADC_ENABLE();
 8004f20:	6b6a      	ldr	r2, [r5, #52]	; 0x34
 8004f22:	439a      	bics	r2, r3
 8004f24:	636a      	str	r2, [r5, #52]	; 0x34
 8004f26:	e6be      	b.n	8004ca6 <HAL_RCC_OscConfig+0x56>
      __HAL_RCC_HSI14ADC_DISABLE();
 8004f28:	6b6a      	ldr	r2, [r5, #52]	; 0x34
      while(__HAL_RCC_GET_FLAG(RCC_FLAG_HSI14RDY) != RESET)
 8004f2a:	2702      	movs	r7, #2
      __HAL_RCC_HSI14ADC_DISABLE();
 8004f2c:	4313      	orrs	r3, r2
      __HAL_RCC_HSI14_DISABLE();
 8004f2e:	2201      	movs	r2, #1
      __HAL_RCC_HSI14ADC_DISABLE();
 8004f30:	636b      	str	r3, [r5, #52]	; 0x34
      __HAL_RCC_HSI14_DISABLE();
 8004f32:	6b6b      	ldr	r3, [r5, #52]	; 0x34
 8004f34:	4393      	bics	r3, r2
 8004f36:	636b      	str	r3, [r5, #52]	; 0x34
      tickstart = HAL_GetTick();
 8004f38:	f7ff fc1c 	bl	8004774 <HAL_GetTick>
 8004f3c:	0006      	movs	r6, r0
      while(__HAL_RCC_GET_FLAG(RCC_FLAG_HSI14RDY) != RESET)
 8004f3e:	6b6b      	ldr	r3, [r5, #52]	; 0x34
 8004f40:	423b      	tst	r3, r7
 8004f42:	d100      	bne.n	8004f46 <HAL_RCC_OscConfig+0x2f6>
 8004f44:	e6b6      	b.n	8004cb4 <HAL_RCC_OscConfig+0x64>
        if((HAL_GetTick() - tickstart) > HSI14_TIMEOUT_VALUE)
 8004f46:	f7ff fc15 	bl	8004774 <HAL_GetTick>
 8004f4a:	1b80      	subs	r0, r0, r6
 8004f4c:	2802      	cmp	r0, #2
 8004f4e:	d9f6      	bls.n	8004f3e <HAL_RCC_OscConfig+0x2ee>
 8004f50:	e6e0      	b.n	8004d14 <HAL_RCC_OscConfig+0xc4>
 8004f52:	46c0      	nop			; (mov r8, r8)
 8004f54:	40021000 	.word	0x40021000
 8004f58:	fffeffff 	.word	0xfffeffff
 8004f5c:	fffbffff 	.word	0xfffbffff
 8004f60:	40007000 	.word	0x40007000
 8004f64:	efffffff 	.word	0xefffffff
 8004f68:	00001388 	.word	0x00001388
    if(__HAL_RCC_GET_SYSCLK_SOURCE() != RCC_SYSCLKSOURCE_STATUS_PLLCLK)
 8004f6c:	210c      	movs	r1, #12
 8004f6e:	4d34      	ldr	r5, [pc, #208]	; (8005040 <HAL_RCC_OscConfig+0x3f0>)
 8004f70:	686a      	ldr	r2, [r5, #4]
 8004f72:	400a      	ands	r2, r1
 8004f74:	2a08      	cmp	r2, #8
 8004f76:	d047      	beq.n	8005008 <HAL_RCC_OscConfig+0x3b8>
      if((RCC_OscInitStruct->PLL.PLLState) == RCC_PLL_ON)
 8004f78:	4a32      	ldr	r2, [pc, #200]	; (8005044 <HAL_RCC_OscConfig+0x3f4>)
 8004f7a:	2b02      	cmp	r3, #2
 8004f7c:	d132      	bne.n	8004fe4 <HAL_RCC_OscConfig+0x394>
        __HAL_RCC_PLL_DISABLE();
 8004f7e:	682b      	ldr	r3, [r5, #0]
        while(__HAL_RCC_GET_FLAG(RCC_FLAG_PLLRDY)  != RESET)
 8004f80:	2780      	movs	r7, #128	; 0x80
        __HAL_RCC_PLL_DISABLE();
 8004f82:	4013      	ands	r3, r2
 8004f84:	602b      	str	r3, [r5, #0]
        tickstart = HAL_GetTick();
 8004f86:	f7ff fbf5 	bl	8004774 <HAL_GetTick>
 8004f8a:	0006      	movs	r6, r0
        while(__HAL_RCC_GET_FLAG(RCC_FLAG_PLLRDY)  != RESET)
 8004f8c:	04bf      	lsls	r7, r7, #18
 8004f8e:	682b      	ldr	r3, [r5, #0]
 8004f90:	423b      	tst	r3, r7
 8004f92:	d121      	bne.n	8004fd8 <HAL_RCC_OscConfig+0x388>
        __HAL_RCC_PLL_CONFIG(RCC_OscInitStruct->PLL.PLLSource,
 8004f94:	220f      	movs	r2, #15
 8004f96:	6aeb      	ldr	r3, [r5, #44]	; 0x2c
        while(__HAL_RCC_GET_FLAG(RCC_FLAG_PLLRDY)  == RESET)
 8004f98:	2680      	movs	r6, #128	; 0x80
        __HAL_RCC_PLL_CONFIG(RCC_OscInitStruct->PLL.PLLSource,
 8004f9a:	4393      	bics	r3, r2
 8004f9c:	6ae2      	ldr	r2, [r4, #44]	; 0x2c
        while(__HAL_RCC_GET_FLAG(RCC_FLAG_PLLRDY)  == RESET)
 8004f9e:	04b6      	lsls	r6, r6, #18
        __HAL_RCC_PLL_CONFIG(RCC_OscInitStruct->PLL.PLLSource,
 8004fa0:	4313      	orrs	r3, r2
 8004fa2:	62eb      	str	r3, [r5, #44]	; 0x2c
 8004fa4:	6a61      	ldr	r1, [r4, #36]	; 0x24
 8004fa6:	6aa3      	ldr	r3, [r4, #40]	; 0x28
 8004fa8:	686a      	ldr	r2, [r5, #4]
 8004faa:	430b      	orrs	r3, r1
 8004fac:	4926      	ldr	r1, [pc, #152]	; (8005048 <HAL_RCC_OscConfig+0x3f8>)
 8004fae:	400a      	ands	r2, r1
 8004fb0:	4313      	orrs	r3, r2
 8004fb2:	606b      	str	r3, [r5, #4]
        __HAL_RCC_PLL_ENABLE();
 8004fb4:	2380      	movs	r3, #128	; 0x80
 8004fb6:	682a      	ldr	r2, [r5, #0]
 8004fb8:	045b      	lsls	r3, r3, #17
 8004fba:	4313      	orrs	r3, r2
 8004fbc:	602b      	str	r3, [r5, #0]
        tickstart = HAL_GetTick();
 8004fbe:	f7ff fbd9 	bl	8004774 <HAL_GetTick>
 8004fc2:	0004      	movs	r4, r0
        while(__HAL_RCC_GET_FLAG(RCC_FLAG_PLLRDY)  == RESET)
 8004fc4:	682b      	ldr	r3, [r5, #0]
 8004fc6:	4233      	tst	r3, r6
 8004fc8:	d000      	beq.n	8004fcc <HAL_RCC_OscConfig+0x37c>
 8004fca:	e677      	b.n	8004cbc <HAL_RCC_OscConfig+0x6c>
          if((HAL_GetTick() - tickstart ) > PLL_TIMEOUT_VALUE)
 8004fcc:	f7ff fbd2 	bl	8004774 <HAL_GetTick>
 8004fd0:	1b00      	subs	r0, r0, r4
 8004fd2:	2802      	cmp	r0, #2
 8004fd4:	d9f6      	bls.n	8004fc4 <HAL_RCC_OscConfig+0x374>
 8004fd6:	e69d      	b.n	8004d14 <HAL_RCC_OscConfig+0xc4>
          if((HAL_GetTick() - tickstart ) > PLL_TIMEOUT_VALUE)
 8004fd8:	f7ff fbcc 	bl	8004774 <HAL_GetTick>
 8004fdc:	1b80      	subs	r0, r0, r6
 8004fde:	2802      	cmp	r0, #2
 8004fe0:	d9d5      	bls.n	8004f8e <HAL_RCC_OscConfig+0x33e>
 8004fe2:	e697      	b.n	8004d14 <HAL_RCC_OscConfig+0xc4>
        __HAL_RCC_PLL_DISABLE();
 8004fe4:	682b      	ldr	r3, [r5, #0]
        while(__HAL_RCC_GET_FLAG(RCC_FLAG_PLLRDY)  != RESET)
 8004fe6:	2680      	movs	r6, #128	; 0x80
        __HAL_RCC_PLL_DISABLE();
 8004fe8:	4013      	ands	r3, r2
 8004fea:	602b      	str	r3, [r5, #0]
        tickstart = HAL_GetTick();
 8004fec:	f7ff fbc2 	bl	8004774 <HAL_GetTick>
 8004ff0:	0004      	movs	r4, r0
        while(__HAL_RCC_GET_FLAG(RCC_FLAG_PLLRDY)  != RESET)
 8004ff2:	04b6      	lsls	r6, r6, #18
 8004ff4:	682b      	ldr	r3, [r5, #0]
 8004ff6:	4233      	tst	r3, r6
 8004ff8:	d100      	bne.n	8004ffc <HAL_RCC_OscConfig+0x3ac>
 8004ffa:	e65f      	b.n	8004cbc <HAL_RCC_OscConfig+0x6c>
          if((HAL_GetTick() - tickstart ) > PLL_TIMEOUT_VALUE)
 8004ffc:	f7ff fbba 	bl	8004774 <HAL_GetTick>
 8005000:	1b00      	subs	r0, r0, r4
 8005002:	2802      	cmp	r0, #2
 8005004:	d9f6      	bls.n	8004ff4 <HAL_RCC_OscConfig+0x3a4>
 8005006:	e685      	b.n	8004d14 <HAL_RCC_OscConfig+0xc4>
        return HAL_ERROR;
 8005008:	0018      	movs	r0, r3
      if((RCC_OscInitStruct->PLL.PLLState) == RCC_PLL_OFF)
 800500a:	2b01      	cmp	r3, #1
 800500c:	d100      	bne.n	8005010 <HAL_RCC_OscConfig+0x3c0>
 800500e:	e682      	b.n	8004d16 <HAL_RCC_OscConfig+0xc6>
        if((READ_BIT(pll_config,  RCC_CFGR_PLLSRC)  != RCC_OscInitStruct->PLL.PLLSource) ||
 8005010:	2180      	movs	r1, #128	; 0x80
        pll_config  = RCC->CFGR;
 8005012:	686b      	ldr	r3, [r5, #4]
        if((READ_BIT(pll_config,  RCC_CFGR_PLLSRC)  != RCC_OscInitStruct->PLL.PLLSource) ||
 8005014:	6a60      	ldr	r0, [r4, #36]	; 0x24
 8005016:	0249      	lsls	r1, r1, #9
        pll_config2 = RCC->CFGR2;
 8005018:	6aea      	ldr	r2, [r5, #44]	; 0x2c
        if((READ_BIT(pll_config,  RCC_CFGR_PLLSRC)  != RCC_OscInitStruct->PLL.PLLSource) ||
 800501a:	4019      	ands	r1, r3
 800501c:	4281      	cmp	r1, r0
 800501e:	d000      	beq.n	8005022 <HAL_RCC_OscConfig+0x3d2>
 8005020:	e661      	b.n	8004ce6 <HAL_RCC_OscConfig+0x96>
           (READ_BIT(pll_config2, RCC_CFGR2_PREDIV) != RCC_OscInitStruct->PLL.PREDIV)    ||
 8005022:	210f      	movs	r1, #15
 8005024:	400a      	ands	r2, r1
        if((READ_BIT(pll_config,  RCC_CFGR_PLLSRC)  != RCC_OscInitStruct->PLL.PLLSource) ||
 8005026:	6ae1      	ldr	r1, [r4, #44]	; 0x2c
 8005028:	428a      	cmp	r2, r1
 800502a:	d000      	beq.n	800502e <HAL_RCC_OscConfig+0x3de>
 800502c:	e65b      	b.n	8004ce6 <HAL_RCC_OscConfig+0x96>
           (READ_BIT(pll_config,  RCC_CFGR_PLLMUL)  != RCC_OscInitStruct->PLL.PLLMUL))
 800502e:	22f0      	movs	r2, #240	; 0xf0
 8005030:	0392      	lsls	r2, r2, #14
 8005032:	4013      	ands	r3, r2
           (READ_BIT(pll_config2, RCC_CFGR2_PREDIV) != RCC_OscInitStruct->PLL.PREDIV)    ||
 8005034:	6aa2      	ldr	r2, [r4, #40]	; 0x28
 8005036:	4293      	cmp	r3, r2
 8005038:	d100      	bne.n	800503c <HAL_RCC_OscConfig+0x3ec>
 800503a:	e63f      	b.n	8004cbc <HAL_RCC_OscConfig+0x6c>
 800503c:	e653      	b.n	8004ce6 <HAL_RCC_OscConfig+0x96>
 800503e:	46c0      	nop			; (mov r8, r8)
 8005040:	40021000 	.word	0x40021000
 8005044:	feffffff 	.word	0xfeffffff
 8005048:	ffc2ffff 	.word	0xffc2ffff

0800504c <HAL_RCC_EnableCSS>:
  *         the Cortex-M0 NMI (Non-Maskable Interrupt) exception vector.  
  * @retval None
  */
void HAL_RCC_EnableCSS(void)
{
  SET_BIT(RCC->CR, RCC_CR_CSSON) ;
 800504c:	2380      	movs	r3, #128	; 0x80
 800504e:	4a03      	ldr	r2, [pc, #12]	; (800505c <HAL_RCC_EnableCSS+0x10>)
 8005050:	031b      	lsls	r3, r3, #12
 8005052:	6811      	ldr	r1, [r2, #0]
 8005054:	430b      	orrs	r3, r1
 8005056:	6013      	str	r3, [r2, #0]
}
 8005058:	4770      	bx	lr
 800505a:	46c0      	nop			; (mov r8, r8)
 800505c:	40021000 	.word	0x40021000

08005060 <HAL_RCC_GetSysClockFreq>:
  uint32_t sysclockfreq = 0U;
  
  tmpreg = RCC->CFGR;
  
  /* Get SYSCLK source -------------------------------------------------------*/
  switch (tmpreg & RCC_CFGR_SWS)
 8005060:	220c      	movs	r2, #12
{
 8005062:	b570      	push	{r4, r5, r6, lr}
  tmpreg = RCC->CFGR;
 8005064:	4d0c      	ldr	r5, [pc, #48]	; (8005098 <HAL_RCC_GetSysClockFreq+0x38>)
 8005066:	686b      	ldr	r3, [r5, #4]
  switch (tmpreg & RCC_CFGR_SWS)
 8005068:	401a      	ands	r2, r3
 800506a:	2a08      	cmp	r2, #8
 800506c:	d111      	bne.n	8005092 <HAL_RCC_GetSysClockFreq+0x32>
      sysclockfreq = HSE_VALUE;
      break;
    }
    case RCC_SYSCLKSOURCE_STATUS_PLLCLK:  /* PLL used as system clock */
    {
      pllmul = aPLLMULFactorTable[(uint32_t)(tmpreg & RCC_CFGR_PLLMUL) >> RCC_CFGR_PLLMUL_BITNUMBER];
 800506e:	200f      	movs	r0, #15
 8005070:	490a      	ldr	r1, [pc, #40]	; (800509c <HAL_RCC_GetSysClockFreq+0x3c>)
 8005072:	0c9a      	lsrs	r2, r3, #18
 8005074:	4002      	ands	r2, r0
 8005076:	5c8c      	ldrb	r4, [r1, r2]
      prediv = aPredivFactorTable[(uint32_t)(RCC->CFGR2 & RCC_CFGR2_PREDIV) >> RCC_CFGR2_PREDIV_BITNUMBER];
 8005078:	6aea      	ldr	r2, [r5, #44]	; 0x2c
      if ((tmpreg & RCC_CFGR_PLLSRC) == RCC_PLLSOURCE_HSE)
 800507a:	03db      	lsls	r3, r3, #15
 800507c:	d507      	bpl.n	800508e <HAL_RCC_GetSysClockFreq+0x2e>
      prediv = aPredivFactorTable[(uint32_t)(RCC->CFGR2 & RCC_CFGR2_PREDIV) >> RCC_CFGR2_PREDIV_BITNUMBER];
 800507e:	4908      	ldr	r1, [pc, #32]	; (80050a0 <HAL_RCC_GetSysClockFreq+0x40>)
 8005080:	4002      	ands	r2, r0
 8005082:	5c89      	ldrb	r1, [r1, r2]
      {
        /* HSE used as PLL clock source : PLLCLK = HSE/PREDIV * PLLMUL */
        pllclk = (uint32_t)((uint64_t) HSE_VALUE / (uint64_t) (prediv)) * ((uint64_t) pllmul);
 8005084:	4807      	ldr	r0, [pc, #28]	; (80050a4 <HAL_RCC_GetSysClockFreq+0x44>)
 8005086:	f7fb f853 	bl	8000130 <__udivsi3>
#if  (defined(STM32F042x6) || defined(STM32F048xx) || defined(STM32F070x6) || defined(STM32F071xB) || defined(STM32F072xB) || defined(STM32F078xx) || defined(STM32F070xB) || defined(STM32F091xC) || defined(STM32F098xx) || defined(STM32F030xC))
        /* HSI used as PLL clock source : PLLCLK = HSI/PREDIV * PLLMUL */
        pllclk = (uint32_t)((uint64_t) HSI_VALUE / (uint64_t) (prediv)) * ((uint64_t) pllmul);
#else
        /* HSI used as PLL clock source : PLLCLK = HSI/2 * PLLMUL */
        pllclk = (uint32_t)((uint64_t) (HSI_VALUE >> 1U) * ((uint64_t) pllmul));
 800508a:	4360      	muls	r0, r4
      sysclockfreq = HSI_VALUE;
      break;
    }
  }
  return sysclockfreq;
}
 800508c:	bd70      	pop	{r4, r5, r6, pc}
        pllclk = (uint32_t)((uint64_t) (HSI_VALUE >> 1U) * ((uint64_t) pllmul));
 800508e:	4806      	ldr	r0, [pc, #24]	; (80050a8 <HAL_RCC_GetSysClockFreq+0x48>)
 8005090:	e7fb      	b.n	800508a <HAL_RCC_GetSysClockFreq+0x2a>
      sysclockfreq = HSE_VALUE;
 8005092:	4804      	ldr	r0, [pc, #16]	; (80050a4 <HAL_RCC_GetSysClockFreq+0x44>)
  return sysclockfreq;
 8005094:	e7fa      	b.n	800508c <HAL_RCC_GetSysClockFreq+0x2c>
 8005096:	46c0      	nop			; (mov r8, r8)
 8005098:	40021000 	.word	0x40021000
 800509c:	08006934 	.word	0x08006934
 80050a0:	08006944 	.word	0x08006944
 80050a4:	007a1200 	.word	0x007a1200
 80050a8:	003d0900 	.word	0x003d0900

080050ac <HAL_RCC_ClockConfig>:
{
 80050ac:	b5f7      	push	{r0, r1, r2, r4, r5, r6, r7, lr}
 80050ae:	0004      	movs	r4, r0
 80050b0:	000e      	movs	r6, r1
  if(RCC_ClkInitStruct == NULL)
 80050b2:	2800      	cmp	r0, #0
 80050b4:	d101      	bne.n	80050ba <HAL_RCC_ClockConfig+0xe>
    return HAL_ERROR;
 80050b6:	2001      	movs	r0, #1
}
 80050b8:	bdfe      	pop	{r1, r2, r3, r4, r5, r6, r7, pc}
  if(FLatency > __HAL_FLASH_GET_LATENCY())
 80050ba:	2201      	movs	r2, #1
 80050bc:	4d37      	ldr	r5, [pc, #220]	; (800519c <HAL_RCC_ClockConfig+0xf0>)
 80050be:	682b      	ldr	r3, [r5, #0]
 80050c0:	4013      	ands	r3, r2
 80050c2:	428b      	cmp	r3, r1
 80050c4:	d31c      	bcc.n	8005100 <HAL_RCC_ClockConfig+0x54>
  if(((RCC_ClkInitStruct->ClockType) & RCC_CLOCKTYPE_HCLK) == RCC_CLOCKTYPE_HCLK)
 80050c6:	6822      	ldr	r2, [r4, #0]
 80050c8:	0793      	lsls	r3, r2, #30
 80050ca:	d422      	bmi.n	8005112 <HAL_RCC_ClockConfig+0x66>
  if(((RCC_ClkInitStruct->ClockType) & RCC_CLOCKTYPE_SYSCLK) == RCC_CLOCKTYPE_SYSCLK)
 80050cc:	07d2      	lsls	r2, r2, #31
 80050ce:	d42f      	bmi.n	8005130 <HAL_RCC_ClockConfig+0x84>
  if(FLatency < __HAL_FLASH_GET_LATENCY())
 80050d0:	2301      	movs	r3, #1
 80050d2:	682a      	ldr	r2, [r5, #0]
 80050d4:	401a      	ands	r2, r3
 80050d6:	42b2      	cmp	r2, r6
 80050d8:	d851      	bhi.n	800517e <HAL_RCC_ClockConfig+0xd2>
  if(((RCC_ClkInitStruct->ClockType) & RCC_CLOCKTYPE_PCLK1) == RCC_CLOCKTYPE_PCLK1)
 80050da:	6823      	ldr	r3, [r4, #0]
 80050dc:	4d30      	ldr	r5, [pc, #192]	; (80051a0 <HAL_RCC_ClockConfig+0xf4>)
 80050de:	075b      	lsls	r3, r3, #29
 80050e0:	d454      	bmi.n	800518c <HAL_RCC_ClockConfig+0xe0>
  SystemCoreClock = HAL_RCC_GetSysClockFreq() >> AHBPrescTable[(RCC->CFGR & RCC_CFGR_HPRE)>> RCC_CFGR_HPRE_BITNUMBER];
 80050e2:	f7ff ffbd 	bl	8005060 <HAL_RCC_GetSysClockFreq>
 80050e6:	686b      	ldr	r3, [r5, #4]
 80050e8:	4a2e      	ldr	r2, [pc, #184]	; (80051a4 <HAL_RCC_ClockConfig+0xf8>)
 80050ea:	061b      	lsls	r3, r3, #24
 80050ec:	0f1b      	lsrs	r3, r3, #28
 80050ee:	5cd3      	ldrb	r3, [r2, r3]
 80050f0:	492d      	ldr	r1, [pc, #180]	; (80051a8 <HAL_RCC_ClockConfig+0xfc>)
 80050f2:	40d8      	lsrs	r0, r3
 80050f4:	6008      	str	r0, [r1, #0]
  HAL_InitTick (TICK_INT_PRIORITY);
 80050f6:	2002      	movs	r0, #2
 80050f8:	f7ff fafc 	bl	80046f4 <HAL_InitTick>
  return HAL_OK;
 80050fc:	2000      	movs	r0, #0
 80050fe:	e7db      	b.n	80050b8 <HAL_RCC_ClockConfig+0xc>
    __HAL_FLASH_SET_LATENCY(FLatency);
 8005100:	682b      	ldr	r3, [r5, #0]
 8005102:	4393      	bics	r3, r2
 8005104:	430b      	orrs	r3, r1
 8005106:	602b      	str	r3, [r5, #0]
    if(__HAL_FLASH_GET_LATENCY() != FLatency)
 8005108:	682b      	ldr	r3, [r5, #0]
 800510a:	4013      	ands	r3, r2
 800510c:	428b      	cmp	r3, r1
 800510e:	d1d2      	bne.n	80050b6 <HAL_RCC_ClockConfig+0xa>
 8005110:	e7d9      	b.n	80050c6 <HAL_RCC_ClockConfig+0x1a>
    if(((RCC_ClkInitStruct->ClockType) & RCC_CLOCKTYPE_PCLK1) == RCC_CLOCKTYPE_PCLK1)
 8005112:	4923      	ldr	r1, [pc, #140]	; (80051a0 <HAL_RCC_ClockConfig+0xf4>)
 8005114:	0753      	lsls	r3, r2, #29
 8005116:	d504      	bpl.n	8005122 <HAL_RCC_ClockConfig+0x76>
      MODIFY_REG(RCC->CFGR, RCC_CFGR_PPRE, RCC_HCLK_DIV16);
 8005118:	23e0      	movs	r3, #224	; 0xe0
 800511a:	6848      	ldr	r0, [r1, #4]
 800511c:	00db      	lsls	r3, r3, #3
 800511e:	4303      	orrs	r3, r0
 8005120:	604b      	str	r3, [r1, #4]
    MODIFY_REG(RCC->CFGR, RCC_CFGR_HPRE, RCC_ClkInitStruct->AHBCLKDivider);
 8005122:	20f0      	movs	r0, #240	; 0xf0
 8005124:	684b      	ldr	r3, [r1, #4]
 8005126:	4383      	bics	r3, r0
 8005128:	68a0      	ldr	r0, [r4, #8]
 800512a:	4303      	orrs	r3, r0
 800512c:	604b      	str	r3, [r1, #4]
 800512e:	e7cd      	b.n	80050cc <HAL_RCC_ClockConfig+0x20>
    if(RCC_ClkInitStruct->SYSCLKSource == RCC_SYSCLKSOURCE_HSE)
 8005130:	4f1b      	ldr	r7, [pc, #108]	; (80051a0 <HAL_RCC_ClockConfig+0xf4>)
 8005132:	6862      	ldr	r2, [r4, #4]
      if(__HAL_RCC_GET_FLAG(RCC_FLAG_HSERDY) == RESET)
 8005134:	683b      	ldr	r3, [r7, #0]
    if(RCC_ClkInitStruct->SYSCLKSource == RCC_SYSCLKSOURCE_HSE)
 8005136:	2a01      	cmp	r2, #1
 8005138:	d119      	bne.n	800516e <HAL_RCC_ClockConfig+0xc2>
      if(__HAL_RCC_GET_FLAG(RCC_FLAG_HSERDY) == RESET)
 800513a:	039b      	lsls	r3, r3, #14
 800513c:	d5bb      	bpl.n	80050b6 <HAL_RCC_ClockConfig+0xa>
    __HAL_RCC_SYSCLK_CONFIG(RCC_ClkInitStruct->SYSCLKSource);
 800513e:	2103      	movs	r1, #3
 8005140:	687b      	ldr	r3, [r7, #4]
 8005142:	438b      	bics	r3, r1
 8005144:	4313      	orrs	r3, r2
 8005146:	607b      	str	r3, [r7, #4]
    tickstart = HAL_GetTick();
 8005148:	f7ff fb14 	bl	8004774 <HAL_GetTick>
 800514c:	9001      	str	r0, [sp, #4]
    while (__HAL_RCC_GET_SYSCLK_SOURCE() != (RCC_ClkInitStruct->SYSCLKSource << RCC_CFGR_SWS_Pos))
 800514e:	230c      	movs	r3, #12
 8005150:	687a      	ldr	r2, [r7, #4]
 8005152:	401a      	ands	r2, r3
 8005154:	6863      	ldr	r3, [r4, #4]
 8005156:	009b      	lsls	r3, r3, #2
 8005158:	429a      	cmp	r2, r3
 800515a:	d0b9      	beq.n	80050d0 <HAL_RCC_ClockConfig+0x24>
      if((HAL_GetTick() - tickstart ) > CLOCKSWITCH_TIMEOUT_VALUE)
 800515c:	f7ff fb0a 	bl	8004774 <HAL_GetTick>
 8005160:	9b01      	ldr	r3, [sp, #4]
 8005162:	1ac0      	subs	r0, r0, r3
 8005164:	4b11      	ldr	r3, [pc, #68]	; (80051ac <HAL_RCC_ClockConfig+0x100>)
 8005166:	4298      	cmp	r0, r3
 8005168:	d9f1      	bls.n	800514e <HAL_RCC_ClockConfig+0xa2>
        return HAL_TIMEOUT;
 800516a:	2003      	movs	r0, #3
 800516c:	e7a4      	b.n	80050b8 <HAL_RCC_ClockConfig+0xc>
    else if(RCC_ClkInitStruct->SYSCLKSource == RCC_SYSCLKSOURCE_PLLCLK)
 800516e:	2a02      	cmp	r2, #2
 8005170:	d102      	bne.n	8005178 <HAL_RCC_ClockConfig+0xcc>
      if(__HAL_RCC_GET_FLAG(RCC_FLAG_PLLRDY) == RESET)
 8005172:	019b      	lsls	r3, r3, #6
 8005174:	d4e3      	bmi.n	800513e <HAL_RCC_ClockConfig+0x92>
 8005176:	e79e      	b.n	80050b6 <HAL_RCC_ClockConfig+0xa>
      if(__HAL_RCC_GET_FLAG(RCC_FLAG_HSIRDY) == RESET)
 8005178:	079b      	lsls	r3, r3, #30
 800517a:	d4e0      	bmi.n	800513e <HAL_RCC_ClockConfig+0x92>
 800517c:	e79b      	b.n	80050b6 <HAL_RCC_ClockConfig+0xa>
    __HAL_FLASH_SET_LATENCY(FLatency);
 800517e:	682a      	ldr	r2, [r5, #0]
 8005180:	439a      	bics	r2, r3
 8005182:	602a      	str	r2, [r5, #0]
    if(__HAL_FLASH_GET_LATENCY() != FLatency)
 8005184:	682a      	ldr	r2, [r5, #0]
 8005186:	421a      	tst	r2, r3
 8005188:	d0a7      	beq.n	80050da <HAL_RCC_ClockConfig+0x2e>
 800518a:	e794      	b.n	80050b6 <HAL_RCC_ClockConfig+0xa>
    MODIFY_REG(RCC->CFGR, RCC_CFGR_PPRE, RCC_ClkInitStruct->APB1CLKDivider);
 800518c:	686b      	ldr	r3, [r5, #4]
 800518e:	4a08      	ldr	r2, [pc, #32]	; (80051b0 <HAL_RCC_ClockConfig+0x104>)
 8005190:	4013      	ands	r3, r2
 8005192:	68e2      	ldr	r2, [r4, #12]
 8005194:	4313      	orrs	r3, r2
 8005196:	606b      	str	r3, [r5, #4]
 8005198:	e7a3      	b.n	80050e2 <HAL_RCC_ClockConfig+0x36>
 800519a:	46c0      	nop			; (mov r8, r8)
 800519c:	40022000 	.word	0x40022000
 80051a0:	40021000 	.word	0x40021000
 80051a4:	0800691c 	.word	0x0800691c
 80051a8:	200003b8 	.word	0x200003b8
 80051ac:	00001388 	.word	0x00001388
 80051b0:	fffff8ff 	.word	0xfffff8ff

080051b4 <HAL_RCC_GetHCLKFreq>:
  *         and updated within this function
  * @retval HCLK frequency
  */
uint32_t HAL_RCC_GetHCLKFreq(void)
{
  return SystemCoreClock;
 80051b4:	4b01      	ldr	r3, [pc, #4]	; (80051bc <HAL_RCC_GetHCLKFreq+0x8>)
 80051b6:	6818      	ldr	r0, [r3, #0]
}
 80051b8:	4770      	bx	lr
 80051ba:	46c0      	nop			; (mov r8, r8)
 80051bc:	200003b8 	.word	0x200003b8

080051c0 <HAL_RCC_GetPCLK1Freq>:
  * @retval PCLK1 frequency
  */
uint32_t HAL_RCC_GetPCLK1Freq(void)
{
  /* Get HCLK source and Compute PCLK1 frequency ---------------------------*/
  return (HAL_RCC_GetHCLKFreq() >> APBPrescTable[(RCC->CFGR & RCC_CFGR_PPRE) >> RCC_CFGR_PPRE_BITNUMBER]);
 80051c0:	4b04      	ldr	r3, [pc, #16]	; (80051d4 <HAL_RCC_GetPCLK1Freq+0x14>)
  return SystemCoreClock;
 80051c2:	4a05      	ldr	r2, [pc, #20]	; (80051d8 <HAL_RCC_GetPCLK1Freq+0x18>)
  return (HAL_RCC_GetHCLKFreq() >> APBPrescTable[(RCC->CFGR & RCC_CFGR_PPRE) >> RCC_CFGR_PPRE_BITNUMBER]);
 80051c4:	685b      	ldr	r3, [r3, #4]
 80051c6:	4905      	ldr	r1, [pc, #20]	; (80051dc <HAL_RCC_GetPCLK1Freq+0x1c>)
 80051c8:	055b      	lsls	r3, r3, #21
 80051ca:	0f5b      	lsrs	r3, r3, #29
 80051cc:	5ccb      	ldrb	r3, [r1, r3]
 80051ce:	6810      	ldr	r0, [r2, #0]
 80051d0:	40d8      	lsrs	r0, r3
}    
 80051d2:	4770      	bx	lr
 80051d4:	40021000 	.word	0x40021000
 80051d8:	200003b8 	.word	0x200003b8
 80051dc:	0800692c 	.word	0x0800692c

080051e0 <HAL_RCCEx_PeriphCLKConfig>:
  *         the backup registers) and RCC_BDCR register are set to their reset values.
  *
  * @retval HAL status
  */
HAL_StatusTypeDef HAL_RCCEx_PeriphCLKConfig(RCC_PeriphCLKInitTypeDef  *PeriphClkInit)
{
 80051e0:	b5f0      	push	{r4, r5, r6, r7, lr}

  /* Check the parameters */
  assert_param(IS_RCC_PERIPHCLOCK(PeriphClkInit->PeriphClockSelection));
  
  /*---------------------------- RTC configuration -------------------------------*/
  if(((PeriphClkInit->PeriphClockSelection) & RCC_PERIPHCLK_RTC) == (RCC_PERIPHCLK_RTC))
 80051e2:	6803      	ldr	r3, [r0, #0]
{
 80051e4:	0005      	movs	r5, r0
 80051e6:	b085      	sub	sp, #20
  if(((PeriphClkInit->PeriphClockSelection) & RCC_PERIPHCLK_RTC) == (RCC_PERIPHCLK_RTC))
 80051e8:	03db      	lsls	r3, r3, #15
 80051ea:	d52b      	bpl.n	8005244 <HAL_RCCEx_PeriphCLKConfig+0x64>
    FlagStatus       pwrclkchanged = RESET;

    /* As soon as function is called to change RTC clock source, activation of the 
       power domain is done. */
    /* Requires to enable write access to Backup Domain of necessary */
    if(__HAL_RCC_PWR_IS_CLK_DISABLED())
 80051ec:	2280      	movs	r2, #128	; 0x80
    FlagStatus       pwrclkchanged = RESET;
 80051ee:	2100      	movs	r1, #0
    if(__HAL_RCC_PWR_IS_CLK_DISABLED())
 80051f0:	4c38      	ldr	r4, [pc, #224]	; (80052d4 <HAL_RCCEx_PeriphCLKConfig+0xf4>)
 80051f2:	0552      	lsls	r2, r2, #21
 80051f4:	69e3      	ldr	r3, [r4, #28]
    FlagStatus       pwrclkchanged = RESET;
 80051f6:	9100      	str	r1, [sp, #0]
    if(__HAL_RCC_PWR_IS_CLK_DISABLED())
 80051f8:	4213      	tst	r3, r2
 80051fa:	d108      	bne.n	800520e <HAL_RCCEx_PeriphCLKConfig+0x2e>
    {
    __HAL_RCC_PWR_CLK_ENABLE();
 80051fc:	69e3      	ldr	r3, [r4, #28]
 80051fe:	4313      	orrs	r3, r2
 8005200:	61e3      	str	r3, [r4, #28]
 8005202:	69e3      	ldr	r3, [r4, #28]
 8005204:	4013      	ands	r3, r2
 8005206:	9303      	str	r3, [sp, #12]
 8005208:	9b03      	ldr	r3, [sp, #12]
      pwrclkchanged = SET;
 800520a:	2301      	movs	r3, #1
 800520c:	9300      	str	r3, [sp, #0]
    }
    
    if(HAL_IS_BIT_CLR(PWR->CR, PWR_CR_DBP))
 800520e:	2780      	movs	r7, #128	; 0x80
 8005210:	4e31      	ldr	r6, [pc, #196]	; (80052d8 <HAL_RCCEx_PeriphCLKConfig+0xf8>)
 8005212:	007f      	lsls	r7, r7, #1
 8005214:	6833      	ldr	r3, [r6, #0]
 8005216:	423b      	tst	r3, r7
 8005218:	d029      	beq.n	800526e <HAL_RCCEx_PeriphCLKConfig+0x8e>
        }
      }
    }
    
    /* Reset the Backup domain only if the RTC Clock source selection is modified from reset value */ 
    temp_reg = (RCC->BDCR & RCC_BDCR_RTCSEL);
 800521a:	6a21      	ldr	r1, [r4, #32]
 800521c:	22c0      	movs	r2, #192	; 0xc0
 800521e:	0008      	movs	r0, r1
 8005220:	0092      	lsls	r2, r2, #2
    if((temp_reg != 0x00000000U) && (temp_reg != (PeriphClkInit->RTCClockSelection & RCC_BDCR_RTCSEL)))
 8005222:	686b      	ldr	r3, [r5, #4]
 8005224:	4e2d      	ldr	r6, [pc, #180]	; (80052dc <HAL_RCCEx_PeriphCLKConfig+0xfc>)
    temp_reg = (RCC->BDCR & RCC_BDCR_RTCSEL);
 8005226:	4010      	ands	r0, r2
    if((temp_reg != 0x00000000U) && (temp_reg != (PeriphClkInit->RTCClockSelection & RCC_BDCR_RTCSEL)))
 8005228:	4211      	tst	r1, r2
 800522a:	d132      	bne.n	8005292 <HAL_RCCEx_PeriphCLKConfig+0xb2>
            return HAL_TIMEOUT;
          }
        }
      }
    }
    __HAL_RCC_RTC_CONFIG(PeriphClkInit->RTCClockSelection);
 800522c:	6a23      	ldr	r3, [r4, #32]
 800522e:	686a      	ldr	r2, [r5, #4]
 8005230:	4033      	ands	r3, r6
 8005232:	4313      	orrs	r3, r2
 8005234:	6223      	str	r3, [r4, #32]

    /* Require to disable power clock if necessary */
    if(pwrclkchanged == SET)
 8005236:	9b00      	ldr	r3, [sp, #0]
 8005238:	2b01      	cmp	r3, #1
 800523a:	d103      	bne.n	8005244 <HAL_RCCEx_PeriphCLKConfig+0x64>
    {
      __HAL_RCC_PWR_CLK_DISABLE();
 800523c:	69e3      	ldr	r3, [r4, #28]
 800523e:	4a28      	ldr	r2, [pc, #160]	; (80052e0 <HAL_RCCEx_PeriphCLKConfig+0x100>)
 8005240:	4013      	ands	r3, r2
 8005242:	61e3      	str	r3, [r4, #28]
    }
  }

  /*------------------------------- USART1 Configuration ------------------------*/ 
  if(((PeriphClkInit->PeriphClockSelection) & RCC_PERIPHCLK_USART1) == RCC_PERIPHCLK_USART1)
 8005244:	682a      	ldr	r2, [r5, #0]
 8005246:	07d3      	lsls	r3, r2, #31
 8005248:	d506      	bpl.n	8005258 <HAL_RCCEx_PeriphCLKConfig+0x78>
  {
    /* Check the parameters */
    assert_param(IS_RCC_USART1CLKSOURCE(PeriphClkInit->Usart1ClockSelection));
    
    /* Configure the USART1 clock source */
    __HAL_RCC_USART1_CONFIG(PeriphClkInit->Usart1ClockSelection);
 800524a:	2003      	movs	r0, #3
 800524c:	4921      	ldr	r1, [pc, #132]	; (80052d4 <HAL_RCCEx_PeriphCLKConfig+0xf4>)
 800524e:	6b0b      	ldr	r3, [r1, #48]	; 0x30
 8005250:	4383      	bics	r3, r0
 8005252:	68a8      	ldr	r0, [r5, #8]
 8005254:	4303      	orrs	r3, r0
 8005256:	630b      	str	r3, [r1, #48]	; 0x30
#endif /* STM32F042x6 || STM32F048xx ||                */
       /* STM32F051x8 || STM32F058xx ||                */
       /* STM32F071xB || STM32F072xB || STM32F078xx || */
       /* STM32F091xC || STM32F098xx */
  
  return HAL_OK;
 8005258:	2000      	movs	r0, #0
  if(((PeriphClkInit->PeriphClockSelection) & RCC_PERIPHCLK_I2C1) == RCC_PERIPHCLK_I2C1)
 800525a:	0692      	lsls	r2, r2, #26
 800525c:	d517      	bpl.n	800528e <HAL_RCCEx_PeriphCLKConfig+0xae>
    __HAL_RCC_I2C1_CONFIG(PeriphClkInit->I2c1ClockSelection);
 800525e:	2110      	movs	r1, #16
 8005260:	4a1c      	ldr	r2, [pc, #112]	; (80052d4 <HAL_RCCEx_PeriphCLKConfig+0xf4>)
 8005262:	6b13      	ldr	r3, [r2, #48]	; 0x30
 8005264:	438b      	bics	r3, r1
 8005266:	68e9      	ldr	r1, [r5, #12]
 8005268:	430b      	orrs	r3, r1
 800526a:	6313      	str	r3, [r2, #48]	; 0x30
 800526c:	e00f      	b.n	800528e <HAL_RCCEx_PeriphCLKConfig+0xae>
      SET_BIT(PWR->CR, PWR_CR_DBP);
 800526e:	6833      	ldr	r3, [r6, #0]
 8005270:	433b      	orrs	r3, r7
 8005272:	6033      	str	r3, [r6, #0]
      tickstart = HAL_GetTick();
 8005274:	f7ff fa7e 	bl	8004774 <HAL_GetTick>
 8005278:	9001      	str	r0, [sp, #4]
      while(HAL_IS_BIT_CLR(PWR->CR, PWR_CR_DBP))
 800527a:	6833      	ldr	r3, [r6, #0]
 800527c:	423b      	tst	r3, r7
 800527e:	d1cc      	bne.n	800521a <HAL_RCCEx_PeriphCLKConfig+0x3a>
        if((HAL_GetTick() - tickstart) > RCC_DBP_TIMEOUT_VALUE)
 8005280:	f7ff fa78 	bl	8004774 <HAL_GetTick>
 8005284:	9b01      	ldr	r3, [sp, #4]
 8005286:	1ac0      	subs	r0, r0, r3
 8005288:	2864      	cmp	r0, #100	; 0x64
 800528a:	d9f6      	bls.n	800527a <HAL_RCCEx_PeriphCLKConfig+0x9a>
          return HAL_TIMEOUT;
 800528c:	2003      	movs	r0, #3
}
 800528e:	b005      	add	sp, #20
 8005290:	bdf0      	pop	{r4, r5, r6, r7, pc}
    if((temp_reg != 0x00000000U) && (temp_reg != (PeriphClkInit->RTCClockSelection & RCC_BDCR_RTCSEL)))
 8005292:	4013      	ands	r3, r2
 8005294:	4283      	cmp	r3, r0
 8005296:	d0c9      	beq.n	800522c <HAL_RCCEx_PeriphCLKConfig+0x4c>
      __HAL_RCC_BACKUPRESET_FORCE();
 8005298:	2280      	movs	r2, #128	; 0x80
      temp_reg = (RCC->BDCR & ~(RCC_BDCR_RTCSEL));
 800529a:	6a23      	ldr	r3, [r4, #32]
      __HAL_RCC_BACKUPRESET_FORCE();
 800529c:	6a20      	ldr	r0, [r4, #32]
      temp_reg = (RCC->BDCR & ~(RCC_BDCR_RTCSEL));
 800529e:	0019      	movs	r1, r3
      __HAL_RCC_BACKUPRESET_FORCE();
 80052a0:	0252      	lsls	r2, r2, #9
 80052a2:	4302      	orrs	r2, r0
 80052a4:	6222      	str	r2, [r4, #32]
      __HAL_RCC_BACKUPRESET_RELEASE();
 80052a6:	6a22      	ldr	r2, [r4, #32]
 80052a8:	480e      	ldr	r0, [pc, #56]	; (80052e4 <HAL_RCCEx_PeriphCLKConfig+0x104>)
      temp_reg = (RCC->BDCR & ~(RCC_BDCR_RTCSEL));
 80052aa:	4031      	ands	r1, r6
      __HAL_RCC_BACKUPRESET_RELEASE();
 80052ac:	4002      	ands	r2, r0
 80052ae:	6222      	str	r2, [r4, #32]
      RCC->BDCR = temp_reg;
 80052b0:	6221      	str	r1, [r4, #32]
      if (HAL_IS_BIT_SET(temp_reg, RCC_BDCR_LSEON))
 80052b2:	07db      	lsls	r3, r3, #31
 80052b4:	d5ba      	bpl.n	800522c <HAL_RCCEx_PeriphCLKConfig+0x4c>
        tickstart = HAL_GetTick();
 80052b6:	f7ff fa5d 	bl	8004774 <HAL_GetTick>
 80052ba:	0007      	movs	r7, r0
        while(__HAL_RCC_GET_FLAG(RCC_FLAG_LSERDY) == RESET)
 80052bc:	2202      	movs	r2, #2
 80052be:	6a23      	ldr	r3, [r4, #32]
 80052c0:	4213      	tst	r3, r2
 80052c2:	d1b3      	bne.n	800522c <HAL_RCCEx_PeriphCLKConfig+0x4c>
          if((HAL_GetTick() - tickstart) > RCC_LSE_TIMEOUT_VALUE)
 80052c4:	f7ff fa56 	bl	8004774 <HAL_GetTick>
 80052c8:	4b07      	ldr	r3, [pc, #28]	; (80052e8 <HAL_RCCEx_PeriphCLKConfig+0x108>)
 80052ca:	1bc0      	subs	r0, r0, r7
 80052cc:	4298      	cmp	r0, r3
 80052ce:	d9f5      	bls.n	80052bc <HAL_RCCEx_PeriphCLKConfig+0xdc>
 80052d0:	e7dc      	b.n	800528c <HAL_RCCEx_PeriphCLKConfig+0xac>
 80052d2:	46c0      	nop			; (mov r8, r8)
 80052d4:	40021000 	.word	0x40021000
 80052d8:	40007000 	.word	0x40007000
 80052dc:	fffffcff 	.word	0xfffffcff
 80052e0:	efffffff 	.word	0xefffffff
 80052e4:	fffeffff 	.word	0xfffeffff
 80052e8:	00001388 	.word	0x00001388

080052ec <TIM_OC1_SetConfig>:
  uint32_t tmpccmrx;
  uint32_t tmpccer;
  uint32_t tmpcr2;

  /* Disable the Channel 1: Reset the CC1E Bit */
  TIMx->CCER &= ~TIM_CCER_CC1E;
 80052ec:	2201      	movs	r2, #1
 80052ee:	6a03      	ldr	r3, [r0, #32]
{
 80052f0:	b570      	push	{r4, r5, r6, lr}
  TIMx->CCER &= ~TIM_CCER_CC1E;
 80052f2:	4393      	bics	r3, r2
 80052f4:	6203      	str	r3, [r0, #32]

  /* Get the TIMx CCER register value */
  tmpccer = TIMx->CCER;
 80052f6:	6a03      	ldr	r3, [r0, #32]
  /* Get the TIMx CR2 register value */
  tmpcr2 =  TIMx->CR2;
 80052f8:	6844      	ldr	r4, [r0, #4]

  /* Get the TIMx CCMR1 register value */
  tmpccmrx = TIMx->CCMR1;
 80052fa:	6985      	ldr	r5, [r0, #24]

  /* Reset the Output Compare Mode Bits */
  tmpccmrx &= ~TIM_CCMR1_OC1M;
  tmpccmrx &= ~TIM_CCMR1_CC1S;
 80052fc:	3272      	adds	r2, #114	; 0x72
 80052fe:	4395      	bics	r5, r2
  /* Select the Output Compare Mode */
  tmpccmrx |= OC_Config->OCMode;
 8005300:	680a      	ldr	r2, [r1, #0]
 8005302:	4315      	orrs	r5, r2

  /* Reset the Output Polarity level */
  tmpccer &= ~TIM_CCER_CC1P;
 8005304:	2202      	movs	r2, #2
 8005306:	4393      	bics	r3, r2
  /* Set the Output Compare Polarity */
  tmpccer |= OC_Config->OCPolarity;
 8005308:	688a      	ldr	r2, [r1, #8]
 800530a:	4313      	orrs	r3, r2

  if (IS_TIM_CCXN_INSTANCE(TIMx, TIM_CHANNEL_1))
 800530c:	4a11      	ldr	r2, [pc, #68]	; (8005354 <TIM_OC1_SetConfig+0x68>)
 800530e:	4290      	cmp	r0, r2
 8005310:	d005      	beq.n	800531e <TIM_OC1_SetConfig+0x32>
 8005312:	4e11      	ldr	r6, [pc, #68]	; (8005358 <TIM_OC1_SetConfig+0x6c>)
 8005314:	42b0      	cmp	r0, r6
 8005316:	d002      	beq.n	800531e <TIM_OC1_SetConfig+0x32>
 8005318:	4e10      	ldr	r6, [pc, #64]	; (800535c <TIM_OC1_SetConfig+0x70>)
 800531a:	42b0      	cmp	r0, r6
 800531c:	d113      	bne.n	8005346 <TIM_OC1_SetConfig+0x5a>
  {
    /* Check parameters */
    assert_param(IS_TIM_OCN_POLARITY(OC_Config->OCNPolarity));

    /* Reset the Output N Polarity level */
    tmpccer &= ~TIM_CCER_CC1NP;
 800531e:	2608      	movs	r6, #8
 8005320:	43b3      	bics	r3, r6
    /* Set the Output N Polarity */
    tmpccer |= OC_Config->OCNPolarity;
 8005322:	68ce      	ldr	r6, [r1, #12]
 8005324:	4333      	orrs	r3, r6
    /* Reset the Output N State */
    tmpccer &= ~TIM_CCER_CC1NE;
 8005326:	2604      	movs	r6, #4
 8005328:	43b3      	bics	r3, r6
  }

  if (IS_TIM_BREAK_INSTANCE(TIMx))
 800532a:	4290      	cmp	r0, r2
 800532c:	d005      	beq.n	800533a <TIM_OC1_SetConfig+0x4e>
 800532e:	4a0a      	ldr	r2, [pc, #40]	; (8005358 <TIM_OC1_SetConfig+0x6c>)
 8005330:	4290      	cmp	r0, r2
 8005332:	d002      	beq.n	800533a <TIM_OC1_SetConfig+0x4e>
 8005334:	4a09      	ldr	r2, [pc, #36]	; (800535c <TIM_OC1_SetConfig+0x70>)
 8005336:	4290      	cmp	r0, r2
 8005338:	d105      	bne.n	8005346 <TIM_OC1_SetConfig+0x5a>
    assert_param(IS_TIM_OCNIDLE_STATE(OC_Config->OCNIdleState));
    assert_param(IS_TIM_OCIDLE_STATE(OC_Config->OCIdleState));

    /* Reset the Output Compare and Output Compare N IDLE State */
    tmpcr2 &= ~TIM_CR2_OIS1;
    tmpcr2 &= ~TIM_CR2_OIS1N;
 800533a:	4a09      	ldr	r2, [pc, #36]	; (8005360 <TIM_OC1_SetConfig+0x74>)
    /* Set the Output Idle state */
    tmpcr2 |= OC_Config->OCIdleState;
    /* Set the Output N Idle state */
    tmpcr2 |= OC_Config->OCNIdleState;
 800533c:	698e      	ldr	r6, [r1, #24]
    tmpcr2 &= ~TIM_CR2_OIS1N;
 800533e:	4022      	ands	r2, r4
    tmpcr2 |= OC_Config->OCNIdleState;
 8005340:	694c      	ldr	r4, [r1, #20]
 8005342:	4334      	orrs	r4, r6
 8005344:	4314      	orrs	r4, r2

  /* Write to TIMx CCMR1 */
  TIMx->CCMR1 = tmpccmrx;

  /* Set the Capture Compare Register value */
  TIMx->CCR1 = OC_Config->Pulse;
 8005346:	684a      	ldr	r2, [r1, #4]
  TIMx->CR2 = tmpcr2;
 8005348:	6044      	str	r4, [r0, #4]
  TIMx->CCMR1 = tmpccmrx;
 800534a:	6185      	str	r5, [r0, #24]
  TIMx->CCR1 = OC_Config->Pulse;
 800534c:	6342      	str	r2, [r0, #52]	; 0x34

  /* Write to TIMx CCER */
  TIMx->CCER = tmpccer;
 800534e:	6203      	str	r3, [r0, #32]
}
 8005350:	bd70      	pop	{r4, r5, r6, pc}
 8005352:	46c0      	nop			; (mov r8, r8)
 8005354:	40012c00 	.word	0x40012c00
 8005358:	40014400 	.word	0x40014400
 800535c:	40014800 	.word	0x40014800
 8005360:	fffffcff 	.word	0xfffffcff

08005364 <TIM_OC3_SetConfig>:
  uint32_t tmpccmrx;
  uint32_t tmpccer;
  uint32_t tmpcr2;

  /* Disable the Channel 3: Reset the CC2E Bit */
  TIMx->CCER &= ~TIM_CCER_CC3E;
 8005364:	6a03      	ldr	r3, [r0, #32]
 8005366:	4a17      	ldr	r2, [pc, #92]	; (80053c4 <TIM_OC3_SetConfig+0x60>)
{
 8005368:	b570      	push	{r4, r5, r6, lr}
  TIMx->CCER &= ~TIM_CCER_CC3E;
 800536a:	4013      	ands	r3, r2
 800536c:	6203      	str	r3, [r0, #32]
  /* Get the TIMx CCMR2 register value */
  tmpccmrx = TIMx->CCMR2;

  /* Reset the Output Compare mode and Capture/Compare selection Bits */
  tmpccmrx &= ~TIM_CCMR2_OC3M;
  tmpccmrx &= ~TIM_CCMR2_CC3S;
 800536e:	2373      	movs	r3, #115	; 0x73
  tmpccer = TIMx->CCER;
 8005370:	6a05      	ldr	r5, [r0, #32]
  tmpcr2 =  TIMx->CR2;
 8005372:	6842      	ldr	r2, [r0, #4]
  tmpccmrx = TIMx->CCMR2;
 8005374:	69c4      	ldr	r4, [r0, #28]
  tmpccmrx &= ~TIM_CCMR2_CC3S;
 8005376:	439c      	bics	r4, r3
  /* Select the Output Compare Mode */
  tmpccmrx |= OC_Config->OCMode;
 8005378:	680b      	ldr	r3, [r1, #0]
 800537a:	431c      	orrs	r4, r3

  /* Reset the Output Polarity level */
  tmpccer &= ~TIM_CCER_CC3P;
 800537c:	4b12      	ldr	r3, [pc, #72]	; (80053c8 <TIM_OC3_SetConfig+0x64>)
 800537e:	401d      	ands	r5, r3
  /* Set the Output Compare Polarity */
  tmpccer |= (OC_Config->OCPolarity << 8U);
 8005380:	688b      	ldr	r3, [r1, #8]
 8005382:	021b      	lsls	r3, r3, #8
 8005384:	432b      	orrs	r3, r5

  if (IS_TIM_CCXN_INSTANCE(TIMx, TIM_CHANNEL_3))
 8005386:	4d11      	ldr	r5, [pc, #68]	; (80053cc <TIM_OC3_SetConfig+0x68>)
 8005388:	42a8      	cmp	r0, r5
 800538a:	d10e      	bne.n	80053aa <TIM_OC3_SetConfig+0x46>
  {
    assert_param(IS_TIM_OCN_POLARITY(OC_Config->OCNPolarity));

    /* Reset the Output N Polarity level */
    tmpccer &= ~TIM_CCER_CC3NP;
 800538c:	4d10      	ldr	r5, [pc, #64]	; (80053d0 <TIM_OC3_SetConfig+0x6c>)
 800538e:	401d      	ands	r5, r3
    /* Set the Output N Polarity */
    tmpccer |= (OC_Config->OCNPolarity << 8U);
 8005390:	68cb      	ldr	r3, [r1, #12]
 8005392:	021b      	lsls	r3, r3, #8
 8005394:	432b      	orrs	r3, r5
    /* Reset the Output N State */
    tmpccer &= ~TIM_CCER_CC3NE;
 8005396:	4d0f      	ldr	r5, [pc, #60]	; (80053d4 <TIM_OC3_SetConfig+0x70>)
 8005398:	402b      	ands	r3, r5
    assert_param(IS_TIM_OCNIDLE_STATE(OC_Config->OCNIdleState));
    assert_param(IS_TIM_OCIDLE_STATE(OC_Config->OCIdleState));

    /* Reset the Output Compare and Output Compare N IDLE State */
    tmpcr2 &= ~TIM_CR2_OIS3;
    tmpcr2 &= ~TIM_CR2_OIS3N;
 800539a:	4d0f      	ldr	r5, [pc, #60]	; (80053d8 <TIM_OC3_SetConfig+0x74>)
    /* Set the Output Idle state */
    tmpcr2 |= (OC_Config->OCIdleState << 4U);
 800539c:	694e      	ldr	r6, [r1, #20]
    tmpcr2 &= ~TIM_CR2_OIS3N;
 800539e:	4015      	ands	r5, r2
    /* Set the Output N Idle state */
    tmpcr2 |= (OC_Config->OCNIdleState << 4U);
 80053a0:	698a      	ldr	r2, [r1, #24]
 80053a2:	4332      	orrs	r2, r6
 80053a4:	0112      	lsls	r2, r2, #4
 80053a6:	432a      	orrs	r2, r5
 80053a8:	e005      	b.n	80053b6 <TIM_OC3_SetConfig+0x52>
  if (IS_TIM_BREAK_INSTANCE(TIMx))
 80053aa:	4d0c      	ldr	r5, [pc, #48]	; (80053dc <TIM_OC3_SetConfig+0x78>)
 80053ac:	42a8      	cmp	r0, r5
 80053ae:	d0f4      	beq.n	800539a <TIM_OC3_SetConfig+0x36>
 80053b0:	4d0b      	ldr	r5, [pc, #44]	; (80053e0 <TIM_OC3_SetConfig+0x7c>)
 80053b2:	42a8      	cmp	r0, r5
 80053b4:	d0f1      	beq.n	800539a <TIM_OC3_SetConfig+0x36>
  }

  /* Write to TIMx CR2 */
  TIMx->CR2 = tmpcr2;
 80053b6:	6042      	str	r2, [r0, #4]

  /* Write to TIMx CCMR2 */
  TIMx->CCMR2 = tmpccmrx;

  /* Set the Capture Compare Register value */
  TIMx->CCR3 = OC_Config->Pulse;
 80053b8:	684a      	ldr	r2, [r1, #4]
  TIMx->CCMR2 = tmpccmrx;
 80053ba:	61c4      	str	r4, [r0, #28]
  TIMx->CCR3 = OC_Config->Pulse;
 80053bc:	63c2      	str	r2, [r0, #60]	; 0x3c

  /* Write to TIMx CCER */
  TIMx->CCER = tmpccer;
 80053be:	6203      	str	r3, [r0, #32]
}
 80053c0:	bd70      	pop	{r4, r5, r6, pc}
 80053c2:	46c0      	nop			; (mov r8, r8)
 80053c4:	fffffeff 	.word	0xfffffeff
 80053c8:	fffffdff 	.word	0xfffffdff
 80053cc:	40012c00 	.word	0x40012c00
 80053d0:	fffff7ff 	.word	0xfffff7ff
 80053d4:	fffffbff 	.word	0xfffffbff
 80053d8:	ffffcfff 	.word	0xffffcfff
 80053dc:	40014400 	.word	0x40014400
 80053e0:	40014800 	.word	0x40014800

080053e4 <TIM_OC4_SetConfig>:
  uint32_t tmpccmrx;
  uint32_t tmpccer;
  uint32_t tmpcr2;

  /* Disable the Channel 4: Reset the CC4E Bit */
  TIMx->CCER &= ~TIM_CCER_CC4E;
 80053e4:	6a03      	ldr	r3, [r0, #32]
 80053e6:	4a12      	ldr	r2, [pc, #72]	; (8005430 <TIM_OC4_SetConfig+0x4c>)
{
 80053e8:	b530      	push	{r4, r5, lr}
  TIMx->CCER &= ~TIM_CCER_CC4E;
 80053ea:	4013      	ands	r3, r2
 80053ec:	6203      	str	r3, [r0, #32]

  /* Get the TIMx CCER register value */
  tmpccer = TIMx->CCER;
 80053ee:	6a04      	ldr	r4, [r0, #32]
  /* Get the TIMx CCMR2 register value */
  tmpccmrx = TIMx->CCMR2;

  /* Reset the Output Compare mode and Capture/Compare selection Bits */
  tmpccmrx &= ~TIM_CCMR2_OC4M;
  tmpccmrx &= ~TIM_CCMR2_CC4S;
 80053f0:	4d10      	ldr	r5, [pc, #64]	; (8005434 <TIM_OC4_SetConfig+0x50>)
  tmpcr2 =  TIMx->CR2;
 80053f2:	6843      	ldr	r3, [r0, #4]
  tmpccmrx = TIMx->CCMR2;
 80053f4:	69c2      	ldr	r2, [r0, #28]
  tmpccmrx &= ~TIM_CCMR2_CC4S;
 80053f6:	402a      	ands	r2, r5

  /* Select the Output Compare Mode */
  tmpccmrx |= (OC_Config->OCMode << 8U);
 80053f8:	680d      	ldr	r5, [r1, #0]
 80053fa:	022d      	lsls	r5, r5, #8
 80053fc:	4315      	orrs	r5, r2

  /* Reset the Output Polarity level */
  tmpccer &= ~TIM_CCER_CC4P;
 80053fe:	4a0e      	ldr	r2, [pc, #56]	; (8005438 <TIM_OC4_SetConfig+0x54>)
 8005400:	4014      	ands	r4, r2
  /* Set the Output Compare Polarity */
  tmpccer |= (OC_Config->OCPolarity << 12U);
 8005402:	688a      	ldr	r2, [r1, #8]
 8005404:	0312      	lsls	r2, r2, #12
 8005406:	4322      	orrs	r2, r4

  if (IS_TIM_BREAK_INSTANCE(TIMx))
 8005408:	4c0c      	ldr	r4, [pc, #48]	; (800543c <TIM_OC4_SetConfig+0x58>)
 800540a:	42a0      	cmp	r0, r4
 800540c:	d005      	beq.n	800541a <TIM_OC4_SetConfig+0x36>
 800540e:	4c0c      	ldr	r4, [pc, #48]	; (8005440 <TIM_OC4_SetConfig+0x5c>)
 8005410:	42a0      	cmp	r0, r4
 8005412:	d002      	beq.n	800541a <TIM_OC4_SetConfig+0x36>
 8005414:	4c0b      	ldr	r4, [pc, #44]	; (8005444 <TIM_OC4_SetConfig+0x60>)
 8005416:	42a0      	cmp	r0, r4
 8005418:	d104      	bne.n	8005424 <TIM_OC4_SetConfig+0x40>
  {
    /* Check parameters */
    assert_param(IS_TIM_OCIDLE_STATE(OC_Config->OCIdleState));

    /* Reset the Output Compare IDLE State */
    tmpcr2 &= ~TIM_CR2_OIS4;
 800541a:	4c0b      	ldr	r4, [pc, #44]	; (8005448 <TIM_OC4_SetConfig+0x64>)
 800541c:	401c      	ands	r4, r3

    /* Set the Output Idle state */
    tmpcr2 |= (OC_Config->OCIdleState << 6U);
 800541e:	694b      	ldr	r3, [r1, #20]
 8005420:	019b      	lsls	r3, r3, #6
 8005422:	4323      	orrs	r3, r4
  }

  /* Write to TIMx CR2 */
  TIMx->CR2 = tmpcr2;
 8005424:	6043      	str	r3, [r0, #4]

  /* Write to TIMx CCMR2 */
  TIMx->CCMR2 = tmpccmrx;

  /* Set the Capture Compare Register value */
  TIMx->CCR4 = OC_Config->Pulse;
 8005426:	684b      	ldr	r3, [r1, #4]
  TIMx->CCMR2 = tmpccmrx;
 8005428:	61c5      	str	r5, [r0, #28]
  TIMx->CCR4 = OC_Config->Pulse;
 800542a:	6403      	str	r3, [r0, #64]	; 0x40

  /* Write to TIMx CCER */
  TIMx->CCER = tmpccer;
 800542c:	6202      	str	r2, [r0, #32]
}
 800542e:	bd30      	pop	{r4, r5, pc}
 8005430:	ffffefff 	.word	0xffffefff
 8005434:	ffff8cff 	.word	0xffff8cff
 8005438:	ffffdfff 	.word	0xffffdfff
 800543c:	40012c00 	.word	0x40012c00
 8005440:	40014400 	.word	0x40014400
 8005444:	40014800 	.word	0x40014800
 8005448:	ffffbfff 	.word	0xffffbfff

0800544c <TIM_Base_SetConfig>:
  if (IS_TIM_COUNTER_MODE_SELECT_INSTANCE(TIMx))
 800544c:	4a1d      	ldr	r2, [pc, #116]	; (80054c4 <TIM_Base_SetConfig+0x78>)
{
 800544e:	b510      	push	{r4, lr}
  tmpcr1 = TIMx->CR1;
 8005450:	6803      	ldr	r3, [r0, #0]
  if (IS_TIM_COUNTER_MODE_SELECT_INSTANCE(TIMx))
 8005452:	4290      	cmp	r0, r2
 8005454:	d006      	beq.n	8005464 <TIM_Base_SetConfig+0x18>
 8005456:	2480      	movs	r4, #128	; 0x80
 8005458:	05e4      	lsls	r4, r4, #23
 800545a:	42a0      	cmp	r0, r4
 800545c:	d002      	beq.n	8005464 <TIM_Base_SetConfig+0x18>
 800545e:	4c1a      	ldr	r4, [pc, #104]	; (80054c8 <TIM_Base_SetConfig+0x7c>)
 8005460:	42a0      	cmp	r0, r4
 8005462:	d10c      	bne.n	800547e <TIM_Base_SetConfig+0x32>
    tmpcr1 &= ~(TIM_CR1_DIR | TIM_CR1_CMS);
 8005464:	2470      	movs	r4, #112	; 0x70
 8005466:	43a3      	bics	r3, r4
    tmpcr1 |= Structure->CounterMode;
 8005468:	684c      	ldr	r4, [r1, #4]
 800546a:	4323      	orrs	r3, r4
  if (IS_TIM_CLOCK_DIVISION_INSTANCE(TIMx))
 800546c:	4290      	cmp	r0, r2
 800546e:	d00f      	beq.n	8005490 <TIM_Base_SetConfig+0x44>
 8005470:	2480      	movs	r4, #128	; 0x80
 8005472:	05e4      	lsls	r4, r4, #23
 8005474:	42a0      	cmp	r0, r4
 8005476:	d00b      	beq.n	8005490 <TIM_Base_SetConfig+0x44>
 8005478:	4c13      	ldr	r4, [pc, #76]	; (80054c8 <TIM_Base_SetConfig+0x7c>)
 800547a:	42a0      	cmp	r0, r4
 800547c:	d008      	beq.n	8005490 <TIM_Base_SetConfig+0x44>
 800547e:	4c13      	ldr	r4, [pc, #76]	; (80054cc <TIM_Base_SetConfig+0x80>)
 8005480:	42a0      	cmp	r0, r4
 8005482:	d005      	beq.n	8005490 <TIM_Base_SetConfig+0x44>
 8005484:	4c12      	ldr	r4, [pc, #72]	; (80054d0 <TIM_Base_SetConfig+0x84>)
 8005486:	42a0      	cmp	r0, r4
 8005488:	d002      	beq.n	8005490 <TIM_Base_SetConfig+0x44>
 800548a:	4c12      	ldr	r4, [pc, #72]	; (80054d4 <TIM_Base_SetConfig+0x88>)
 800548c:	42a0      	cmp	r0, r4
 800548e:	d103      	bne.n	8005498 <TIM_Base_SetConfig+0x4c>
    tmpcr1 &= ~TIM_CR1_CKD;
 8005490:	4c11      	ldr	r4, [pc, #68]	; (80054d8 <TIM_Base_SetConfig+0x8c>)
 8005492:	401c      	ands	r4, r3
    tmpcr1 |= (uint32_t)Structure->ClockDivision;
 8005494:	68cb      	ldr	r3, [r1, #12]
 8005496:	4323      	orrs	r3, r4
  MODIFY_REG(tmpcr1, TIM_CR1_ARPE, Structure->AutoReloadPreload);
 8005498:	2480      	movs	r4, #128	; 0x80
 800549a:	43a3      	bics	r3, r4
 800549c:	694c      	ldr	r4, [r1, #20]
 800549e:	4323      	orrs	r3, r4
  TIMx->CR1 = tmpcr1;
 80054a0:	6003      	str	r3, [r0, #0]
  TIMx->ARR = (uint32_t)Structure->Period ;
 80054a2:	688b      	ldr	r3, [r1, #8]
 80054a4:	62c3      	str	r3, [r0, #44]	; 0x2c
  TIMx->PSC = Structure->Prescaler;
 80054a6:	680b      	ldr	r3, [r1, #0]
 80054a8:	6283      	str	r3, [r0, #40]	; 0x28
  if (IS_TIM_REPETITION_COUNTER_INSTANCE(TIMx))
 80054aa:	4290      	cmp	r0, r2
 80054ac:	d005      	beq.n	80054ba <TIM_Base_SetConfig+0x6e>
 80054ae:	4b08      	ldr	r3, [pc, #32]	; (80054d0 <TIM_Base_SetConfig+0x84>)
 80054b0:	4298      	cmp	r0, r3
 80054b2:	d002      	beq.n	80054ba <TIM_Base_SetConfig+0x6e>
 80054b4:	4b07      	ldr	r3, [pc, #28]	; (80054d4 <TIM_Base_SetConfig+0x88>)
 80054b6:	4298      	cmp	r0, r3
 80054b8:	d101      	bne.n	80054be <TIM_Base_SetConfig+0x72>
    TIMx->RCR = Structure->RepetitionCounter;
 80054ba:	690b      	ldr	r3, [r1, #16]
 80054bc:	6303      	str	r3, [r0, #48]	; 0x30
  TIMx->EGR = TIM_EGR_UG;
 80054be:	2301      	movs	r3, #1
 80054c0:	6143      	str	r3, [r0, #20]
}
 80054c2:	bd10      	pop	{r4, pc}
 80054c4:	40012c00 	.word	0x40012c00
 80054c8:	40000400 	.word	0x40000400
 80054cc:	40002000 	.word	0x40002000
 80054d0:	40014400 	.word	0x40014400
 80054d4:	40014800 	.word	0x40014800
 80054d8:	fffffcff 	.word	0xfffffcff

080054dc <HAL_TIM_Base_Init>:
{
 80054dc:	b570      	push	{r4, r5, r6, lr}
 80054de:	0004      	movs	r4, r0
    return HAL_ERROR;
 80054e0:	2001      	movs	r0, #1
  if (htim == NULL)
 80054e2:	2c00      	cmp	r4, #0
 80054e4:	d021      	beq.n	800552a <HAL_TIM_Base_Init+0x4e>
  if (htim->State == HAL_TIM_STATE_RESET)
 80054e6:	0025      	movs	r5, r4
 80054e8:	353d      	adds	r5, #61	; 0x3d
 80054ea:	782b      	ldrb	r3, [r5, #0]
 80054ec:	b2da      	uxtb	r2, r3
 80054ee:	2b00      	cmp	r3, #0
 80054f0:	d105      	bne.n	80054fe <HAL_TIM_Base_Init+0x22>
    htim->Lock = HAL_UNLOCKED;
 80054f2:	0023      	movs	r3, r4
 80054f4:	333c      	adds	r3, #60	; 0x3c
    HAL_TIM_Base_MspInit(htim);
 80054f6:	0020      	movs	r0, r4
    htim->Lock = HAL_UNLOCKED;
 80054f8:	701a      	strb	r2, [r3, #0]
    HAL_TIM_Base_MspInit(htim);
 80054fa:	f7fe fea3 	bl	8004244 <HAL_TIM_Base_MspInit>
  htim->State = HAL_TIM_STATE_BUSY;
 80054fe:	2302      	movs	r3, #2
 8005500:	702b      	strb	r3, [r5, #0]
  TIM_Base_SetConfig(htim->Instance, &htim->Init);
 8005502:	6820      	ldr	r0, [r4, #0]
 8005504:	1d21      	adds	r1, r4, #4
 8005506:	f7ff ffa1 	bl	800544c <TIM_Base_SetConfig>
  htim->DMABurstState = HAL_DMA_BURST_STATE_READY;
 800550a:	0022      	movs	r2, r4
 800550c:	2301      	movs	r3, #1
  return HAL_OK;
 800550e:	2000      	movs	r0, #0
  htim->DMABurstState = HAL_DMA_BURST_STATE_READY;
 8005510:	3246      	adds	r2, #70	; 0x46
 8005512:	7013      	strb	r3, [r2, #0]
  TIM_CHANNEL_N_STATE_SET_ALL(htim, HAL_TIM_CHANNEL_STATE_READY);
 8005514:	3445      	adds	r4, #69	; 0x45
  TIM_CHANNEL_STATE_SET_ALL(htim, HAL_TIM_CHANNEL_STATE_READY);
 8005516:	3a08      	subs	r2, #8
 8005518:	7013      	strb	r3, [r2, #0]
 800551a:	7053      	strb	r3, [r2, #1]
 800551c:	7093      	strb	r3, [r2, #2]
 800551e:	70d3      	strb	r3, [r2, #3]
  TIM_CHANNEL_N_STATE_SET_ALL(htim, HAL_TIM_CHANNEL_STATE_READY);
 8005520:	7113      	strb	r3, [r2, #4]
 8005522:	7153      	strb	r3, [r2, #5]
 8005524:	7193      	strb	r3, [r2, #6]
 8005526:	7023      	strb	r3, [r4, #0]
  htim->State = HAL_TIM_STATE_READY;
 8005528:	702b      	strb	r3, [r5, #0]
}
 800552a:	bd70      	pop	{r4, r5, r6, pc}

0800552c <HAL_TIM_PWM_Init>:
{
 800552c:	b570      	push	{r4, r5, r6, lr}
 800552e:	0004      	movs	r4, r0
    return HAL_ERROR;
 8005530:	2001      	movs	r0, #1
  if (htim == NULL)
 8005532:	2c00      	cmp	r4, #0
 8005534:	d021      	beq.n	800557a <HAL_TIM_PWM_Init+0x4e>
  if (htim->State == HAL_TIM_STATE_RESET)
 8005536:	0025      	movs	r5, r4
 8005538:	353d      	adds	r5, #61	; 0x3d
 800553a:	782b      	ldrb	r3, [r5, #0]
 800553c:	b2da      	uxtb	r2, r3
 800553e:	2b00      	cmp	r3, #0
 8005540:	d105      	bne.n	800554e <HAL_TIM_PWM_Init+0x22>
    htim->Lock = HAL_UNLOCKED;
 8005542:	0023      	movs	r3, r4
 8005544:	333c      	adds	r3, #60	; 0x3c
    HAL_TIM_PWM_MspInit(htim);
 8005546:	0020      	movs	r0, r4
    htim->Lock = HAL_UNLOCKED;
 8005548:	701a      	strb	r2, [r3, #0]
    HAL_TIM_PWM_MspInit(htim);
 800554a:	f7fe fe05 	bl	8004158 <HAL_TIM_PWM_MspInit>
  htim->State = HAL_TIM_STATE_BUSY;
 800554e:	2302      	movs	r3, #2
 8005550:	702b      	strb	r3, [r5, #0]
  TIM_Base_SetConfig(htim->Instance, &htim->Init);
 8005552:	6820      	ldr	r0, [r4, #0]
 8005554:	1d21      	adds	r1, r4, #4
 8005556:	f7ff ff79 	bl	800544c <TIM_Base_SetConfig>
  htim->DMABurstState = HAL_DMA_BURST_STATE_READY;
 800555a:	0022      	movs	r2, r4
 800555c:	2301      	movs	r3, #1
  return HAL_OK;
 800555e:	2000      	movs	r0, #0
  htim->DMABurstState = HAL_DMA_BURST_STATE_READY;
 8005560:	3246      	adds	r2, #70	; 0x46
 8005562:	7013      	strb	r3, [r2, #0]
  TIM_CHANNEL_N_STATE_SET_ALL(htim, HAL_TIM_CHANNEL_STATE_READY);
 8005564:	3445      	adds	r4, #69	; 0x45
  TIM_CHANNEL_STATE_SET_ALL(htim, HAL_TIM_CHANNEL_STATE_READY);
 8005566:	3a08      	subs	r2, #8
 8005568:	7013      	strb	r3, [r2, #0]
 800556a:	7053      	strb	r3, [r2, #1]
 800556c:	7093      	strb	r3, [r2, #2]
 800556e:	70d3      	strb	r3, [r2, #3]
  TIM_CHANNEL_N_STATE_SET_ALL(htim, HAL_TIM_CHANNEL_STATE_READY);
 8005570:	7113      	strb	r3, [r2, #4]
 8005572:	7153      	strb	r3, [r2, #5]
 8005574:	7193      	strb	r3, [r2, #6]
 8005576:	7023      	strb	r3, [r4, #0]
  htim->State = HAL_TIM_STATE_READY;
 8005578:	702b      	strb	r3, [r5, #0]
}
 800557a:	bd70      	pop	{r4, r5, r6, pc}

0800557c <TIM_OC2_SetConfig>:
  TIMx->CCER &= ~TIM_CCER_CC2E;
 800557c:	2210      	movs	r2, #16
 800557e:	6a03      	ldr	r3, [r0, #32]
{
 8005580:	b570      	push	{r4, r5, r6, lr}
  TIMx->CCER &= ~TIM_CCER_CC2E;
 8005582:	4393      	bics	r3, r2
 8005584:	6203      	str	r3, [r0, #32]
  tmpccer = TIMx->CCER;
 8005586:	6a05      	ldr	r5, [r0, #32]
  tmpccmrx &= ~TIM_CCMR1_CC2S;
 8005588:	4c15      	ldr	r4, [pc, #84]	; (80055e0 <TIM_OC2_SetConfig+0x64>)
  tmpcr2 =  TIMx->CR2;
 800558a:	6843      	ldr	r3, [r0, #4]
  tmpccmrx = TIMx->CCMR1;
 800558c:	6982      	ldr	r2, [r0, #24]
  tmpccmrx &= ~TIM_CCMR1_CC2S;
 800558e:	4022      	ands	r2, r4
  tmpccmrx |= (OC_Config->OCMode << 8U);
 8005590:	680c      	ldr	r4, [r1, #0]
 8005592:	0224      	lsls	r4, r4, #8
 8005594:	4314      	orrs	r4, r2
  tmpccer &= ~TIM_CCER_CC2P;
 8005596:	2220      	movs	r2, #32
 8005598:	4395      	bics	r5, r2
  tmpccer |= (OC_Config->OCPolarity << 4U);
 800559a:	688a      	ldr	r2, [r1, #8]
 800559c:	0112      	lsls	r2, r2, #4
 800559e:	432a      	orrs	r2, r5
  if (IS_TIM_CCXN_INSTANCE(TIMx, TIM_CHANNEL_2))
 80055a0:	4d10      	ldr	r5, [pc, #64]	; (80055e4 <TIM_OC2_SetConfig+0x68>)
 80055a2:	42a8      	cmp	r0, r5
 80055a4:	d10f      	bne.n	80055c6 <TIM_OC2_SetConfig+0x4a>
    tmpccer &= ~TIM_CCER_CC2NP;
 80055a6:	2580      	movs	r5, #128	; 0x80
 80055a8:	43aa      	bics	r2, r5
 80055aa:	0016      	movs	r6, r2
    tmpccer |= (OC_Config->OCNPolarity << 4U);
 80055ac:	68ca      	ldr	r2, [r1, #12]
    tmpccer &= ~TIM_CCER_CC2NE;
 80055ae:	3d40      	subs	r5, #64	; 0x40
    tmpccer |= (OC_Config->OCNPolarity << 4U);
 80055b0:	0112      	lsls	r2, r2, #4
 80055b2:	4332      	orrs	r2, r6
    tmpccer &= ~TIM_CCER_CC2NE;
 80055b4:	43aa      	bics	r2, r5
    tmpcr2 &= ~TIM_CR2_OIS2N;
 80055b6:	4d0c      	ldr	r5, [pc, #48]	; (80055e8 <TIM_OC2_SetConfig+0x6c>)
    tmpcr2 |= (OC_Config->OCIdleState << 2U);
 80055b8:	694e      	ldr	r6, [r1, #20]
    tmpcr2 &= ~TIM_CR2_OIS2N;
 80055ba:	401d      	ands	r5, r3
    tmpcr2 |= (OC_Config->OCNIdleState << 2U);
 80055bc:	698b      	ldr	r3, [r1, #24]
 80055be:	4333      	orrs	r3, r6
 80055c0:	009b      	lsls	r3, r3, #2
 80055c2:	432b      	orrs	r3, r5
 80055c4:	e005      	b.n	80055d2 <TIM_OC2_SetConfig+0x56>
  if (IS_TIM_BREAK_INSTANCE(TIMx))
 80055c6:	4d09      	ldr	r5, [pc, #36]	; (80055ec <TIM_OC2_SetConfig+0x70>)
 80055c8:	42a8      	cmp	r0, r5
 80055ca:	d0f4      	beq.n	80055b6 <TIM_OC2_SetConfig+0x3a>
 80055cc:	4d08      	ldr	r5, [pc, #32]	; (80055f0 <TIM_OC2_SetConfig+0x74>)
 80055ce:	42a8      	cmp	r0, r5
 80055d0:	d0f1      	beq.n	80055b6 <TIM_OC2_SetConfig+0x3a>
  TIMx->CR2 = tmpcr2;
 80055d2:	6043      	str	r3, [r0, #4]
  TIMx->CCR2 = OC_Config->Pulse;
 80055d4:	684b      	ldr	r3, [r1, #4]
  TIMx->CCMR1 = tmpccmrx;
 80055d6:	6184      	str	r4, [r0, #24]
  TIMx->CCR2 = OC_Config->Pulse;
 80055d8:	6383      	str	r3, [r0, #56]	; 0x38
  TIMx->CCER = tmpccer;
 80055da:	6202      	str	r2, [r0, #32]
}
 80055dc:	bd70      	pop	{r4, r5, r6, pc}
 80055de:	46c0      	nop			; (mov r8, r8)
 80055e0:	ffff8cff 	.word	0xffff8cff
 80055e4:	40012c00 	.word	0x40012c00
 80055e8:	fffff3ff 	.word	0xfffff3ff
 80055ec:	40014400 	.word	0x40014400
 80055f0:	40014800 	.word	0x40014800

080055f4 <HAL_TIM_PWM_ConfigChannel>:
{
 80055f4:	b5f8      	push	{r3, r4, r5, r6, r7, lr}
  __HAL_LOCK(htim);
 80055f6:	0006      	movs	r6, r0
 80055f8:	363c      	adds	r6, #60	; 0x3c
{
 80055fa:	0014      	movs	r4, r2
  __HAL_LOCK(htim);
 80055fc:	7832      	ldrb	r2, [r6, #0]
{
 80055fe:	0003      	movs	r3, r0
 8005600:	000d      	movs	r5, r1
  __HAL_LOCK(htim);
 8005602:	2002      	movs	r0, #2
 8005604:	2a01      	cmp	r2, #1
 8005606:	d00a      	beq.n	800561e <HAL_TIM_PWM_ConfigChannel+0x2a>
 8005608:	3801      	subs	r0, #1
 800560a:	7030      	strb	r0, [r6, #0]
  switch (Channel)
 800560c:	2c08      	cmp	r4, #8
 800560e:	d041      	beq.n	8005694 <HAL_TIM_PWM_ConfigChannel+0xa0>
 8005610:	d806      	bhi.n	8005620 <HAL_TIM_PWM_ConfigChannel+0x2c>
 8005612:	2c00      	cmp	r4, #0
 8005614:	d019      	beq.n	800564a <HAL_TIM_PWM_ConfigChannel+0x56>
 8005616:	2c04      	cmp	r4, #4
 8005618:	d029      	beq.n	800566e <HAL_TIM_PWM_ConfigChannel+0x7a>
  __HAL_UNLOCK(htim);
 800561a:	2300      	movs	r3, #0
 800561c:	7033      	strb	r3, [r6, #0]
}
 800561e:	bdf8      	pop	{r3, r4, r5, r6, r7, pc}
  switch (Channel)
 8005620:	2c0c      	cmp	r4, #12
 8005622:	d1fa      	bne.n	800561a <HAL_TIM_PWM_ConfigChannel+0x26>
      TIM_OC4_SetConfig(htim->Instance, sConfig);
 8005624:	681c      	ldr	r4, [r3, #0]
 8005626:	0020      	movs	r0, r4
 8005628:	f7ff fedc 	bl	80053e4 <TIM_OC4_SetConfig>
      htim->Instance->CCMR2 |= TIM_CCMR2_OC4PE;
 800562c:	2380      	movs	r3, #128	; 0x80
 800562e:	69e2      	ldr	r2, [r4, #28]
 8005630:	011b      	lsls	r3, r3, #4
 8005632:	4313      	orrs	r3, r2
 8005634:	61e3      	str	r3, [r4, #28]
      htim->Instance->CCMR2 &= ~TIM_CCMR2_OC4FE;
 8005636:	69e3      	ldr	r3, [r4, #28]
 8005638:	4a1e      	ldr	r2, [pc, #120]	; (80056b4 <HAL_TIM_PWM_ConfigChannel+0xc0>)
 800563a:	4013      	ands	r3, r2
 800563c:	61e3      	str	r3, [r4, #28]
      htim->Instance->CCMR2 |= sConfig->OCFastMode << 8U;
 800563e:	692b      	ldr	r3, [r5, #16]
 8005640:	69e2      	ldr	r2, [r4, #28]
 8005642:	021b      	lsls	r3, r3, #8
 8005644:	4313      	orrs	r3, r2
 8005646:	61e3      	str	r3, [r4, #28]
 8005648:	e00f      	b.n	800566a <HAL_TIM_PWM_ConfigChannel+0x76>
      TIM_OC1_SetConfig(htim->Instance, sConfig);
 800564a:	681f      	ldr	r7, [r3, #0]
 800564c:	0038      	movs	r0, r7
 800564e:	f7ff fe4d 	bl	80052ec <TIM_OC1_SetConfig>
      htim->Instance->CCMR1 |= TIM_CCMR1_OC1PE;
 8005652:	2308      	movs	r3, #8
 8005654:	69ba      	ldr	r2, [r7, #24]
 8005656:	4313      	orrs	r3, r2
      htim->Instance->CCMR1 &= ~TIM_CCMR1_OC1FE;
 8005658:	2204      	movs	r2, #4
      htim->Instance->CCMR1 |= TIM_CCMR1_OC1PE;
 800565a:	61bb      	str	r3, [r7, #24]
      htim->Instance->CCMR1 &= ~TIM_CCMR1_OC1FE;
 800565c:	69bb      	ldr	r3, [r7, #24]
 800565e:	4393      	bics	r3, r2
 8005660:	61bb      	str	r3, [r7, #24]
      htim->Instance->CCMR1 |= sConfig->OCFastMode;
 8005662:	69bb      	ldr	r3, [r7, #24]
 8005664:	692a      	ldr	r2, [r5, #16]
 8005666:	4313      	orrs	r3, r2
 8005668:	61bb      	str	r3, [r7, #24]
  HAL_StatusTypeDef status = HAL_OK;
 800566a:	2000      	movs	r0, #0
      break;
 800566c:	e7d5      	b.n	800561a <HAL_TIM_PWM_ConfigChannel+0x26>
      TIM_OC2_SetConfig(htim->Instance, sConfig);
 800566e:	681c      	ldr	r4, [r3, #0]
 8005670:	0020      	movs	r0, r4
 8005672:	f7ff ff83 	bl	800557c <TIM_OC2_SetConfig>
      htim->Instance->CCMR1 |= TIM_CCMR1_OC2PE;
 8005676:	2380      	movs	r3, #128	; 0x80
 8005678:	69a2      	ldr	r2, [r4, #24]
 800567a:	011b      	lsls	r3, r3, #4
 800567c:	4313      	orrs	r3, r2
 800567e:	61a3      	str	r3, [r4, #24]
      htim->Instance->CCMR1 &= ~TIM_CCMR1_OC2FE;
 8005680:	69a3      	ldr	r3, [r4, #24]
 8005682:	4a0c      	ldr	r2, [pc, #48]	; (80056b4 <HAL_TIM_PWM_ConfigChannel+0xc0>)
 8005684:	4013      	ands	r3, r2
 8005686:	61a3      	str	r3, [r4, #24]
      htim->Instance->CCMR1 |= sConfig->OCFastMode << 8U;
 8005688:	692b      	ldr	r3, [r5, #16]
 800568a:	69a2      	ldr	r2, [r4, #24]
 800568c:	021b      	lsls	r3, r3, #8
 800568e:	4313      	orrs	r3, r2
 8005690:	61a3      	str	r3, [r4, #24]
      break;
 8005692:	e7ea      	b.n	800566a <HAL_TIM_PWM_ConfigChannel+0x76>
      TIM_OC3_SetConfig(htim->Instance, sConfig);
 8005694:	681f      	ldr	r7, [r3, #0]
 8005696:	0038      	movs	r0, r7
 8005698:	f7ff fe64 	bl	8005364 <TIM_OC3_SetConfig>
      htim->Instance->CCMR2 &= ~TIM_CCMR2_OC3FE;
 800569c:	2204      	movs	r2, #4
      htim->Instance->CCMR2 |= TIM_CCMR2_OC3PE;
 800569e:	69fb      	ldr	r3, [r7, #28]
 80056a0:	431c      	orrs	r4, r3
 80056a2:	61fc      	str	r4, [r7, #28]
      htim->Instance->CCMR2 &= ~TIM_CCMR2_OC3FE;
 80056a4:	69fb      	ldr	r3, [r7, #28]
 80056a6:	4393      	bics	r3, r2
 80056a8:	61fb      	str	r3, [r7, #28]
      htim->Instance->CCMR2 |= sConfig->OCFastMode;
 80056aa:	69fb      	ldr	r3, [r7, #28]
 80056ac:	692a      	ldr	r2, [r5, #16]
 80056ae:	4313      	orrs	r3, r2
 80056b0:	61fb      	str	r3, [r7, #28]
      break;
 80056b2:	e7da      	b.n	800566a <HAL_TIM_PWM_ConfigChannel+0x76>
 80056b4:	fffffbff 	.word	0xfffffbff

080056b8 <TIM_TI1_SetConfig>:
  *       (on channel2 path) is used as the input signal. Therefore CCMR1 must be
  *        protected against un-initialized filter and polarity values.
  */
void TIM_TI1_SetConfig(TIM_TypeDef *TIMx, uint32_t TIM_ICPolarity, uint32_t TIM_ICSelection,
                       uint32_t TIM_ICFilter)
{
 80056b8:	b5f0      	push	{r4, r5, r6, r7, lr}
  uint32_t tmpccmr1;
  uint32_t tmpccer;

  /* Disable the Channel 1: Reset the CC1E Bit */
  TIMx->CCER &= ~TIM_CCER_CC1E;
 80056ba:	2601      	movs	r6, #1
{
 80056bc:	0015      	movs	r5, r2
  TIMx->CCER &= ~TIM_CCER_CC1E;
 80056be:	6a02      	ldr	r2, [r0, #32]
  tmpccmr1 = TIMx->CCMR1;
  tmpccer = TIMx->CCER;

  /* Select the Input */
  if (IS_TIM_CC2_INSTANCE(TIMx) != RESET)
 80056c0:	4f0f      	ldr	r7, [pc, #60]	; (8005700 <TIM_TI1_SetConfig+0x48>)
  TIMx->CCER &= ~TIM_CCER_CC1E;
 80056c2:	43b2      	bics	r2, r6
 80056c4:	6202      	str	r2, [r0, #32]
  tmpccmr1 = TIMx->CCMR1;
 80056c6:	6982      	ldr	r2, [r0, #24]
  tmpccer = TIMx->CCER;
 80056c8:	6a04      	ldr	r4, [r0, #32]
  if (IS_TIM_CC2_INSTANCE(TIMx) != RESET)
 80056ca:	42b8      	cmp	r0, r7
 80056cc:	d014      	beq.n	80056f8 <TIM_TI1_SetConfig+0x40>
 80056ce:	2780      	movs	r7, #128	; 0x80
 80056d0:	05ff      	lsls	r7, r7, #23
 80056d2:	42b8      	cmp	r0, r7
 80056d4:	d010      	beq.n	80056f8 <TIM_TI1_SetConfig+0x40>
 80056d6:	4f0b      	ldr	r7, [pc, #44]	; (8005704 <TIM_TI1_SetConfig+0x4c>)
 80056d8:	42b8      	cmp	r0, r7
 80056da:	d00d      	beq.n	80056f8 <TIM_TI1_SetConfig+0x40>
    tmpccmr1 &= ~TIM_CCMR1_CC1S;
    tmpccmr1 |= TIM_ICSelection;
  }
  else
  {
    tmpccmr1 |= TIM_CCMR1_CC1S_0;
 80056dc:	4332      	orrs	r2, r6
  }

  /* Set the filter */
  tmpccmr1 &= ~TIM_CCMR1_IC1F;
 80056de:	25f0      	movs	r5, #240	; 0xf0
 80056e0:	43aa      	bics	r2, r5
  tmpccmr1 |= ((TIM_ICFilter << 4U) & TIM_CCMR1_IC1F);
 80056e2:	011b      	lsls	r3, r3, #4
 80056e4:	350f      	adds	r5, #15
 80056e6:	402b      	ands	r3, r5
 80056e8:	4313      	orrs	r3, r2

  /* Select the Polarity and set the CC1E Bit */
  tmpccer &= ~(TIM_CCER_CC1P | TIM_CCER_CC1NP);
 80056ea:	220a      	movs	r2, #10
 80056ec:	4394      	bics	r4, r2
  tmpccer |= (TIM_ICPolarity & (TIM_CCER_CC1P | TIM_CCER_CC1NP));
 80056ee:	4011      	ands	r1, r2
 80056f0:	4321      	orrs	r1, r4

  /* Write to TIMx CCMR1 and CCER registers */
  TIMx->CCMR1 = tmpccmr1;
 80056f2:	6183      	str	r3, [r0, #24]
  TIMx->CCER = tmpccer;
 80056f4:	6201      	str	r1, [r0, #32]
}
 80056f6:	bdf0      	pop	{r4, r5, r6, r7, pc}
    tmpccmr1 &= ~TIM_CCMR1_CC1S;
 80056f8:	2603      	movs	r6, #3
 80056fa:	43b2      	bics	r2, r6
    tmpccmr1 |= TIM_ICSelection;
 80056fc:	432a      	orrs	r2, r5
 80056fe:	e7ee      	b.n	80056de <TIM_TI1_SetConfig+0x26>
 8005700:	40012c00 	.word	0x40012c00
 8005704:	40000400 	.word	0x40000400

08005708 <TIM_ETR_SetConfig>:
  *          This parameter must be a value between 0x00 and 0x0F
  * @retval None
  */
void TIM_ETR_SetConfig(TIM_TypeDef *TIMx, uint32_t TIM_ExtTRGPrescaler,
                       uint32_t TIM_ExtTRGPolarity, uint32_t ExtTRGFilter)
{
 8005708:	b530      	push	{r4, r5, lr}
  uint32_t tmpsmcr;

  tmpsmcr = TIMx->SMCR;
 800570a:	6884      	ldr	r4, [r0, #8]

  /* Reset the ETR Bits */
  tmpsmcr &= ~(TIM_SMCR_ETF | TIM_SMCR_ETPS | TIM_SMCR_ECE | TIM_SMCR_ETP);
 800570c:	4d03      	ldr	r5, [pc, #12]	; (800571c <TIM_ETR_SetConfig+0x14>)

  /* Set the Prescaler, the Filter value and the Polarity */
  tmpsmcr |= (uint32_t)(TIM_ExtTRGPrescaler | (TIM_ExtTRGPolarity | (ExtTRGFilter << 8U)));
 800570e:	430a      	orrs	r2, r1
 8005710:	021b      	lsls	r3, r3, #8
  tmpsmcr &= ~(TIM_SMCR_ETF | TIM_SMCR_ETPS | TIM_SMCR_ECE | TIM_SMCR_ETP);
 8005712:	402c      	ands	r4, r5
  tmpsmcr |= (uint32_t)(TIM_ExtTRGPrescaler | (TIM_ExtTRGPolarity | (ExtTRGFilter << 8U)));
 8005714:	4313      	orrs	r3, r2
 8005716:	4323      	orrs	r3, r4

  /* Write to TIMx SMCR */
  TIMx->SMCR = tmpsmcr;
 8005718:	6083      	str	r3, [r0, #8]
}
 800571a:	bd30      	pop	{r4, r5, pc}
 800571c:	ffff00ff 	.word	0xffff00ff

08005720 <HAL_TIM_ConfigClockSource>:
{
 8005720:	b5f8      	push	{r3, r4, r5, r6, r7, lr}
  __HAL_LOCK(htim);
 8005722:	0005      	movs	r5, r0
 8005724:	2402      	movs	r4, #2
 8005726:	353c      	adds	r5, #60	; 0x3c
 8005728:	782a      	ldrb	r2, [r5, #0]
{
 800572a:	0003      	movs	r3, r0
  __HAL_LOCK(htim);
 800572c:	0020      	movs	r0, r4
 800572e:	2a01      	cmp	r2, #1
 8005730:	d01c      	beq.n	800576c <HAL_TIM_ConfigClockSource+0x4c>
  htim->State = HAL_TIM_STATE_BUSY;
 8005732:	001e      	movs	r6, r3
  __HAL_LOCK(htim);
 8005734:	2201      	movs	r2, #1
  htim->State = HAL_TIM_STATE_BUSY;
 8005736:	363d      	adds	r6, #61	; 0x3d
  __HAL_LOCK(htim);
 8005738:	702a      	strb	r2, [r5, #0]
  htim->State = HAL_TIM_STATE_BUSY;
 800573a:	7034      	strb	r4, [r6, #0]
  tmpsmcr = htim->Instance->SMCR;
 800573c:	681c      	ldr	r4, [r3, #0]
  tmpsmcr &= ~(TIM_SMCR_ETF | TIM_SMCR_ETPS | TIM_SMCR_ECE | TIM_SMCR_ETP);
 800573e:	4843      	ldr	r0, [pc, #268]	; (800584c <HAL_TIM_ConfigClockSource+0x12c>)
  tmpsmcr = htim->Instance->SMCR;
 8005740:	68a3      	ldr	r3, [r4, #8]
  tmpsmcr &= ~(TIM_SMCR_ETF | TIM_SMCR_ETPS | TIM_SMCR_ECE | TIM_SMCR_ETP);
 8005742:	4003      	ands	r3, r0
  htim->Instance->SMCR = tmpsmcr;
 8005744:	60a3      	str	r3, [r4, #8]
  switch (sClockSourceConfig->ClockSource)
 8005746:	680b      	ldr	r3, [r1, #0]
 8005748:	2b60      	cmp	r3, #96	; 0x60
 800574a:	d052      	beq.n	80057f2 <HAL_TIM_ConfigClockSource+0xd2>
 800574c:	d82f      	bhi.n	80057ae <HAL_TIM_ConfigClockSource+0x8e>
 800574e:	2b40      	cmp	r3, #64	; 0x40
 8005750:	d066      	beq.n	8005820 <HAL_TIM_ConfigClockSource+0x100>
 8005752:	d814      	bhi.n	800577e <HAL_TIM_ConfigClockSource+0x5e>
 8005754:	2b20      	cmp	r3, #32
 8005756:	d00c      	beq.n	8005772 <HAL_TIM_ConfigClockSource+0x52>
 8005758:	d809      	bhi.n	800576e <HAL_TIM_ConfigClockSource+0x4e>
 800575a:	2110      	movs	r1, #16
 800575c:	0018      	movs	r0, r3
 800575e:	4388      	bics	r0, r1
 8005760:	d007      	beq.n	8005772 <HAL_TIM_ConfigClockSource+0x52>
 8005762:	0010      	movs	r0, r2
  htim->State = HAL_TIM_STATE_READY;
 8005764:	2301      	movs	r3, #1
 8005766:	7033      	strb	r3, [r6, #0]
  __HAL_UNLOCK(htim);
 8005768:	2300      	movs	r3, #0
 800576a:	702b      	strb	r3, [r5, #0]
}
 800576c:	bdf8      	pop	{r3, r4, r5, r6, r7, pc}
  switch (sClockSourceConfig->ClockSource)
 800576e:	2b30      	cmp	r3, #48	; 0x30
 8005770:	d1f7      	bne.n	8005762 <HAL_TIM_ConfigClockSource+0x42>
  tmpsmcr &= ~TIM_SMCR_TS;
 8005772:	2170      	movs	r1, #112	; 0x70
  tmpsmcr = TIMx->SMCR;
 8005774:	68a2      	ldr	r2, [r4, #8]
  tmpsmcr &= ~TIM_SMCR_TS;
 8005776:	438a      	bics	r2, r1
  tmpsmcr |= (InputTriggerSource | TIM_SLAVEMODE_EXTERNAL1);
 8005778:	4313      	orrs	r3, r2
 800577a:	2207      	movs	r2, #7
 800577c:	e02b      	b.n	80057d6 <HAL_TIM_ConfigClockSource+0xb6>
  switch (sClockSourceConfig->ClockSource)
 800577e:	2b50      	cmp	r3, #80	; 0x50
 8005780:	d1ef      	bne.n	8005762 <HAL_TIM_ConfigClockSource+0x42>
                               sClockSourceConfig->ClockPolarity,
 8005782:	6848      	ldr	r0, [r1, #4]
                               sClockSourceConfig->ClockFilter);
 8005784:	68cb      	ldr	r3, [r1, #12]
  tmpccer = TIMx->CCER;
 8005786:	6a21      	ldr	r1, [r4, #32]
  TIMx->CCER &= ~TIM_CCER_CC1E;
 8005788:	6a27      	ldr	r7, [r4, #32]
  tmpccmr1 |= (TIM_ICFilter << 4U);
 800578a:	011b      	lsls	r3, r3, #4
  TIMx->CCER &= ~TIM_CCER_CC1E;
 800578c:	4397      	bics	r7, r2
 800578e:	6227      	str	r7, [r4, #32]
  tmpccmr1 &= ~TIM_CCMR1_IC1F;
 8005790:	27f0      	movs	r7, #240	; 0xf0
  tmpccmr1 = TIMx->CCMR1;
 8005792:	69a2      	ldr	r2, [r4, #24]
  tmpccmr1 &= ~TIM_CCMR1_IC1F;
 8005794:	43ba      	bics	r2, r7
  tmpccmr1 |= (TIM_ICFilter << 4U);
 8005796:	4313      	orrs	r3, r2
  tmpccer &= ~(TIM_CCER_CC1P | TIM_CCER_CC1NP);
 8005798:	220a      	movs	r2, #10
 800579a:	4391      	bics	r1, r2
 800579c:	000a      	movs	r2, r1
  TIMx->CCMR1 = tmpccmr1;
 800579e:	61a3      	str	r3, [r4, #24]
  tmpsmcr &= ~TIM_SMCR_TS;
 80057a0:	2370      	movs	r3, #112	; 0x70
  tmpccer |= TIM_ICPolarity;
 80057a2:	4302      	orrs	r2, r0
  TIMx->CCER = tmpccer;
 80057a4:	6222      	str	r2, [r4, #32]
  tmpsmcr = TIMx->SMCR;
 80057a6:	68a2      	ldr	r2, [r4, #8]
  tmpsmcr &= ~TIM_SMCR_TS;
 80057a8:	439a      	bics	r2, r3
  tmpsmcr |= (InputTriggerSource | TIM_SLAVEMODE_EXTERNAL1);
 80057aa:	3b19      	subs	r3, #25
 80057ac:	e013      	b.n	80057d6 <HAL_TIM_ConfigClockSource+0xb6>
  switch (sClockSourceConfig->ClockSource)
 80057ae:	2780      	movs	r7, #128	; 0x80
  HAL_StatusTypeDef status = HAL_OK;
 80057b0:	2000      	movs	r0, #0
  switch (sClockSourceConfig->ClockSource)
 80057b2:	017f      	lsls	r7, r7, #5
 80057b4:	42bb      	cmp	r3, r7
 80057b6:	d0d5      	beq.n	8005764 <HAL_TIM_ConfigClockSource+0x44>
 80057b8:	2080      	movs	r0, #128	; 0x80
 80057ba:	0180      	lsls	r0, r0, #6
 80057bc:	4283      	cmp	r3, r0
 80057be:	d00e      	beq.n	80057de <HAL_TIM_ConfigClockSource+0xbe>
 80057c0:	0010      	movs	r0, r2
 80057c2:	2b70      	cmp	r3, #112	; 0x70
 80057c4:	d1ce      	bne.n	8005764 <HAL_TIM_ConfigClockSource+0x44>
      TIM_ETR_SetConfig(htim->Instance,
 80057c6:	68cb      	ldr	r3, [r1, #12]
 80057c8:	684a      	ldr	r2, [r1, #4]
 80057ca:	0020      	movs	r0, r4
 80057cc:	6889      	ldr	r1, [r1, #8]
 80057ce:	f7ff ff9b 	bl	8005708 <TIM_ETR_SetConfig>
      tmpsmcr |= (TIM_SLAVEMODE_EXTERNAL1 | TIM_CLOCKSOURCE_ETRMODE1);
 80057d2:	2377      	movs	r3, #119	; 0x77
      tmpsmcr = htim->Instance->SMCR;
 80057d4:	68a2      	ldr	r2, [r4, #8]
  tmpsmcr |= (InputTriggerSource | TIM_SLAVEMODE_EXTERNAL1);
 80057d6:	4313      	orrs	r3, r2
  HAL_StatusTypeDef status = HAL_OK;
 80057d8:	2000      	movs	r0, #0
  TIMx->SMCR = tmpsmcr;
 80057da:	60a3      	str	r3, [r4, #8]
}
 80057dc:	e7c2      	b.n	8005764 <HAL_TIM_ConfigClockSource+0x44>
      TIM_ETR_SetConfig(htim->Instance,
 80057de:	68cb      	ldr	r3, [r1, #12]
 80057e0:	684a      	ldr	r2, [r1, #4]
 80057e2:	0020      	movs	r0, r4
 80057e4:	6889      	ldr	r1, [r1, #8]
 80057e6:	f7ff ff8f 	bl	8005708 <TIM_ETR_SetConfig>
      htim->Instance->SMCR |= TIM_SMCR_ECE;
 80057ea:	2380      	movs	r3, #128	; 0x80
 80057ec:	68a2      	ldr	r2, [r4, #8]
 80057ee:	01db      	lsls	r3, r3, #7
 80057f0:	e7f1      	b.n	80057d6 <HAL_TIM_ConfigClockSource+0xb6>
  TIMx->CCER &= ~TIM_CCER_CC2E;
 80057f2:	2010      	movs	r0, #16
                               sClockSourceConfig->ClockPolarity,
 80057f4:	684b      	ldr	r3, [r1, #4]
                               sClockSourceConfig->ClockFilter);
 80057f6:	68ca      	ldr	r2, [r1, #12]
  TIMx->CCER &= ~TIM_CCER_CC2E;
 80057f8:	6a21      	ldr	r1, [r4, #32]
  tmpccmr1 &= ~TIM_CCMR1_IC2F;
 80057fa:	4f15      	ldr	r7, [pc, #84]	; (8005850 <HAL_TIM_ConfigClockSource+0x130>)
  TIMx->CCER &= ~TIM_CCER_CC2E;
 80057fc:	4381      	bics	r1, r0
 80057fe:	6221      	str	r1, [r4, #32]
  tmpccmr1 = TIMx->CCMR1;
 8005800:	69a0      	ldr	r0, [r4, #24]
  tmpccmr1 |= (TIM_ICFilter << 12U);
 8005802:	0312      	lsls	r2, r2, #12
  tmpccmr1 &= ~TIM_CCMR1_IC2F;
 8005804:	4038      	ands	r0, r7
  tmpccmr1 |= (TIM_ICFilter << 12U);
 8005806:	4302      	orrs	r2, r0
  tmpccer &= ~(TIM_CCER_CC2P | TIM_CCER_CC2NP);
 8005808:	20a0      	movs	r0, #160	; 0xa0
  tmpccer = TIMx->CCER;
 800580a:	6a21      	ldr	r1, [r4, #32]
  tmpccer |= (TIM_ICPolarity << 4U);
 800580c:	011b      	lsls	r3, r3, #4
  tmpccer &= ~(TIM_CCER_CC2P | TIM_CCER_CC2NP);
 800580e:	4381      	bics	r1, r0
  tmpccer |= (TIM_ICPolarity << 4U);
 8005810:	430b      	orrs	r3, r1
  TIMx->CCMR1 = tmpccmr1 ;
 8005812:	61a2      	str	r2, [r4, #24]
  TIMx->CCER = tmpccer;
 8005814:	6223      	str	r3, [r4, #32]
  tmpsmcr &= ~TIM_SMCR_TS;
 8005816:	2370      	movs	r3, #112	; 0x70
  tmpsmcr = TIMx->SMCR;
 8005818:	68a2      	ldr	r2, [r4, #8]
  tmpsmcr &= ~TIM_SMCR_TS;
 800581a:	439a      	bics	r2, r3
  tmpsmcr |= (InputTriggerSource | TIM_SLAVEMODE_EXTERNAL1);
 800581c:	3b09      	subs	r3, #9
 800581e:	e7da      	b.n	80057d6 <HAL_TIM_ConfigClockSource+0xb6>
                               sClockSourceConfig->ClockPolarity,
 8005820:	6848      	ldr	r0, [r1, #4]
                               sClockSourceConfig->ClockFilter);
 8005822:	68cb      	ldr	r3, [r1, #12]
  tmpccer = TIMx->CCER;
 8005824:	6a21      	ldr	r1, [r4, #32]
  TIMx->CCER &= ~TIM_CCER_CC1E;
 8005826:	6a27      	ldr	r7, [r4, #32]
  tmpccmr1 |= (TIM_ICFilter << 4U);
 8005828:	011b      	lsls	r3, r3, #4
  TIMx->CCER &= ~TIM_CCER_CC1E;
 800582a:	4397      	bics	r7, r2
 800582c:	6227      	str	r7, [r4, #32]
  tmpccmr1 &= ~TIM_CCMR1_IC1F;
 800582e:	27f0      	movs	r7, #240	; 0xf0
  tmpccmr1 = TIMx->CCMR1;
 8005830:	69a2      	ldr	r2, [r4, #24]
  tmpccmr1 &= ~TIM_CCMR1_IC1F;
 8005832:	43ba      	bics	r2, r7
  tmpccmr1 |= (TIM_ICFilter << 4U);
 8005834:	4313      	orrs	r3, r2
  tmpccer &= ~(TIM_CCER_CC1P | TIM_CCER_CC1NP);
 8005836:	220a      	movs	r2, #10
 8005838:	4391      	bics	r1, r2
 800583a:	000a      	movs	r2, r1
  TIMx->CCMR1 = tmpccmr1;
 800583c:	61a3      	str	r3, [r4, #24]
  tmpsmcr &= ~TIM_SMCR_TS;
 800583e:	2370      	movs	r3, #112	; 0x70
  tmpccer |= TIM_ICPolarity;
 8005840:	4302      	orrs	r2, r0
  TIMx->CCER = tmpccer;
 8005842:	6222      	str	r2, [r4, #32]
  tmpsmcr = TIMx->SMCR;
 8005844:	68a2      	ldr	r2, [r4, #8]
  tmpsmcr &= ~TIM_SMCR_TS;
 8005846:	439a      	bics	r2, r3
  tmpsmcr |= (InputTriggerSource | TIM_SLAVEMODE_EXTERNAL1);
 8005848:	3b29      	subs	r3, #41	; 0x29
 800584a:	e7c4      	b.n	80057d6 <HAL_TIM_ConfigClockSource+0xb6>
 800584c:	ffff0088 	.word	0xffff0088
 8005850:	ffff0fff 	.word	0xffff0fff

08005854 <HAL_TIMEx_HallSensor_MspInit>:
  UNUSED(htim);

  /* NOTE : This function should not be modified, when the callback is needed,
            the HAL_TIMEx_HallSensor_MspInit could be implemented in the user file
   */
}
 8005854:	4770      	bx	lr

08005856 <HAL_TIMEx_HallSensor_Init>:
{
 8005856:	b5f0      	push	{r4, r5, r6, r7, lr}
 8005858:	0004      	movs	r4, r0
 800585a:	000e      	movs	r6, r1
    return HAL_ERROR;
 800585c:	2001      	movs	r0, #1
{
 800585e:	b08b      	sub	sp, #44	; 0x2c
  if (htim == NULL)
 8005860:	2c00      	cmp	r4, #0
 8005862:	d057      	beq.n	8005914 <HAL_TIMEx_HallSensor_Init+0xbe>
  if (htim->State == HAL_TIM_STATE_RESET)
 8005864:	0023      	movs	r3, r4
 8005866:	333d      	adds	r3, #61	; 0x3d
 8005868:	9301      	str	r3, [sp, #4]
 800586a:	781b      	ldrb	r3, [r3, #0]
 800586c:	b2da      	uxtb	r2, r3
 800586e:	2b00      	cmp	r3, #0
 8005870:	d105      	bne.n	800587e <HAL_TIMEx_HallSensor_Init+0x28>
    htim->Lock = HAL_UNLOCKED;
 8005872:	0023      	movs	r3, r4
 8005874:	333c      	adds	r3, #60	; 0x3c
    HAL_TIMEx_HallSensor_MspInit(htim);
 8005876:	0020      	movs	r0, r4
    htim->Lock = HAL_UNLOCKED;
 8005878:	701a      	strb	r2, [r3, #0]
    HAL_TIMEx_HallSensor_MspInit(htim);
 800587a:	f7ff ffeb 	bl	8005854 <HAL_TIMEx_HallSensor_MspInit>
  htim->State = HAL_TIM_STATE_BUSY;
 800587e:	2302      	movs	r3, #2
 8005880:	9a01      	ldr	r2, [sp, #4]
  TIM_Base_SetConfig(htim->Instance, &htim->Init);
 8005882:	1d21      	adds	r1, r4, #4
  htim->State = HAL_TIM_STATE_BUSY;
 8005884:	7013      	strb	r3, [r2, #0]
  TIM_Base_SetConfig(htim->Instance, &htim->Init);
 8005886:	6820      	ldr	r0, [r4, #0]
 8005888:	f7ff fde0 	bl	800544c <TIM_Base_SetConfig>
  TIM_TI1_SetConfig(htim->Instance, sConfig->IC1Polarity, TIM_ICSELECTION_TRC, sConfig->IC1Filter);
 800588c:	6820      	ldr	r0, [r4, #0]
 800588e:	2203      	movs	r2, #3
 8005890:	68b3      	ldr	r3, [r6, #8]
 8005892:	6831      	ldr	r1, [r6, #0]
 8005894:	f7ff ff10 	bl	80056b8 <TIM_TI1_SetConfig>
  htim->Instance->CCMR1 &= ~TIM_CCMR1_IC1PSC;
 8005898:	220c      	movs	r2, #12
 800589a:	6820      	ldr	r0, [r4, #0]
  htim->Instance->SMCR &= ~TIM_SMCR_TS;
 800589c:	2770      	movs	r7, #112	; 0x70
  htim->Instance->CCMR1 &= ~TIM_CCMR1_IC1PSC;
 800589e:	6983      	ldr	r3, [r0, #24]
  OC_Config.OCFastMode = TIM_OCFAST_DISABLE;
 80058a0:	2500      	movs	r5, #0
  htim->Instance->CCMR1 &= ~TIM_CCMR1_IC1PSC;
 80058a2:	4393      	bics	r3, r2
 80058a4:	6183      	str	r3, [r0, #24]
  htim->Instance->CCMR1 |= sConfig->IC1Prescaler;
 80058a6:	6983      	ldr	r3, [r0, #24]
 80058a8:	6872      	ldr	r2, [r6, #4]
  TIM_OC2_SetConfig(htim->Instance, &OC_Config);
 80058aa:	a903      	add	r1, sp, #12
  htim->Instance->CCMR1 |= sConfig->IC1Prescaler;
 80058ac:	4313      	orrs	r3, r2
 80058ae:	6183      	str	r3, [r0, #24]
  htim->Instance->CR2 |= TIM_CR2_TI1S;
 80058b0:	2380      	movs	r3, #128	; 0x80
 80058b2:	6842      	ldr	r2, [r0, #4]
  OC_Config.OCMode = TIM_OCMODE_PWM2;
 80058b4:	9703      	str	r7, [sp, #12]
  htim->Instance->CR2 |= TIM_CR2_TI1S;
 80058b6:	4313      	orrs	r3, r2
 80058b8:	6043      	str	r3, [r0, #4]
  htim->Instance->SMCR &= ~TIM_SMCR_TS;
 80058ba:	6883      	ldr	r3, [r0, #8]
 80058bc:	43bb      	bics	r3, r7
 80058be:	6083      	str	r3, [r0, #8]
  htim->Instance->SMCR |= TIM_TS_TI1F_ED;
 80058c0:	2340      	movs	r3, #64	; 0x40
 80058c2:	6882      	ldr	r2, [r0, #8]
 80058c4:	4313      	orrs	r3, r2
  htim->Instance->SMCR &= ~TIM_SMCR_SMS;
 80058c6:	2207      	movs	r2, #7
  htim->Instance->SMCR |= TIM_TS_TI1F_ED;
 80058c8:	6083      	str	r3, [r0, #8]
  htim->Instance->SMCR &= ~TIM_SMCR_SMS;
 80058ca:	6883      	ldr	r3, [r0, #8]
 80058cc:	4393      	bics	r3, r2
 80058ce:	6083      	str	r3, [r0, #8]
  htim->Instance->SMCR |= TIM_SLAVEMODE_RESET;
 80058d0:	2304      	movs	r3, #4
 80058d2:	6882      	ldr	r2, [r0, #8]
 80058d4:	4313      	orrs	r3, r2
 80058d6:	6083      	str	r3, [r0, #8]
  OC_Config.Pulse = sConfig->Commutation_Delay;
 80058d8:	68f3      	ldr	r3, [r6, #12]
  OC_Config.OCFastMode = TIM_OCFAST_DISABLE;
 80058da:	9507      	str	r5, [sp, #28]
  OC_Config.Pulse = sConfig->Commutation_Delay;
 80058dc:	9304      	str	r3, [sp, #16]
  OC_Config.OCIdleState = TIM_OCIDLESTATE_RESET;
 80058de:	9508      	str	r5, [sp, #32]
  OC_Config.OCNIdleState = TIM_OCNIDLESTATE_RESET;
 80058e0:	9509      	str	r5, [sp, #36]	; 0x24
  OC_Config.OCNPolarity = TIM_OCNPOLARITY_HIGH;
 80058e2:	9506      	str	r5, [sp, #24]
  OC_Config.OCPolarity = TIM_OCPOLARITY_HIGH;
 80058e4:	9505      	str	r5, [sp, #20]
  TIM_OC2_SetConfig(htim->Instance, &OC_Config);
 80058e6:	f7ff fe49 	bl	800557c <TIM_OC2_SetConfig>
  htim->Instance->CR2 &= ~TIM_CR2_MMS;
 80058ea:	6823      	ldr	r3, [r4, #0]
  return HAL_OK;
 80058ec:	0028      	movs	r0, r5
  htim->Instance->CR2 &= ~TIM_CR2_MMS;
 80058ee:	685a      	ldr	r2, [r3, #4]
 80058f0:	43ba      	bics	r2, r7
 80058f2:	605a      	str	r2, [r3, #4]
  htim->Instance->CR2 |= TIM_TRGO_OC2REF;
 80058f4:	2250      	movs	r2, #80	; 0x50
 80058f6:	6859      	ldr	r1, [r3, #4]
 80058f8:	430a      	orrs	r2, r1
 80058fa:	605a      	str	r2, [r3, #4]
  htim->DMABurstState = HAL_DMA_BURST_STATE_READY;
 80058fc:	0022      	movs	r2, r4
 80058fe:	2301      	movs	r3, #1
 8005900:	3246      	adds	r2, #70	; 0x46
 8005902:	7013      	strb	r3, [r2, #0]
  TIM_CHANNEL_STATE_SET(htim, TIM_CHANNEL_1, HAL_TIM_CHANNEL_STATE_READY);
 8005904:	3a08      	subs	r2, #8
 8005906:	7013      	strb	r3, [r2, #0]
  TIM_CHANNEL_STATE_SET(htim, TIM_CHANNEL_2, HAL_TIM_CHANNEL_STATE_READY);
 8005908:	7053      	strb	r3, [r2, #1]
  TIM_CHANNEL_N_STATE_SET(htim, TIM_CHANNEL_1, HAL_TIM_CHANNEL_STATE_READY);
 800590a:	7113      	strb	r3, [r2, #4]
  htim->State = HAL_TIM_STATE_READY;
 800590c:	9a01      	ldr	r2, [sp, #4]
  TIM_CHANNEL_N_STATE_SET(htim, TIM_CHANNEL_2, HAL_TIM_CHANNEL_STATE_READY);
 800590e:	3443      	adds	r4, #67	; 0x43
 8005910:	7023      	strb	r3, [r4, #0]
  htim->State = HAL_TIM_STATE_READY;
 8005912:	7013      	strb	r3, [r2, #0]
}
 8005914:	b00b      	add	sp, #44	; 0x2c
 8005916:	bdf0      	pop	{r4, r5, r6, r7, pc}

08005918 <HAL_TIMEx_MasterConfigSynchronization>:
  *         mode.
  * @retval HAL status
  */
HAL_StatusTypeDef HAL_TIMEx_MasterConfigSynchronization(TIM_HandleTypeDef *htim,
                                                        const TIM_MasterConfigTypeDef *sMasterConfig)
{
 8005918:	b570      	push	{r4, r5, r6, lr}
  assert_param(IS_TIM_MASTER_INSTANCE(htim->Instance));
  assert_param(IS_TIM_TRGO_SOURCE(sMasterConfig->MasterOutputTrigger));
  assert_param(IS_TIM_MSM_STATE(sMasterConfig->MasterSlaveMode));

  /* Check input state */
  __HAL_LOCK(htim);
 800591a:	0004      	movs	r4, r0
 800591c:	2202      	movs	r2, #2
 800591e:	343c      	adds	r4, #60	; 0x3c
 8005920:	7825      	ldrb	r5, [r4, #0]
{
 8005922:	0003      	movs	r3, r0
  __HAL_LOCK(htim);
 8005924:	0010      	movs	r0, r2
 8005926:	2d01      	cmp	r5, #1
 8005928:	d01d      	beq.n	8005966 <HAL_TIMEx_MasterConfigSynchronization+0x4e>

  /* Change the handler state */
  htim->State = HAL_TIM_STATE_BUSY;
 800592a:	001d      	movs	r5, r3

  /* Get the TIMx SMCR register value */
  tmpsmcr = htim->Instance->SMCR;

  /* Reset the MMS Bits */
  tmpcr2 &= ~TIM_CR2_MMS;
 800592c:	2670      	movs	r6, #112	; 0x70
  htim->State = HAL_TIM_STATE_BUSY;
 800592e:	353d      	adds	r5, #61	; 0x3d
 8005930:	702a      	strb	r2, [r5, #0]
  tmpcr2 = htim->Instance->CR2;
 8005932:	681b      	ldr	r3, [r3, #0]
 8005934:	6858      	ldr	r0, [r3, #4]
  tmpsmcr = htim->Instance->SMCR;
 8005936:	689a      	ldr	r2, [r3, #8]
  tmpcr2 &= ~TIM_CR2_MMS;
 8005938:	43b0      	bics	r0, r6
  /* Select the TRGO source */
  tmpcr2 |=  sMasterConfig->MasterOutputTrigger;
 800593a:	680e      	ldr	r6, [r1, #0]
 800593c:	4330      	orrs	r0, r6

  /* Update TIMx CR2 */
  htim->Instance->CR2 = tmpcr2;
 800593e:	6058      	str	r0, [r3, #4]

  if (IS_TIM_SLAVE_INSTANCE(htim->Instance))
 8005940:	4809      	ldr	r0, [pc, #36]	; (8005968 <HAL_TIMEx_MasterConfigSynchronization+0x50>)
 8005942:	4283      	cmp	r3, r0
 8005944:	d006      	beq.n	8005954 <HAL_TIMEx_MasterConfigSynchronization+0x3c>
 8005946:	2080      	movs	r0, #128	; 0x80
 8005948:	05c0      	lsls	r0, r0, #23
 800594a:	4283      	cmp	r3, r0
 800594c:	d002      	beq.n	8005954 <HAL_TIMEx_MasterConfigSynchronization+0x3c>
 800594e:	4807      	ldr	r0, [pc, #28]	; (800596c <HAL_TIMEx_MasterConfigSynchronization+0x54>)
 8005950:	4283      	cmp	r3, r0
 8005952:	d104      	bne.n	800595e <HAL_TIMEx_MasterConfigSynchronization+0x46>
  {
    /* Reset the MSM Bit */
    tmpsmcr &= ~TIM_SMCR_MSM;
 8005954:	2080      	movs	r0, #128	; 0x80
    /* Set master mode */
    tmpsmcr |= sMasterConfig->MasterSlaveMode;
 8005956:	6849      	ldr	r1, [r1, #4]
    tmpsmcr &= ~TIM_SMCR_MSM;
 8005958:	4382      	bics	r2, r0
    tmpsmcr |= sMasterConfig->MasterSlaveMode;
 800595a:	430a      	orrs	r2, r1

    /* Update TIMx SMCR */
    htim->Instance->SMCR = tmpsmcr;
 800595c:	609a      	str	r2, [r3, #8]
  }

  /* Change the htim state */
  htim->State = HAL_TIM_STATE_READY;
 800595e:	2301      	movs	r3, #1

  __HAL_UNLOCK(htim);
 8005960:	2000      	movs	r0, #0
  htim->State = HAL_TIM_STATE_READY;
 8005962:	702b      	strb	r3, [r5, #0]
  __HAL_UNLOCK(htim);
 8005964:	7020      	strb	r0, [r4, #0]

  return HAL_OK;
}
 8005966:	bd70      	pop	{r4, r5, r6, pc}
 8005968:	40012c00 	.word	0x40012c00
 800596c:	40000400 	.word	0x40000400

08005970 <HAL_TIMEx_ConfigBreakDeadTime>:
  *         interrupt can be enabled by calling the @ref __HAL_TIM_ENABLE_IT macro.
  * @retval HAL status
  */
HAL_StatusTypeDef HAL_TIMEx_ConfigBreakDeadTime(TIM_HandleTypeDef *htim,
                                                const TIM_BreakDeadTimeConfigTypeDef *sBreakDeadTimeConfig)
{
 8005970:	b510      	push	{r4, lr}
  assert_param(IS_TIM_BREAK_STATE(sBreakDeadTimeConfig->BreakState));
  assert_param(IS_TIM_BREAK_POLARITY(sBreakDeadTimeConfig->BreakPolarity));
  assert_param(IS_TIM_AUTOMATIC_OUTPUT_STATE(sBreakDeadTimeConfig->AutomaticOutput));

  /* Check input state */
  __HAL_LOCK(htim);
 8005972:	0004      	movs	r4, r0
 8005974:	343c      	adds	r4, #60	; 0x3c
 8005976:	7823      	ldrb	r3, [r4, #0]
{
 8005978:	0002      	movs	r2, r0
  __HAL_LOCK(htim);
 800597a:	2002      	movs	r0, #2
 800597c:	2b01      	cmp	r3, #1
 800597e:	d01c      	beq.n	80059ba <HAL_TIMEx_ConfigBreakDeadTime+0x4a>
  /* Set the Lock level, the Break enable Bit and the Polarity, the OSSR State,
     the OSSI State, the dead time value and the Automatic Output Enable Bit */

  /* Set the BDTR bits */
  MODIFY_REG(tmpbdtr, TIM_BDTR_DTG, sBreakDeadTimeConfig->DeadTime);
  MODIFY_REG(tmpbdtr, TIM_BDTR_LOCK, sBreakDeadTimeConfig->LockLevel);
 8005980:	68cb      	ldr	r3, [r1, #12]
 8005982:	480e      	ldr	r0, [pc, #56]	; (80059bc <HAL_TIMEx_ConfigBreakDeadTime+0x4c>)
  MODIFY_REG(tmpbdtr, TIM_BDTR_BKP, sBreakDeadTimeConfig->BreakPolarity);
  MODIFY_REG(tmpbdtr, TIM_BDTR_AOE, sBreakDeadTimeConfig->AutomaticOutput);


  /* Set TIMx_BDTR */
  htim->Instance->BDTR = tmpbdtr;
 8005984:	6812      	ldr	r2, [r2, #0]
  MODIFY_REG(tmpbdtr, TIM_BDTR_LOCK, sBreakDeadTimeConfig->LockLevel);
 8005986:	4003      	ands	r3, r0
 8005988:	6888      	ldr	r0, [r1, #8]
 800598a:	4303      	orrs	r3, r0
  MODIFY_REG(tmpbdtr, TIM_BDTR_OSSI, sBreakDeadTimeConfig->OffStateIDLEMode);
 800598c:	480c      	ldr	r0, [pc, #48]	; (80059c0 <HAL_TIMEx_ConfigBreakDeadTime+0x50>)
 800598e:	4003      	ands	r3, r0
 8005990:	6848      	ldr	r0, [r1, #4]
 8005992:	4303      	orrs	r3, r0
  MODIFY_REG(tmpbdtr, TIM_BDTR_OSSR, sBreakDeadTimeConfig->OffStateRunMode);
 8005994:	480b      	ldr	r0, [pc, #44]	; (80059c4 <HAL_TIMEx_ConfigBreakDeadTime+0x54>)
 8005996:	4003      	ands	r3, r0
 8005998:	6808      	ldr	r0, [r1, #0]
 800599a:	4303      	orrs	r3, r0
  MODIFY_REG(tmpbdtr, TIM_BDTR_BKE, sBreakDeadTimeConfig->BreakState);
 800599c:	480a      	ldr	r0, [pc, #40]	; (80059c8 <HAL_TIMEx_ConfigBreakDeadTime+0x58>)
 800599e:	4003      	ands	r3, r0
 80059a0:	6908      	ldr	r0, [r1, #16]
 80059a2:	4303      	orrs	r3, r0
  MODIFY_REG(tmpbdtr, TIM_BDTR_BKP, sBreakDeadTimeConfig->BreakPolarity);
 80059a4:	4809      	ldr	r0, [pc, #36]	; (80059cc <HAL_TIMEx_ConfigBreakDeadTime+0x5c>)
 80059a6:	4003      	ands	r3, r0
 80059a8:	6948      	ldr	r0, [r1, #20]
  MODIFY_REG(tmpbdtr, TIM_BDTR_AOE, sBreakDeadTimeConfig->AutomaticOutput);
 80059aa:	69c9      	ldr	r1, [r1, #28]
  MODIFY_REG(tmpbdtr, TIM_BDTR_BKP, sBreakDeadTimeConfig->BreakPolarity);
 80059ac:	4303      	orrs	r3, r0
  MODIFY_REG(tmpbdtr, TIM_BDTR_AOE, sBreakDeadTimeConfig->AutomaticOutput);
 80059ae:	4808      	ldr	r0, [pc, #32]	; (80059d0 <HAL_TIMEx_ConfigBreakDeadTime+0x60>)
 80059b0:	4003      	ands	r3, r0

  __HAL_UNLOCK(htim);
 80059b2:	2000      	movs	r0, #0
  MODIFY_REG(tmpbdtr, TIM_BDTR_AOE, sBreakDeadTimeConfig->AutomaticOutput);
 80059b4:	430b      	orrs	r3, r1
  htim->Instance->BDTR = tmpbdtr;
 80059b6:	6453      	str	r3, [r2, #68]	; 0x44
  __HAL_UNLOCK(htim);
 80059b8:	7020      	strb	r0, [r4, #0]

  return HAL_OK;
}
 80059ba:	bd10      	pop	{r4, pc}
 80059bc:	fffffcff 	.word	0xfffffcff
 80059c0:	fffffbff 	.word	0xfffffbff
 80059c4:	fffff7ff 	.word	0xfffff7ff
 80059c8:	ffffefff 	.word	0xffffefff
 80059cc:	ffffdfff 	.word	0xffffdfff
 80059d0:	ffffbfff 	.word	0xffffbfff

080059d4 <UART_EndRxTransfer>:
  * @brief  End ongoing Rx transfer on UART peripheral (following error detection or Reception completion).
  * @param  huart UART handle.
  * @retval None
  */
static void UART_EndRxTransfer(UART_HandleTypeDef *huart)
{
 80059d4:	b530      	push	{r4, r5, lr}
  __ASM volatile ("MRS %0, primask" : "=r" (result) :: "memory");
 80059d6:	f3ef 8410 	mrs	r4, PRIMASK
  __ASM volatile ("MSR primask, %0" : : "r" (priMask) : "memory");
 80059da:	2201      	movs	r2, #1
 80059dc:	f382 8810 	msr	PRIMASK, r2
  /* Disable RXNE, PE and ERR (Frame error, noise error, overrun error) interrupts */
  ATOMIC_CLEAR_BIT(huart->Instance->CR1, (USART_CR1_RXNEIE | USART_CR1_PEIE));
 80059e0:	6801      	ldr	r1, [r0, #0]
 80059e2:	4d12      	ldr	r5, [pc, #72]	; (8005a2c <UART_EndRxTransfer+0x58>)
 80059e4:	680b      	ldr	r3, [r1, #0]
 80059e6:	402b      	ands	r3, r5
 80059e8:	600b      	str	r3, [r1, #0]
 80059ea:	f384 8810 	msr	PRIMASK, r4
  __ASM volatile ("MRS %0, primask" : "=r" (result) :: "memory");
 80059ee:	f3ef 8410 	mrs	r4, PRIMASK
  __ASM volatile ("MSR primask, %0" : : "r" (priMask) : "memory");
 80059f2:	f382 8810 	msr	PRIMASK, r2
  ATOMIC_CLEAR_BIT(huart->Instance->CR3, USART_CR3_EIE);
 80059f6:	6801      	ldr	r1, [r0, #0]
 80059f8:	688b      	ldr	r3, [r1, #8]
 80059fa:	4393      	bics	r3, r2
 80059fc:	608b      	str	r3, [r1, #8]
 80059fe:	f384 8810 	msr	PRIMASK, r4

  /* In case of reception waiting for IDLE event, disable also the IDLE IE interrupt source */
  if (huart->ReceptionType == HAL_UART_RECEPTION_TOIDLE)
 8005a02:	6e03      	ldr	r3, [r0, #96]	; 0x60
 8005a04:	4293      	cmp	r3, r2
 8005a06:	d10a      	bne.n	8005a1e <UART_EndRxTransfer+0x4a>
  __ASM volatile ("MRS %0, primask" : "=r" (result) :: "memory");
 8005a08:	f3ef 8110 	mrs	r1, PRIMASK
  __ASM volatile ("MSR primask, %0" : : "r" (priMask) : "memory");
 8005a0c:	f383 8810 	msr	PRIMASK, r3
  {
    ATOMIC_CLEAR_BIT(huart->Instance->CR1, USART_CR1_IDLEIE);
 8005a10:	2410      	movs	r4, #16
 8005a12:	6802      	ldr	r2, [r0, #0]
 8005a14:	6813      	ldr	r3, [r2, #0]
 8005a16:	43a3      	bics	r3, r4
 8005a18:	6013      	str	r3, [r2, #0]
 8005a1a:	f381 8810 	msr	PRIMASK, r1
  }

  /* At end of Rx process, restore huart->RxState to Ready */
  huart->RxState = HAL_UART_STATE_READY;
 8005a1e:	2220      	movs	r2, #32
 8005a20:	1d03      	adds	r3, r0, #4
 8005a22:	67da      	str	r2, [r3, #124]	; 0x7c
  huart->ReceptionType = HAL_UART_RECEPTION_STANDARD;
 8005a24:	2300      	movs	r3, #0
 8005a26:	6603      	str	r3, [r0, #96]	; 0x60

  /* Reset RxIsr function pointer */
  huart->RxISR = NULL;
 8005a28:	6683      	str	r3, [r0, #104]	; 0x68
}
 8005a2a:	bd30      	pop	{r4, r5, pc}
 8005a2c:	fffffedf 	.word	0xfffffedf

08005a30 <UART_SetConfig>:
{
 8005a30:	b570      	push	{r4, r5, r6, lr}
 8005a32:	0004      	movs	r4, r0
  tmpreg = (uint32_t)huart->Init.WordLength | huart->Init.Parity | huart->Init.Mode | huart->Init.OverSampling ;
 8005a34:	6925      	ldr	r5, [r4, #16]
 8005a36:	68a2      	ldr	r2, [r4, #8]
  MODIFY_REG(huart->Instance->CR1, USART_CR1_FIELDS, tmpreg);
 8005a38:	6801      	ldr	r1, [r0, #0]
  tmpreg = (uint32_t)huart->Init.WordLength | huart->Init.Parity | huart->Init.Mode | huart->Init.OverSampling ;
 8005a3a:	432a      	orrs	r2, r5
 8005a3c:	6965      	ldr	r5, [r4, #20]
 8005a3e:	69c3      	ldr	r3, [r0, #28]
 8005a40:	432a      	orrs	r2, r5
  MODIFY_REG(huart->Instance->CR1, USART_CR1_FIELDS, tmpreg);
 8005a42:	6808      	ldr	r0, [r1, #0]
 8005a44:	4d38      	ldr	r5, [pc, #224]	; (8005b28 <UART_SetConfig+0xf8>)
  tmpreg = (uint32_t)huart->Init.WordLength | huart->Init.Parity | huart->Init.Mode | huart->Init.OverSampling ;
 8005a46:	431a      	orrs	r2, r3
  MODIFY_REG(huart->Instance->CR1, USART_CR1_FIELDS, tmpreg);
 8005a48:	4028      	ands	r0, r5
 8005a4a:	4302      	orrs	r2, r0
 8005a4c:	600a      	str	r2, [r1, #0]
  MODIFY_REG(huart->Instance->CR2, USART_CR2_STOP, huart->Init.StopBits);
 8005a4e:	684a      	ldr	r2, [r1, #4]
 8005a50:	4836      	ldr	r0, [pc, #216]	; (8005b2c <UART_SetConfig+0xfc>)
  tmpreg |= huart->Init.OneBitSampling;
 8005a52:	6a25      	ldr	r5, [r4, #32]
  MODIFY_REG(huart->Instance->CR2, USART_CR2_STOP, huart->Init.StopBits);
 8005a54:	4002      	ands	r2, r0
 8005a56:	68e0      	ldr	r0, [r4, #12]
 8005a58:	4302      	orrs	r2, r0
 8005a5a:	604a      	str	r2, [r1, #4]
  tmpreg = (uint32_t)huart->Init.HwFlowCtl;
 8005a5c:	69a2      	ldr	r2, [r4, #24]
  MODIFY_REG(huart->Instance->CR3, USART_CR3_FIELDS, tmpreg);
 8005a5e:	6888      	ldr	r0, [r1, #8]
  tmpreg |= huart->Init.OneBitSampling;
 8005a60:	432a      	orrs	r2, r5
  MODIFY_REG(huart->Instance->CR3, USART_CR3_FIELDS, tmpreg);
 8005a62:	4d33      	ldr	r5, [pc, #204]	; (8005b30 <UART_SetConfig+0x100>)
 8005a64:	4028      	ands	r0, r5
 8005a66:	4302      	orrs	r2, r0
 8005a68:	608a      	str	r2, [r1, #8]
  UART_GETCLOCKSOURCE(huart, clocksource);
 8005a6a:	2103      	movs	r1, #3
 8005a6c:	4a31      	ldr	r2, [pc, #196]	; (8005b34 <UART_SetConfig+0x104>)
 8005a6e:	6b12      	ldr	r2, [r2, #48]	; 0x30
 8005a70:	400a      	ands	r2, r1
 8005a72:	2180      	movs	r1, #128	; 0x80
 8005a74:	3a01      	subs	r2, #1
 8005a76:	0209      	lsls	r1, r1, #8
 8005a78:	2a02      	cmp	r2, #2
 8005a7a:	d849      	bhi.n	8005b10 <UART_SetConfig+0xe0>
 8005a7c:	482e      	ldr	r0, [pc, #184]	; (8005b38 <UART_SetConfig+0x108>)
 8005a7e:	5c80      	ldrb	r0, [r0, r2]
  if (huart->Init.OverSampling == UART_OVERSAMPLING_8)
 8005a80:	428b      	cmp	r3, r1
 8005a82:	d123      	bne.n	8005acc <UART_SetConfig+0x9c>
    switch (clocksource)
 8005a84:	2808      	cmp	r0, #8
 8005a86:	d815      	bhi.n	8005ab4 <UART_SetConfig+0x84>
 8005a88:	f7fa fb48 	bl	800011c <__gnu_thumb1_case_uqi>
 8005a8c:	14081444 	.word	0x14081444
 8005a90:	14141405 	.word	0x14141405
 8005a94:	09          	.byte	0x09
 8005a95:	00          	.byte	0x00
        pclk = HAL_RCC_GetSysClockFreq();
 8005a96:	f7ff fae3 	bl	8005060 <HAL_RCC_GetSysClockFreq>
 8005a9a:	e03d      	b.n	8005b18 <UART_SetConfig+0xe8>
    switch (clocksource)
 8005a9c:	4b27      	ldr	r3, [pc, #156]	; (8005b3c <UART_SetConfig+0x10c>)
      usartdiv = (uint32_t)(UART_DIV_SAMPLING8(pclk, huart->Init.BaudRate));
 8005a9e:	6861      	ldr	r1, [r4, #4]
 8005aa0:	0058      	lsls	r0, r3, #1
 8005aa2:	084b      	lsrs	r3, r1, #1
 8005aa4:	18c0      	adds	r0, r0, r3
 8005aa6:	f7fa fb43 	bl	8000130 <__udivsi3>
      if ((usartdiv >= UART_BRR_MIN) && (usartdiv <= UART_BRR_MAX))
 8005aaa:	0002      	movs	r2, r0
 8005aac:	4b24      	ldr	r3, [pc, #144]	; (8005b40 <UART_SetConfig+0x110>)
 8005aae:	3a10      	subs	r2, #16
 8005ab0:	429a      	cmp	r2, r3
 8005ab2:	d901      	bls.n	8005ab8 <UART_SetConfig+0x88>
    switch (clocksource)
 8005ab4:	2001      	movs	r0, #1
 8005ab6:	e032      	b.n	8005b1e <UART_SetConfig+0xee>
        brrtemp = (uint16_t)(usartdiv & 0xFFF0U);
 8005ab8:	230f      	movs	r3, #15
 8005aba:	0002      	movs	r2, r0
        brrtemp |= (uint16_t)((usartdiv & (uint16_t)0x000FU) >> 1U);
 8005abc:	0700      	lsls	r0, r0, #28
        brrtemp = (uint16_t)(usartdiv & 0xFFF0U);
 8005abe:	439a      	bics	r2, r3
 8005ac0:	b293      	uxth	r3, r2
        brrtemp |= (uint16_t)((usartdiv & (uint16_t)0x000FU) >> 1U);
 8005ac2:	0f40      	lsrs	r0, r0, #29
        huart->Instance->BRR = brrtemp;
 8005ac4:	6822      	ldr	r2, [r4, #0]
 8005ac6:	4303      	orrs	r3, r0
 8005ac8:	60d3      	str	r3, [r2, #12]
 8005aca:	e027      	b.n	8005b1c <UART_SetConfig+0xec>
    switch (clocksource)
 8005acc:	2808      	cmp	r0, #8
 8005ace:	d8f1      	bhi.n	8005ab4 <UART_SetConfig+0x84>
 8005ad0:	f7fa fb1a 	bl	8000108 <__gnu_thumb1_case_sqi>
 8005ad4:	f01cf014 	.word	0xf01cf014
 8005ad8:	f0f0f019 	.word	0xf0f0f019
 8005adc:	05          	.byte	0x05
 8005add:	00          	.byte	0x00
 8005ade:	2080      	movs	r0, #128	; 0x80
 8005ae0:	0200      	lsls	r0, r0, #8
      usartdiv = (uint32_t)(UART_DIV_SAMPLING16(pclk, huart->Init.BaudRate));
 8005ae2:	6861      	ldr	r1, [r4, #4]
 8005ae4:	084b      	lsrs	r3, r1, #1
 8005ae6:	1818      	adds	r0, r3, r0
 8005ae8:	f7fa fb22 	bl	8000130 <__udivsi3>
      if ((usartdiv >= UART_BRR_MIN) && (usartdiv <= UART_BRR_MAX))
 8005aec:	0002      	movs	r2, r0
 8005aee:	4b14      	ldr	r3, [pc, #80]	; (8005b40 <UART_SetConfig+0x110>)
 8005af0:	3a10      	subs	r2, #16
 8005af2:	429a      	cmp	r2, r3
 8005af4:	d8de      	bhi.n	8005ab4 <UART_SetConfig+0x84>
        huart->Instance->BRR = (uint16_t)usartdiv;
 8005af6:	6823      	ldr	r3, [r4, #0]
 8005af8:	60d8      	str	r0, [r3, #12]
 8005afa:	e00f      	b.n	8005b1c <UART_SetConfig+0xec>
        pclk = HAL_RCC_GetPCLK1Freq();
 8005afc:	f7ff fb60 	bl	80051c0 <HAL_RCC_GetPCLK1Freq>
    if (pclk != 0U)
 8005b00:	2800      	cmp	r0, #0
 8005b02:	d00b      	beq.n	8005b1c <UART_SetConfig+0xec>
 8005b04:	e7ed      	b.n	8005ae2 <UART_SetConfig+0xb2>
        pclk = HAL_RCC_GetSysClockFreq();
 8005b06:	f7ff faab 	bl	8005060 <HAL_RCC_GetSysClockFreq>
        break;
 8005b0a:	e7f9      	b.n	8005b00 <UART_SetConfig+0xd0>
        pclk = (uint32_t) HSI_VALUE;
 8005b0c:	480b      	ldr	r0, [pc, #44]	; (8005b3c <UART_SetConfig+0x10c>)
 8005b0e:	e7e8      	b.n	8005ae2 <UART_SetConfig+0xb2>
  if (huart->Init.OverSampling == UART_OVERSAMPLING_8)
 8005b10:	428b      	cmp	r3, r1
 8005b12:	d1f3      	bne.n	8005afc <UART_SetConfig+0xcc>
        pclk = HAL_RCC_GetPCLK1Freq();
 8005b14:	f7ff fb54 	bl	80051c0 <HAL_RCC_GetPCLK1Freq>
        pclk = HAL_RCC_GetSysClockFreq();
 8005b18:	1e03      	subs	r3, r0, #0
    if (pclk != 0U)
 8005b1a:	d1c0      	bne.n	8005a9e <UART_SetConfig+0x6e>
 8005b1c:	2000      	movs	r0, #0
  huart->RxISR = NULL;
 8005b1e:	2300      	movs	r3, #0
 8005b20:	66a3      	str	r3, [r4, #104]	; 0x68
  huart->TxISR = NULL;
 8005b22:	66e3      	str	r3, [r4, #108]	; 0x6c
}
 8005b24:	bd70      	pop	{r4, r5, r6, pc}
 8005b26:	46c0      	nop			; (mov r8, r8)
 8005b28:	ffff69f3 	.word	0xffff69f3
 8005b2c:	ffffcfff 	.word	0xffffcfff
 8005b30:	fffff4ff 	.word	0xfffff4ff
 8005b34:	40021000 	.word	0x40021000
 8005b38:	08006954 	.word	0x08006954
 8005b3c:	007a1200 	.word	0x007a1200
 8005b40:	0000ffef 	.word	0x0000ffef

08005b44 <UART_AdvFeatureConfig>:
  if (HAL_IS_BIT_SET(huart->AdvancedInit.AdvFeatureInit, UART_ADVFEATURE_TXINVERT_INIT))
 8005b44:	6a43      	ldr	r3, [r0, #36]	; 0x24
{
 8005b46:	b530      	push	{r4, r5, lr}
  if (HAL_IS_BIT_SET(huart->AdvancedInit.AdvFeatureInit, UART_ADVFEATURE_TXINVERT_INIT))
 8005b48:	07da      	lsls	r2, r3, #31
 8005b4a:	d506      	bpl.n	8005b5a <UART_AdvFeatureConfig+0x16>
    MODIFY_REG(huart->Instance->CR2, USART_CR2_TXINV, huart->AdvancedInit.TxPinLevelInvert);
 8005b4c:	6801      	ldr	r1, [r0, #0]
 8005b4e:	4c28      	ldr	r4, [pc, #160]	; (8005bf0 <UART_AdvFeatureConfig+0xac>)
 8005b50:	684a      	ldr	r2, [r1, #4]
 8005b52:	4022      	ands	r2, r4
 8005b54:	6a84      	ldr	r4, [r0, #40]	; 0x28
 8005b56:	4322      	orrs	r2, r4
 8005b58:	604a      	str	r2, [r1, #4]
  if (HAL_IS_BIT_SET(huart->AdvancedInit.AdvFeatureInit, UART_ADVFEATURE_RXINVERT_INIT))
 8005b5a:	079a      	lsls	r2, r3, #30
 8005b5c:	d506      	bpl.n	8005b6c <UART_AdvFeatureConfig+0x28>
    MODIFY_REG(huart->Instance->CR2, USART_CR2_RXINV, huart->AdvancedInit.RxPinLevelInvert);
 8005b5e:	6801      	ldr	r1, [r0, #0]
 8005b60:	4c24      	ldr	r4, [pc, #144]	; (8005bf4 <UART_AdvFeatureConfig+0xb0>)
 8005b62:	684a      	ldr	r2, [r1, #4]
 8005b64:	4022      	ands	r2, r4
 8005b66:	6ac4      	ldr	r4, [r0, #44]	; 0x2c
 8005b68:	4322      	orrs	r2, r4
 8005b6a:	604a      	str	r2, [r1, #4]
  if (HAL_IS_BIT_SET(huart->AdvancedInit.AdvFeatureInit, UART_ADVFEATURE_DATAINVERT_INIT))
 8005b6c:	075a      	lsls	r2, r3, #29
 8005b6e:	d506      	bpl.n	8005b7e <UART_AdvFeatureConfig+0x3a>
    MODIFY_REG(huart->Instance->CR2, USART_CR2_DATAINV, huart->AdvancedInit.DataInvert);
 8005b70:	6801      	ldr	r1, [r0, #0]
 8005b72:	4c21      	ldr	r4, [pc, #132]	; (8005bf8 <UART_AdvFeatureConfig+0xb4>)
 8005b74:	684a      	ldr	r2, [r1, #4]
 8005b76:	4022      	ands	r2, r4
 8005b78:	6b04      	ldr	r4, [r0, #48]	; 0x30
 8005b7a:	4322      	orrs	r2, r4
 8005b7c:	604a      	str	r2, [r1, #4]
  if (HAL_IS_BIT_SET(huart->AdvancedInit.AdvFeatureInit, UART_ADVFEATURE_SWAP_INIT))
 8005b7e:	071a      	lsls	r2, r3, #28
 8005b80:	d506      	bpl.n	8005b90 <UART_AdvFeatureConfig+0x4c>
    MODIFY_REG(huart->Instance->CR2, USART_CR2_SWAP, huart->AdvancedInit.Swap);
 8005b82:	6801      	ldr	r1, [r0, #0]
 8005b84:	4c1d      	ldr	r4, [pc, #116]	; (8005bfc <UART_AdvFeatureConfig+0xb8>)
 8005b86:	684a      	ldr	r2, [r1, #4]
 8005b88:	4022      	ands	r2, r4
 8005b8a:	6b44      	ldr	r4, [r0, #52]	; 0x34
 8005b8c:	4322      	orrs	r2, r4
 8005b8e:	604a      	str	r2, [r1, #4]
  if (HAL_IS_BIT_SET(huart->AdvancedInit.AdvFeatureInit, UART_ADVFEATURE_RXOVERRUNDISABLE_INIT))
 8005b90:	06da      	lsls	r2, r3, #27
 8005b92:	d506      	bpl.n	8005ba2 <UART_AdvFeatureConfig+0x5e>
    MODIFY_REG(huart->Instance->CR3, USART_CR3_OVRDIS, huart->AdvancedInit.OverrunDisable);
 8005b94:	6801      	ldr	r1, [r0, #0]
 8005b96:	4c1a      	ldr	r4, [pc, #104]	; (8005c00 <UART_AdvFeatureConfig+0xbc>)
 8005b98:	688a      	ldr	r2, [r1, #8]
 8005b9a:	4022      	ands	r2, r4
 8005b9c:	6b84      	ldr	r4, [r0, #56]	; 0x38
 8005b9e:	4322      	orrs	r2, r4
 8005ba0:	608a      	str	r2, [r1, #8]
  if (HAL_IS_BIT_SET(huart->AdvancedInit.AdvFeatureInit, UART_ADVFEATURE_DMADISABLEONERROR_INIT))
 8005ba2:	069a      	lsls	r2, r3, #26
 8005ba4:	d506      	bpl.n	8005bb4 <UART_AdvFeatureConfig+0x70>
    MODIFY_REG(huart->Instance->CR3, USART_CR3_DDRE, huart->AdvancedInit.DMADisableonRxError);
 8005ba6:	6801      	ldr	r1, [r0, #0]
 8005ba8:	4c16      	ldr	r4, [pc, #88]	; (8005c04 <UART_AdvFeatureConfig+0xc0>)
 8005baa:	688a      	ldr	r2, [r1, #8]
 8005bac:	4022      	ands	r2, r4
 8005bae:	6bc4      	ldr	r4, [r0, #60]	; 0x3c
 8005bb0:	4322      	orrs	r2, r4
 8005bb2:	608a      	str	r2, [r1, #8]
  if (HAL_IS_BIT_SET(huart->AdvancedInit.AdvFeatureInit, UART_ADVFEATURE_AUTOBAUDRATE_INIT))
 8005bb4:	065a      	lsls	r2, r3, #25
 8005bb6:	d510      	bpl.n	8005bda <UART_AdvFeatureConfig+0x96>
    MODIFY_REG(huart->Instance->CR2, USART_CR2_ABREN, huart->AdvancedInit.AutoBaudRateEnable);
 8005bb8:	6801      	ldr	r1, [r0, #0]
 8005bba:	4d13      	ldr	r5, [pc, #76]	; (8005c08 <UART_AdvFeatureConfig+0xc4>)
 8005bbc:	684a      	ldr	r2, [r1, #4]
 8005bbe:	6c04      	ldr	r4, [r0, #64]	; 0x40
 8005bc0:	402a      	ands	r2, r5
 8005bc2:	4322      	orrs	r2, r4
 8005bc4:	604a      	str	r2, [r1, #4]
    if (huart->AdvancedInit.AutoBaudRateEnable == UART_ADVFEATURE_AUTOBAUDRATE_ENABLE)
 8005bc6:	2280      	movs	r2, #128	; 0x80
 8005bc8:	0352      	lsls	r2, r2, #13
 8005bca:	4294      	cmp	r4, r2
 8005bcc:	d105      	bne.n	8005bda <UART_AdvFeatureConfig+0x96>
      MODIFY_REG(huart->Instance->CR2, USART_CR2_ABRMODE, huart->AdvancedInit.AutoBaudRateMode);
 8005bce:	684a      	ldr	r2, [r1, #4]
 8005bd0:	4c0e      	ldr	r4, [pc, #56]	; (8005c0c <UART_AdvFeatureConfig+0xc8>)
 8005bd2:	4022      	ands	r2, r4
 8005bd4:	6c44      	ldr	r4, [r0, #68]	; 0x44
 8005bd6:	4322      	orrs	r2, r4
 8005bd8:	604a      	str	r2, [r1, #4]
  if (HAL_IS_BIT_SET(huart->AdvancedInit.AdvFeatureInit, UART_ADVFEATURE_MSBFIRST_INIT))
 8005bda:	061b      	lsls	r3, r3, #24
 8005bdc:	d506      	bpl.n	8005bec <UART_AdvFeatureConfig+0xa8>
    MODIFY_REG(huart->Instance->CR2, USART_CR2_MSBFIRST, huart->AdvancedInit.MSBFirst);
 8005bde:	6802      	ldr	r2, [r0, #0]
 8005be0:	490b      	ldr	r1, [pc, #44]	; (8005c10 <UART_AdvFeatureConfig+0xcc>)
 8005be2:	6853      	ldr	r3, [r2, #4]
 8005be4:	400b      	ands	r3, r1
 8005be6:	6c81      	ldr	r1, [r0, #72]	; 0x48
 8005be8:	430b      	orrs	r3, r1
 8005bea:	6053      	str	r3, [r2, #4]
}
 8005bec:	bd30      	pop	{r4, r5, pc}
 8005bee:	46c0      	nop			; (mov r8, r8)
 8005bf0:	fffdffff 	.word	0xfffdffff
 8005bf4:	fffeffff 	.word	0xfffeffff
 8005bf8:	fffbffff 	.word	0xfffbffff
 8005bfc:	ffff7fff 	.word	0xffff7fff
 8005c00:	ffffefff 	.word	0xffffefff
 8005c04:	ffffdfff 	.word	0xffffdfff
 8005c08:	ffefffff 	.word	0xffefffff
 8005c0c:	ff9fffff 	.word	0xff9fffff
 8005c10:	fff7ffff 	.word	0xfff7ffff

08005c14 <UART_WaitOnFlagUntilTimeout>:
{
 8005c14:	b5f7      	push	{r0, r1, r2, r4, r5, r6, r7, lr}
 8005c16:	0004      	movs	r4, r0
 8005c18:	000d      	movs	r5, r1
 8005c1a:	0017      	movs	r7, r2
        if (__HAL_UART_GET_FLAG(huart, UART_FLAG_ORE) == SET)
 8005c1c:	2608      	movs	r6, #8
{
 8005c1e:	9300      	str	r3, [sp, #0]
  while ((__HAL_UART_GET_FLAG(huart, Flag) ? SET : RESET) == Status)
 8005c20:	6822      	ldr	r2, [r4, #0]
 8005c22:	69d3      	ldr	r3, [r2, #28]
 8005c24:	402b      	ands	r3, r5
 8005c26:	1b5b      	subs	r3, r3, r5
 8005c28:	4259      	negs	r1, r3
 8005c2a:	414b      	adcs	r3, r1
 8005c2c:	42bb      	cmp	r3, r7
 8005c2e:	d001      	beq.n	8005c34 <UART_WaitOnFlagUntilTimeout+0x20>
  return HAL_OK;
 8005c30:	2000      	movs	r0, #0
 8005c32:	e021      	b.n	8005c78 <UART_WaitOnFlagUntilTimeout+0x64>
    if (Timeout != HAL_MAX_DELAY)
 8005c34:	9b08      	ldr	r3, [sp, #32]
 8005c36:	3301      	adds	r3, #1
 8005c38:	d0f3      	beq.n	8005c22 <UART_WaitOnFlagUntilTimeout+0xe>
      if (((HAL_GetTick() - Tickstart) > Timeout) || (Timeout == 0U))
 8005c3a:	f7fe fd9b 	bl	8004774 <HAL_GetTick>
 8005c3e:	9b00      	ldr	r3, [sp, #0]
 8005c40:	1ac0      	subs	r0, r0, r3
 8005c42:	9b08      	ldr	r3, [sp, #32]
 8005c44:	4298      	cmp	r0, r3
 8005c46:	d828      	bhi.n	8005c9a <UART_WaitOnFlagUntilTimeout+0x86>
 8005c48:	2b00      	cmp	r3, #0
 8005c4a:	d026      	beq.n	8005c9a <UART_WaitOnFlagUntilTimeout+0x86>
      if (READ_BIT(huart->Instance->CR1, USART_CR1_RE) != 0U)
 8005c4c:	2104      	movs	r1, #4
 8005c4e:	6823      	ldr	r3, [r4, #0]
 8005c50:	681a      	ldr	r2, [r3, #0]
 8005c52:	420a      	tst	r2, r1
 8005c54:	d0e4      	beq.n	8005c20 <UART_WaitOnFlagUntilTimeout+0xc>
        if (__HAL_UART_GET_FLAG(huart, UART_FLAG_ORE) == SET)
 8005c56:	69da      	ldr	r2, [r3, #28]
 8005c58:	0011      	movs	r1, r2
 8005c5a:	4031      	ands	r1, r6
 8005c5c:	9101      	str	r1, [sp, #4]
 8005c5e:	4232      	tst	r2, r6
 8005c60:	d00b      	beq.n	8005c7a <UART_WaitOnFlagUntilTimeout+0x66>
           UART_EndRxTransfer(huart);
 8005c62:	0020      	movs	r0, r4
           __HAL_UART_CLEAR_FLAG(huart, UART_CLEAR_OREF);
 8005c64:	621e      	str	r6, [r3, #32]
           UART_EndRxTransfer(huart);
 8005c66:	f7ff feb5 	bl	80059d4 <UART_EndRxTransfer>
           huart->ErrorCode = HAL_UART_ERROR_ORE;
 8005c6a:	0023      	movs	r3, r4
 8005c6c:	3308      	adds	r3, #8
 8005c6e:	67de      	str	r6, [r3, #124]	; 0x7c
           __HAL_UNLOCK(huart);
 8005c70:	2300      	movs	r3, #0
           return HAL_ERROR;
 8005c72:	2001      	movs	r0, #1
           __HAL_UNLOCK(huart);
 8005c74:	3478      	adds	r4, #120	; 0x78
 8005c76:	7023      	strb	r3, [r4, #0]
}
 8005c78:	bdfe      	pop	{r1, r2, r3, r4, r5, r6, r7, pc}
        if (__HAL_UART_GET_FLAG(huart, UART_FLAG_RTOF) == SET)
 8005c7a:	2280      	movs	r2, #128	; 0x80
 8005c7c:	69d9      	ldr	r1, [r3, #28]
 8005c7e:	0112      	lsls	r2, r2, #4
 8005c80:	4211      	tst	r1, r2
 8005c82:	d0cd      	beq.n	8005c20 <UART_WaitOnFlagUntilTimeout+0xc>
          __HAL_UART_CLEAR_FLAG(huart, UART_CLEAR_RTOF);
 8005c84:	621a      	str	r2, [r3, #32]
          UART_EndRxTransfer(huart);
 8005c86:	0020      	movs	r0, r4
 8005c88:	f7ff fea4 	bl	80059d4 <UART_EndRxTransfer>
          huart->ErrorCode = HAL_UART_ERROR_RTO;
 8005c8c:	0023      	movs	r3, r4
 8005c8e:	2220      	movs	r2, #32
 8005c90:	3308      	adds	r3, #8
 8005c92:	67da      	str	r2, [r3, #124]	; 0x7c
          __HAL_UNLOCK(huart);
 8005c94:	9b01      	ldr	r3, [sp, #4]
 8005c96:	3478      	adds	r4, #120	; 0x78
 8005c98:	7023      	strb	r3, [r4, #0]
        return HAL_TIMEOUT;
 8005c9a:	2003      	movs	r0, #3
 8005c9c:	e7ec      	b.n	8005c78 <UART_WaitOnFlagUntilTimeout+0x64>
	...

08005ca0 <UART_CheckIdleState>:
  huart->ErrorCode = HAL_UART_ERROR_NONE;
 8005ca0:	0003      	movs	r3, r0
{
 8005ca2:	b573      	push	{r0, r1, r4, r5, r6, lr}
  huart->ErrorCode = HAL_UART_ERROR_NONE;
 8005ca4:	2500      	movs	r5, #0
{
 8005ca6:	0004      	movs	r4, r0
  huart->ErrorCode = HAL_UART_ERROR_NONE;
 8005ca8:	3308      	adds	r3, #8
 8005caa:	67dd      	str	r5, [r3, #124]	; 0x7c
  tickstart = HAL_GetTick();
 8005cac:	f7fe fd62 	bl	8004774 <HAL_GetTick>
  if ((huart->Instance->CR1 & USART_CR1_TE) == USART_CR1_TE)
 8005cb0:	6823      	ldr	r3, [r4, #0]
  tickstart = HAL_GetTick();
 8005cb2:	0006      	movs	r6, r0
  if ((huart->Instance->CR1 & USART_CR1_TE) == USART_CR1_TE)
 8005cb4:	681b      	ldr	r3, [r3, #0]
 8005cb6:	071b      	lsls	r3, r3, #28
 8005cb8:	d51d      	bpl.n	8005cf6 <UART_CheckIdleState+0x56>
    if (UART_WaitOnFlagUntilTimeout(huart, USART_ISR_TEACK, RESET, tickstart, HAL_UART_TIMEOUT_VALUE) != HAL_OK)
 8005cba:	2180      	movs	r1, #128	; 0x80
 8005cbc:	4b26      	ldr	r3, [pc, #152]	; (8005d58 <UART_CheckIdleState+0xb8>)
 8005cbe:	002a      	movs	r2, r5
 8005cc0:	9300      	str	r3, [sp, #0]
 8005cc2:	0389      	lsls	r1, r1, #14
 8005cc4:	0003      	movs	r3, r0
 8005cc6:	0020      	movs	r0, r4
 8005cc8:	f7ff ffa4 	bl	8005c14 <UART_WaitOnFlagUntilTimeout>
 8005ccc:	42a8      	cmp	r0, r5
 8005cce:	d012      	beq.n	8005cf6 <UART_CheckIdleState+0x56>
  __ASM volatile ("MRS %0, primask" : "=r" (result) :: "memory");
 8005cd0:	f3ef 8110 	mrs	r1, PRIMASK
  __ASM volatile ("MSR primask, %0" : : "r" (priMask) : "memory");
 8005cd4:	2301      	movs	r3, #1
 8005cd6:	f383 8810 	msr	PRIMASK, r3
      ATOMIC_CLEAR_BIT(huart->Instance->CR1, (USART_CR1_TXEIE));
 8005cda:	2080      	movs	r0, #128	; 0x80
 8005cdc:	6822      	ldr	r2, [r4, #0]
 8005cde:	6813      	ldr	r3, [r2, #0]
 8005ce0:	4383      	bics	r3, r0
 8005ce2:	6013      	str	r3, [r2, #0]
 8005ce4:	f381 8810 	msr	PRIMASK, r1
      huart->gState = HAL_UART_STATE_READY;
 8005ce8:	2320      	movs	r3, #32
 8005cea:	67e3      	str	r3, [r4, #124]	; 0x7c
      return HAL_TIMEOUT;
 8005cec:	2003      	movs	r0, #3
      __HAL_UNLOCK(huart);
 8005cee:	2300      	movs	r3, #0
 8005cf0:	3478      	adds	r4, #120	; 0x78
 8005cf2:	7023      	strb	r3, [r4, #0]
}
 8005cf4:	bd76      	pop	{r1, r2, r4, r5, r6, pc}
  if ((huart->Instance->CR1 & USART_CR1_RE) == USART_CR1_RE)
 8005cf6:	0025      	movs	r5, r4
 8005cf8:	cd08      	ldmia	r5!, {r3}
 8005cfa:	681b      	ldr	r3, [r3, #0]
 8005cfc:	075b      	lsls	r3, r3, #29
 8005cfe:	d523      	bpl.n	8005d48 <UART_CheckIdleState+0xa8>
    if (UART_WaitOnFlagUntilTimeout(huart, USART_ISR_REACK, RESET, tickstart, HAL_UART_TIMEOUT_VALUE) != HAL_OK)
 8005d00:	2180      	movs	r1, #128	; 0x80
 8005d02:	4b15      	ldr	r3, [pc, #84]	; (8005d58 <UART_CheckIdleState+0xb8>)
 8005d04:	2200      	movs	r2, #0
 8005d06:	9300      	str	r3, [sp, #0]
 8005d08:	0020      	movs	r0, r4
 8005d0a:	0033      	movs	r3, r6
 8005d0c:	03c9      	lsls	r1, r1, #15
 8005d0e:	f7ff ff81 	bl	8005c14 <UART_WaitOnFlagUntilTimeout>
 8005d12:	2800      	cmp	r0, #0
 8005d14:	d018      	beq.n	8005d48 <UART_CheckIdleState+0xa8>
  __ASM volatile ("MRS %0, primask" : "=r" (result) :: "memory");
 8005d16:	f3ef 8010 	mrs	r0, PRIMASK
  __ASM volatile ("MSR primask, %0" : : "r" (priMask) : "memory");
 8005d1a:	2201      	movs	r2, #1
 8005d1c:	f382 8810 	msr	PRIMASK, r2
      ATOMIC_CLEAR_BIT(huart->Instance->CR1, (USART_CR1_RXNEIE | USART_CR1_PEIE));
 8005d20:	6821      	ldr	r1, [r4, #0]
 8005d22:	4e0e      	ldr	r6, [pc, #56]	; (8005d5c <UART_CheckIdleState+0xbc>)
 8005d24:	680b      	ldr	r3, [r1, #0]
 8005d26:	4033      	ands	r3, r6
 8005d28:	600b      	str	r3, [r1, #0]
 8005d2a:	f380 8810 	msr	PRIMASK, r0
  __ASM volatile ("MRS %0, primask" : "=r" (result) :: "memory");
 8005d2e:	f3ef 8010 	mrs	r0, PRIMASK
  __ASM volatile ("MSR primask, %0" : : "r" (priMask) : "memory");
 8005d32:	f382 8810 	msr	PRIMASK, r2
      ATOMIC_CLEAR_BIT(huart->Instance->CR3, USART_CR3_EIE);
 8005d36:	6821      	ldr	r1, [r4, #0]
 8005d38:	688b      	ldr	r3, [r1, #8]
 8005d3a:	4393      	bics	r3, r2
 8005d3c:	608b      	str	r3, [r1, #8]
 8005d3e:	f380 8810 	msr	PRIMASK, r0
      huart->RxState = HAL_UART_STATE_READY;
 8005d42:	2320      	movs	r3, #32
 8005d44:	67eb      	str	r3, [r5, #124]	; 0x7c
 8005d46:	e7d1      	b.n	8005cec <UART_CheckIdleState+0x4c>
  huart->gState = HAL_UART_STATE_READY;
 8005d48:	2320      	movs	r3, #32
  huart->ReceptionType = HAL_UART_RECEPTION_STANDARD;
 8005d4a:	2000      	movs	r0, #0
  huart->gState = HAL_UART_STATE_READY;
 8005d4c:	67e3      	str	r3, [r4, #124]	; 0x7c
  huart->RxState = HAL_UART_STATE_READY;
 8005d4e:	67eb      	str	r3, [r5, #124]	; 0x7c
  huart->ReceptionType = HAL_UART_RECEPTION_STANDARD;
 8005d50:	6620      	str	r0, [r4, #96]	; 0x60
  huart->RxEventType = HAL_UART_RXEVENT_TC;
 8005d52:	6660      	str	r0, [r4, #100]	; 0x64
  return HAL_OK;
 8005d54:	e7cb      	b.n	8005cee <UART_CheckIdleState+0x4e>
 8005d56:	46c0      	nop			; (mov r8, r8)
 8005d58:	01ffffff 	.word	0x01ffffff
 8005d5c:	fffffedf 	.word	0xfffffedf

08005d60 <HAL_UART_Init>:
{
 8005d60:	b510      	push	{r4, lr}
 8005d62:	1e04      	subs	r4, r0, #0
  if (huart == NULL)
 8005d64:	d101      	bne.n	8005d6a <HAL_UART_Init+0xa>
    return HAL_ERROR;
 8005d66:	2001      	movs	r0, #1
}
 8005d68:	bd10      	pop	{r4, pc}
  if (huart->gState == HAL_UART_STATE_RESET)
 8005d6a:	6fc3      	ldr	r3, [r0, #124]	; 0x7c
 8005d6c:	2b00      	cmp	r3, #0
 8005d6e:	d104      	bne.n	8005d7a <HAL_UART_Init+0x1a>
    huart->Lock = HAL_UNLOCKED;
 8005d70:	0002      	movs	r2, r0
 8005d72:	3278      	adds	r2, #120	; 0x78
 8005d74:	7013      	strb	r3, [r2, #0]
    HAL_UART_MspInit(huart);
 8005d76:	f7fe fad7 	bl	8004328 <HAL_UART_MspInit>
  huart->gState = HAL_UART_STATE_BUSY;
 8005d7a:	2324      	movs	r3, #36	; 0x24
  __HAL_UART_DISABLE(huart);
 8005d7c:	2101      	movs	r1, #1
 8005d7e:	6822      	ldr	r2, [r4, #0]
  huart->gState = HAL_UART_STATE_BUSY;
 8005d80:	67e3      	str	r3, [r4, #124]	; 0x7c
  __HAL_UART_DISABLE(huart);
 8005d82:	6813      	ldr	r3, [r2, #0]
  if (UART_SetConfig(huart) == HAL_ERROR)
 8005d84:	0020      	movs	r0, r4
  __HAL_UART_DISABLE(huart);
 8005d86:	438b      	bics	r3, r1
 8005d88:	6013      	str	r3, [r2, #0]
  if (UART_SetConfig(huart) == HAL_ERROR)
 8005d8a:	f7ff fe51 	bl	8005a30 <UART_SetConfig>
 8005d8e:	2801      	cmp	r0, #1
 8005d90:	d0e9      	beq.n	8005d66 <HAL_UART_Init+0x6>
  if (huart->AdvancedInit.AdvFeatureInit != UART_ADVFEATURE_NO_INIT)
 8005d92:	6a63      	ldr	r3, [r4, #36]	; 0x24
 8005d94:	2b00      	cmp	r3, #0
 8005d96:	d002      	beq.n	8005d9e <HAL_UART_Init+0x3e>
    UART_AdvFeatureConfig(huart);
 8005d98:	0020      	movs	r0, r4
 8005d9a:	f7ff fed3 	bl	8005b44 <UART_AdvFeatureConfig>
  CLEAR_BIT(huart->Instance->CR2, (USART_CR2_LINEN | USART_CR2_CLKEN));
 8005d9e:	6823      	ldr	r3, [r4, #0]
 8005da0:	4907      	ldr	r1, [pc, #28]	; (8005dc0 <HAL_UART_Init+0x60>)
 8005da2:	685a      	ldr	r2, [r3, #4]
  return (UART_CheckIdleState(huart));
 8005da4:	0020      	movs	r0, r4
  CLEAR_BIT(huart->Instance->CR2, (USART_CR2_LINEN | USART_CR2_CLKEN));
 8005da6:	400a      	ands	r2, r1
  CLEAR_BIT(huart->Instance->CR3, (USART_CR3_SCEN | USART_CR3_HDSEL | USART_CR3_IREN));
 8005da8:	212a      	movs	r1, #42	; 0x2a
  CLEAR_BIT(huart->Instance->CR2, (USART_CR2_LINEN | USART_CR2_CLKEN));
 8005daa:	605a      	str	r2, [r3, #4]
  CLEAR_BIT(huart->Instance->CR3, (USART_CR3_SCEN | USART_CR3_HDSEL | USART_CR3_IREN));
 8005dac:	689a      	ldr	r2, [r3, #8]
 8005dae:	438a      	bics	r2, r1
 8005db0:	609a      	str	r2, [r3, #8]
  __HAL_UART_ENABLE(huart);
 8005db2:	2201      	movs	r2, #1
 8005db4:	6819      	ldr	r1, [r3, #0]
 8005db6:	430a      	orrs	r2, r1
 8005db8:	601a      	str	r2, [r3, #0]
  return (UART_CheckIdleState(huart));
 8005dba:	f7ff ff71 	bl	8005ca0 <UART_CheckIdleState>
 8005dbe:	e7d3      	b.n	8005d68 <HAL_UART_Init+0x8>
 8005dc0:	ffffb7ff 	.word	0xffffb7ff

08005dc4 <VBS_GetAvBusVoltage_V>:
  * @brief  It return latest averaged Vbus measurement expressed in Volt format
  * @param  pHandle related Handle of BusVoltageSensor_Handle_t
  * @retval uint16_t Latest averaged Vbus measurement in Volt format
  */
__weak uint16_t VBS_GetAvBusVoltage_V(const BusVoltageSensor_Handle_t *pHandle)
{
 8005dc4:	0003      	movs	r3, r0
    temp = 0U;
  }
  else
  {
#endif
    temp = (uint32_t)(pHandle->AvBusVoltage_d);
 8005dc6:	88c0      	ldrh	r0, [r0, #6]
    temp *= pHandle->ConversionFactor;
 8005dc8:	885b      	ldrh	r3, [r3, #2]
 8005dca:	4358      	muls	r0, r3
    temp /= 65536U;
#ifdef NULL_PTR_CHECK_BUS_VOLT
  }
#endif
  return ((uint16_t)temp);
 8005dcc:	0c00      	lsrs	r0, r0, #16
}
 8005dce:	4770      	bx	lr

08005dd0 <Circle_Limitation>:
  *  @f$v_q = \sqrt(MaxModule^2-v_d^2\ ) @f$

  *
  */
__weak qd_t Circle_Limitation(const CircleLimitation_Handle_t *pHandle, qd_t Vqd)
{
 8005dd0:	b20b      	sxth	r3, r1
 8005dd2:	1409      	asrs	r1, r1, #16
 8005dd4:	b5f0      	push	{r4, r5, r6, r7, lr}
    int32_t new_d;

    maxModule = (int32_t)pHandle->MaxModule;

    square_q = ((int32_t)(Vqd.q)) * Vqd.q;
    square_d = ((int32_t)(Vqd.d)) * Vqd.d;
 8005dd6:	000e      	movs	r6, r1
    square_q = ((int32_t)(Vqd.q)) * Vqd.q;
 8005dd8:	001d      	movs	r5, r3
    maxModule = (int32_t)pHandle->MaxModule;
 8005dda:	8802      	ldrh	r2, [r0, #0]
    square_d = ((int32_t)(Vqd.d)) * Vqd.d;
 8005ddc:	434e      	muls	r6, r1
    square_q = ((int32_t)(Vqd.q)) * Vqd.q;
 8005dde:	435d      	muls	r5, r3
    square_limit = maxModule * maxModule;
 8005de0:	4352      	muls	r2, r2
    vd_square_limit = ((int32_t)pHandle->MaxVd) * ((int32_t)pHandle->MaxVd);
    square_sum = square_q + square_d;
 8005de2:	19ad      	adds	r5, r5, r6
    square_d = ((int32_t)(Vqd.d)) * Vqd.d;
 8005de4:	000c      	movs	r4, r1
    vd_square_limit = ((int32_t)pHandle->MaxVd) * ((int32_t)pHandle->MaxVd);
 8005de6:	8840      	ldrh	r0, [r0, #2]
{
 8005de8:	b085      	sub	sp, #20

    if (square_sum > square_limit)
 8005dea:	42aa      	cmp	r2, r5
 8005dec:	da11      	bge.n	8005e12 <Circle_Limitation+0x42>
    vd_square_limit = ((int32_t)pHandle->MaxVd) * ((int32_t)pHandle->MaxVd);
 8005dee:	0007      	movs	r7, r0
 8005df0:	4347      	muls	r7, r0
    {
      if (square_d <= vd_square_limit)
 8005df2:	4d0f      	ldr	r5, [pc, #60]	; (8005e30 <Circle_Limitation+0x60>)
 8005df4:	42be      	cmp	r6, r7
 8005df6:	dc11      	bgt.n	8005e1c <Circle_Limitation+0x4c>
      {
#if defined CIRCLE_LIMITATION_SQRT_M0
        square_temp = (square_limit - square_d) / 1048576;
 8005df8:	1b96      	subs	r6, r2, r6
 8005dfa:	17f2      	asrs	r2, r6, #31
 8005dfc:	0312      	lsls	r2, r2, #12
 8005dfe:	0b12      	lsrs	r2, r2, #12
 8005e00:	1992      	adds	r2, r2, r6
        else
        {
          /* Nothing to do */
        }
#if defined CIRCLE_LIMITATION_SQRT_M0
        square_temp = (square_limit - vd_square_limit) / 1048576;
 8005e02:	1512      	asrs	r2, r2, #20
        new_q = SqrtTable[square_temp];
 8005e04:	0052      	lsls	r2, r2, #1
 8005e06:	5aaa      	ldrh	r2, [r5, r2]
#else
        square_temp = square_limit - vd_square_limit;
        new_q = MCM_Sqrt(square_temp);
#endif
        if (Vqd.q < 0)
 8005e08:	2b00      	cmp	r3, #0
 8005e0a:	da00      	bge.n	8005e0e <Circle_Limitation+0x3e>
        {
          new_q = - new_q;
 8005e0c:	4252      	negs	r2, r2
        else
        {
          /* Nothing to do */
        }
      }
      local_vqd.q = (int16_t)new_q;
 8005e0e:	b213      	sxth	r3, r2
      local_vqd.d = (int16_t)new_d;
 8005e10:	b221      	sxth	r1, r4
    }
#ifdef NULL_PTR_CHECK_CRC_LIM
  }
#endif
  return (local_vqd);
 8005e12:	0409      	lsls	r1, r1, #16
 8005e14:	b298      	uxth	r0, r3
 8005e16:	4308      	orrs	r0, r1
}
 8005e18:	b005      	add	sp, #20
 8005e1a:	bdf0      	pop	{r4, r5, r6, r7, pc}
        new_d = (int32_t)pHandle->MaxVd;
 8005e1c:	0004      	movs	r4, r0
        if (Vqd.d < 0)
 8005e1e:	2900      	cmp	r1, #0
 8005e20:	da00      	bge.n	8005e24 <Circle_Limitation+0x54>
          new_d = -new_d;
 8005e22:	4244      	negs	r4, r0
        square_temp = (square_limit - vd_square_limit) / 1048576;
 8005e24:	1bd7      	subs	r7, r2, r7
 8005e26:	17fa      	asrs	r2, r7, #31
 8005e28:	0312      	lsls	r2, r2, #12
 8005e2a:	0b12      	lsrs	r2, r2, #12
 8005e2c:	19d2      	adds	r2, r2, r7
 8005e2e:	e7e8      	b.n	8005e02 <Circle_Limitation+0x32>
 8005e30:	08006958 	.word	0x08006958

08005e34 <MCPA_stopDataLog>:
  */
void MCPA_stopDataLog(MCPA_Handle_t *pHandle)
{ 
  uint16_t *logValue16;

  pHandle->Mark = 0U;
 8005e34:	0003      	movs	r3, r0
 8005e36:	2200      	movs	r2, #0
{ 
 8005e38:	b570      	push	{r4, r5, r6, lr}
 8005e3a:	0005      	movs	r5, r0
  pHandle->Mark = 0U;
 8005e3c:	3329      	adds	r3, #41	; 0x29
 8005e3e:	701a      	strb	r2, [r3, #0]
  if (pHandle->bufferIndex > 0U)
 8005e40:	8b03      	ldrh	r3, [r0, #24]
{ 
 8005e42:	0004      	movs	r4, r0
 8005e44:	352a      	adds	r5, #42	; 0x2a
  if (pHandle->bufferIndex > 0U)
 8005e46:	4293      	cmp	r3, r2
 8005e48:	d009      	beq.n	8005e5e <MCPA_stopDataLog+0x2a>
  { /* If buffer is allocated, we must send it */
    logValue16 = (uint16_t *)&pHandle->currentBuffer[pHandle->bufferIndex]; //cstat !MISRAC2012-Rule-11.3
 8005e4a:	6941      	ldr	r1, [r0, #20]
    *logValue16 = pHandle->MarkBuff; /* MarkBuff is actually 8 bits, but we add also 8 bits of the ASYNCID=0 after
 8005e4c:	782a      	ldrb	r2, [r5, #0]
                                        the MARK */
    pHandle->pTransportLayer->fSendPacket (pHandle->pTransportLayer, pHandle->currentBuffer,
 8005e4e:	6800      	ldr	r0, [r0, #0]
    *logValue16 = pHandle->MarkBuff; /* MarkBuff is actually 8 bits, but we add also 8 bits of the ASYNCID=0 after
 8005e50:	52ca      	strh	r2, [r1, r3]
    pHandle->pTransportLayer->fSendPacket (pHandle->pTransportLayer, pHandle->currentBuffer,
 8005e52:	8b22      	ldrh	r2, [r4, #24]
 8005e54:	2309      	movs	r3, #9
 8005e56:	3202      	adds	r2, #2
 8005e58:	6846      	ldr	r6, [r0, #4]
 8005e5a:	b292      	uxth	r2, r2
 8005e5c:	47b0      	blx	r6
  }
  else
  {
    /* Nothing to do */
  }
  pHandle->bufferIndex = 0U;
 8005e5e:	2300      	movs	r3, #0
 8005e60:	8323      	strh	r3, [r4, #24]
  pHandle->MarkBuff    = 0U;
 8005e62:	702b      	strb	r3, [r5, #0]
  pHandle->HFIndex     = 0U;
  pHandle->HFRateBuff  = 0U; /* We do not want to miss any sample at the restart */
 8005e64:	3403      	adds	r4, #3
  pHandle->HFIndex     = 0U;
 8005e66:	7723      	strb	r3, [r4, #28]
  pHandle->HFRateBuff  = 0U; /* We do not want to miss any sample at the restart */
 8005e68:	77e3      	strb	r3, [r4, #31]
}
 8005e6a:	bd70      	pop	{r4, r5, r6, pc}

08005e6c <MCPA_dataLog>:
{
 8005e6c:	b5f8      	push	{r3, r4, r5, r6, r7, lr}
    if (pHandle->HFIndex == pHandle->HFRateBuff) /*  */
 8005e6e:	1cc7      	adds	r7, r0, #3
 8005e70:	7fc3      	ldrb	r3, [r0, #31]
 8005e72:	7ffa      	ldrb	r2, [r7, #31]
{
 8005e74:	0004      	movs	r4, r0
    if (pHandle->HFIndex == pHandle->HFRateBuff) /*  */
 8005e76:	429a      	cmp	r2, r3
 8005e78:	d000      	beq.n	8005e7c <MCPA_dataLog+0x10>
 8005e7a:	e0a1      	b.n	8005fc0 <MCPA_dataLog+0x154>
      pHandle->HFIndex = 0U;
 8005e7c:	2300      	movs	r3, #0
      if (0U == pHandle->bufferIndex)
 8005e7e:	8b05      	ldrh	r5, [r0, #24]
      pHandle->HFIndex = 0U;
 8005e80:	77c3      	strb	r3, [r0, #31]
      if (0U == pHandle->bufferIndex)
 8005e82:	429d      	cmp	r5, r3
 8005e84:	d135      	bne.n	8005ef2 <MCPA_dataLog+0x86>
        if (0U == pHandle->pTransportLayer->fGetBuffer (pHandle->pTransportLayer,
 8005e86:	0021      	movs	r1, r4
 8005e88:	6800      	ldr	r0, [r0, #0]
 8005e8a:	2209      	movs	r2, #9
 8005e8c:	6803      	ldr	r3, [r0, #0]
 8005e8e:	3114      	adds	r1, #20
 8005e90:	4798      	blx	r3
 8005e92:	2800      	cmp	r0, #0
 8005e94:	d02d      	beq.n	8005ef2 <MCPA_dataLog+0x86>
          *logValue = GLOBAL_TIMESTAMP; /* 32 first bits is used to store Timestamp */
 8005e96:	4b4c      	ldr	r3, [pc, #304]	; (8005fc8 <MCPA_dataLog+0x15c>)
 8005e98:	681a      	ldr	r2, [r3, #0]
 8005e9a:	6963      	ldr	r3, [r4, #20]
 8005e9c:	601a      	str	r2, [r3, #0]
          pHandle->bufferIndex = 4U;
 8005e9e:	2304      	movs	r3, #4
 8005ea0:	8323      	strh	r3, [r4, #24]
          pHandle->MFIndex = 0U; /* Restart the motif from scratch at each buffer */
 8005ea2:	1c63      	adds	r3, r4, #1
 8005ea4:	77dd      	strb	r5, [r3, #31]
          if (pHandle->Mark == pHandle->MarkBuff)
 8005ea6:	3328      	adds	r3, #40	; 0x28
 8005ea8:	781a      	ldrb	r2, [r3, #0]
 8005eaa:	7859      	ldrb	r1, [r3, #1]
 8005eac:	3301      	adds	r3, #1
 8005eae:	4291      	cmp	r1, r2
 8005eb0:	d01f      	beq.n	8005ef2 <MCPA_dataLog+0x86>
            pHandle->MFNumBuff           = pHandle->MFNum;
 8005eb2:	0025      	movs	r5, r4
            pHandle->MarkBuff            = pHandle->Mark;
 8005eb4:	701a      	strb	r2, [r3, #0]
            pHandle->HFNumBuff           = pHandle->HFNum;
 8005eb6:	1d26      	adds	r6, r4, #4
 8005eb8:	7ff2      	ldrb	r2, [r6, #31]
 8005eba:	1d63      	adds	r3, r4, #5
 8005ebc:	77da      	strb	r2, [r3, #31]
            pHandle->MFNumBuff           = pHandle->MFNum;
 8005ebe:	3508      	adds	r5, #8
 8005ec0:	7fe9      	ldrb	r1, [r5, #31]
 8005ec2:	3323      	adds	r3, #35	; 0x23
 8005ec4:	7019      	strb	r1, [r3, #0]
            pHandle->HFRateBuff          = pHandle->HFRate;
 8005ec6:	1ca3      	adds	r3, r4, #2
 8005ec8:	7fdb      	ldrb	r3, [r3, #31]
            pHandle->MFRateBuff          = pHandle->MFRate;
 8005eca:	1da0      	adds	r0, r4, #6
            pHandle->HFRateBuff          = pHandle->HFRate;
 8005ecc:	77fb      	strb	r3, [r7, #31]
            pHandle->MFRateBuff          = pHandle->MFRate;
 8005ece:	7fc0      	ldrb	r0, [r0, #31]
 8005ed0:	1de3      	adds	r3, r4, #7
 8005ed2:	77d8      	strb	r0, [r3, #31]
            pHandle->bufferTxTriggerBuff = pHandle->bufferTxTrigger;
 8005ed4:	8b63      	ldrh	r3, [r4, #26]
                         ((uint32_t)pHandle->HFNum + (uint32_t)pHandle->MFNum) * 4U); /* We store pointer here,
 8005ed6:	1852      	adds	r2, r2, r1
            pHandle->bufferTxTriggerBuff = pHandle->bufferTxTrigger;
 8005ed8:	83a3      	strh	r3, [r4, #28]
            (void)memcpy(pHandle->dataPtrTableBuff, pHandle->dataPtrTable,
 8005eda:	6861      	ldr	r1, [r4, #4]
                         ((uint32_t)pHandle->HFNum + (uint32_t)pHandle->MFNum) * 4U); /* We store pointer here,
 8005edc:	0092      	lsls	r2, r2, #2
            (void)memcpy(pHandle->dataPtrTableBuff, pHandle->dataPtrTable,
 8005ede:	68a0      	ldr	r0, [r4, #8]
 8005ee0:	f000 fb3e 	bl	8006560 <memcpy>
                         (uint32_t)pHandle->HFNum + (uint32_t)pHandle->MFNum); /* 1 size byte per ID */
 8005ee4:	7ff2      	ldrb	r2, [r6, #31]
 8005ee6:	7feb      	ldrb	r3, [r5, #31]
            (void)memcpy(pHandle->dataSizeTableBuff, pHandle->dataSizeTable,
 8005ee8:	6920      	ldr	r0, [r4, #16]
 8005eea:	68e1      	ldr	r1, [r4, #12]
                         (uint32_t)pHandle->HFNum + (uint32_t)pHandle->MFNum); /* 1 size byte per ID */
 8005eec:	18d2      	adds	r2, r2, r3
            (void)memcpy(pHandle->dataSizeTableBuff, pHandle->dataSizeTable,
 8005eee:	f000 fb37 	bl	8006560 <memcpy>
      if ((pHandle->bufferIndex > 0U)  && (pHandle->bufferIndex <= pHandle->bufferTxTriggerBuff))
 8005ef2:	8b25      	ldrh	r5, [r4, #24]
 8005ef4:	2d00      	cmp	r5, #0
 8005ef6:	d032      	beq.n	8005f5e <MCPA_dataLog+0xf2>
 8005ef8:	8ba2      	ldrh	r2, [r4, #28]
 8005efa:	42aa      	cmp	r2, r5
 8005efc:	d31c      	bcc.n	8005f38 <MCPA_dataLog+0xcc>
        for (i = 0U; i < pHandle->HFNumBuff; i++)
 8005efe:	2200      	movs	r2, #0
        logValue16 = (uint16_t *)&pHandle->currentBuffer[pHandle->bufferIndex]; //cstat !MISRAC2012-Rule-11.3
 8005f00:	6960      	ldr	r0, [r4, #20]
        for (i = 0U; i < pHandle->HFNumBuff; i++)
 8005f02:	1d63      	adds	r3, r4, #5
 8005f04:	7fdb      	ldrb	r3, [r3, #31]
        logValue16 = (uint16_t *)&pHandle->currentBuffer[pHandle->bufferIndex]; //cstat !MISRAC2012-Rule-11.3
 8005f06:	1945      	adds	r5, r0, r5
        for (i = 0U; i < pHandle->HFNumBuff; i++)
 8005f08:	b2d1      	uxtb	r1, r2
 8005f0a:	428b      	cmp	r3, r1
 8005f0c:	d828      	bhi.n	8005f60 <MCPA_dataLog+0xf4>
        if (pHandle->MFRateBuff < 254U)
 8005f0e:	1de2      	adds	r2, r4, #7
 8005f10:	7fd5      	ldrb	r5, [r2, #31]
 8005f12:	2dfd      	cmp	r5, #253	; 0xfd
 8005f14:	d80c      	bhi.n	8005f30 <MCPA_dataLog+0xc4>
          if (pHandle->MFIndex == pHandle->MFRateBuff)
 8005f16:	1c61      	adds	r1, r4, #1
 8005f18:	7fca      	ldrb	r2, [r1, #31]
 8005f1a:	4295      	cmp	r5, r2
 8005f1c:	d137      	bne.n	8005f8e <MCPA_dataLog+0x122>
            pHandle->MFIndex = 0U;
 8005f1e:	2200      	movs	r2, #0
 8005f20:	77ca      	strb	r2, [r1, #31]
            for (i = pHandle->HFNumBuff; i < (pHandle->MFNumBuff + pHandle->HFNumBuff); i++)
 8005f22:	0022      	movs	r2, r4
 8005f24:	3228      	adds	r2, #40	; 0x28
 8005f26:	7811      	ldrb	r1, [r2, #0]
 8005f28:	18c9      	adds	r1, r1, r3
              logValue = (uint32_t *)&pHandle->currentBuffer[pHandle->bufferIndex]; //cstat !MISRAC2012-Rule-11.3
 8005f2a:	8b25      	ldrh	r5, [r4, #24]
            for (i = pHandle->HFNumBuff; i < (pHandle->MFNumBuff + pHandle->HFNumBuff); i++)
 8005f2c:	428b      	cmp	r3, r1
 8005f2e:	db22      	blt.n	8005f76 <MCPA_dataLog+0x10a>
      if (pHandle->bufferIndex > pHandle->bufferTxTriggerBuff)
 8005f30:	8b22      	ldrh	r2, [r4, #24]
 8005f32:	8ba3      	ldrh	r3, [r4, #28]
 8005f34:	429a      	cmp	r2, r3
 8005f36:	d912      	bls.n	8005f5e <MCPA_dataLog+0xf2>
        if (pHandle->MFRateBuff == 254U) /* MFRateBuff = 254 means we dump MF data once per buffer */
 8005f38:	1de3      	adds	r3, r4, #7
 8005f3a:	7fdb      	ldrb	r3, [r3, #31]
 8005f3c:	6961      	ldr	r1, [r4, #20]
 8005f3e:	2bfe      	cmp	r3, #254	; 0xfe
 8005f40:	d028      	beq.n	8005f94 <MCPA_dataLog+0x128>
        *logValue16 = pHandle->MarkBuff; /* MarkBuff is actually 8 bits, but we add also 8 bits of the ASYNCID=0 after
 8005f42:	0022      	movs	r2, r4
 8005f44:	322a      	adds	r2, #42	; 0x2a
        logValue16 = (uint16_t *)&pHandle->currentBuffer[pHandle->bufferIndex]; //cstat !MISRAC2012-Rule-11.3
 8005f46:	8b23      	ldrh	r3, [r4, #24]
        *logValue16 = pHandle->MarkBuff; /* MarkBuff is actually 8 bits, but we add also 8 bits of the ASYNCID=0 after
 8005f48:	7812      	ldrb	r2, [r2, #0]
        pHandle->pTransportLayer->fSendPacket(pHandle->pTransportLayer, pHandle->currentBuffer,
 8005f4a:	6820      	ldr	r0, [r4, #0]
        *logValue16 = pHandle->MarkBuff; /* MarkBuff is actually 8 bits, but we add also 8 bits of the ASYNCID=0 after
 8005f4c:	52ca      	strh	r2, [r1, r3]
        pHandle->pTransportLayer->fSendPacket(pHandle->pTransportLayer, pHandle->currentBuffer,
 8005f4e:	8b22      	ldrh	r2, [r4, #24]
 8005f50:	2309      	movs	r3, #9
 8005f52:	3202      	adds	r2, #2
 8005f54:	6845      	ldr	r5, [r0, #4]
 8005f56:	b292      	uxth	r2, r2
 8005f58:	47a8      	blx	r5
        pHandle->bufferIndex = 0U;
 8005f5a:	2300      	movs	r3, #0
 8005f5c:	8323      	strh	r3, [r4, #24]
}
 8005f5e:	bdf8      	pop	{r3, r4, r5, r6, r7, pc}
          *logValue16 = *((uint16_t *) pHandle->dataPtrTableBuff[i]) ; //cstat !MISRAC2012-Rule-11.5
 8005f60:	68a1      	ldr	r1, [r4, #8]
 8005f62:	0096      	lsls	r6, r2, #2
 8005f64:	5871      	ldr	r1, [r6, r1]
 8005f66:	880e      	ldrh	r6, [r1, #0]
 8005f68:	0051      	lsls	r1, r2, #1
 8005f6a:	526e      	strh	r6, [r5, r1]
          pHandle->bufferIndex = pHandle->bufferIndex + 2U;
 8005f6c:	8b21      	ldrh	r1, [r4, #24]
 8005f6e:	3201      	adds	r2, #1
 8005f70:	3102      	adds	r1, #2
 8005f72:	8321      	strh	r1, [r4, #24]
        for (i = 0U; i < pHandle->HFNumBuff; i++)
 8005f74:	e7c8      	b.n	8005f08 <MCPA_dataLog+0x9c>
              *logValue = *((uint32_t *)pHandle->dataPtrTableBuff[i]); //cstat !MISRAC2012-Rule-11.5
 8005f76:	68a2      	ldr	r2, [r4, #8]
 8005f78:	009e      	lsls	r6, r3, #2
 8005f7a:	58b2      	ldr	r2, [r6, r2]
 8005f7c:	6812      	ldr	r2, [r2, #0]
 8005f7e:	5142      	str	r2, [r0, r5]
              pHandle->bufferIndex = pHandle->bufferIndex+pHandle->dataSizeTableBuff[i];
 8005f80:	6922      	ldr	r2, [r4, #16]
 8005f82:	5cd2      	ldrb	r2, [r2, r3]
            for (i = pHandle->HFNumBuff; i < (pHandle->MFNumBuff + pHandle->HFNumBuff); i++)
 8005f84:	3301      	adds	r3, #1
              pHandle->bufferIndex = pHandle->bufferIndex+pHandle->dataSizeTableBuff[i];
 8005f86:	18aa      	adds	r2, r5, r2
 8005f88:	8322      	strh	r2, [r4, #24]
            for (i = pHandle->HFNumBuff; i < (pHandle->MFNumBuff + pHandle->HFNumBuff); i++)
 8005f8a:	b2db      	uxtb	r3, r3
 8005f8c:	e7cd      	b.n	8005f2a <MCPA_dataLog+0xbe>
            pHandle->MFIndex ++;
 8005f8e:	3201      	adds	r2, #1
 8005f90:	77ca      	strb	r2, [r1, #31]
 8005f92:	e7cd      	b.n	8005f30 <MCPA_dataLog+0xc4>
          for (i = pHandle->HFNumBuff; i < (pHandle->MFNumBuff + pHandle->HFNumBuff); i++)
 8005f94:	0022      	movs	r2, r4
 8005f96:	1d63      	adds	r3, r4, #5
 8005f98:	3228      	adds	r2, #40	; 0x28
 8005f9a:	7fdb      	ldrb	r3, [r3, #31]
 8005f9c:	7815      	ldrb	r5, [r2, #0]
 8005f9e:	18ed      	adds	r5, r5, r3
            logValue = (uint32_t *)&pHandle->currentBuffer[pHandle->bufferIndex]; //cstat !MISRAC2012-Rule-11.3
 8005fa0:	8b20      	ldrh	r0, [r4, #24]
 8005fa2:	180a      	adds	r2, r1, r0
          for (i = pHandle->HFNumBuff; i < (pHandle->MFNumBuff + pHandle->HFNumBuff); i++)
 8005fa4:	42ab      	cmp	r3, r5
 8005fa6:	dacc      	bge.n	8005f42 <MCPA_dataLog+0xd6>
            *logValue = *((uint32_t *)pHandle->dataPtrTableBuff[i]); //cstat !MISRAC2012-Rule-11.5
 8005fa8:	68a6      	ldr	r6, [r4, #8]
 8005faa:	009f      	lsls	r7, r3, #2
 8005fac:	59be      	ldr	r6, [r7, r6]
 8005fae:	6836      	ldr	r6, [r6, #0]
 8005fb0:	6016      	str	r6, [r2, #0]
            pHandle->bufferIndex = pHandle->bufferIndex + pHandle->dataSizeTableBuff[i];
 8005fb2:	6922      	ldr	r2, [r4, #16]
 8005fb4:	5cd2      	ldrb	r2, [r2, r3]
          for (i = pHandle->HFNumBuff; i < (pHandle->MFNumBuff + pHandle->HFNumBuff); i++)
 8005fb6:	3301      	adds	r3, #1
            pHandle->bufferIndex = pHandle->bufferIndex + pHandle->dataSizeTableBuff[i];
 8005fb8:	1882      	adds	r2, r0, r2
 8005fba:	8322      	strh	r2, [r4, #24]
          for (i = pHandle->HFNumBuff; i < (pHandle->MFNumBuff + pHandle->HFNumBuff); i++)
 8005fbc:	b2db      	uxtb	r3, r3
 8005fbe:	e7ef      	b.n	8005fa0 <MCPA_dataLog+0x134>
      pHandle->HFIndex++;
 8005fc0:	3301      	adds	r3, #1
 8005fc2:	77c3      	strb	r3, [r0, #31]
}
 8005fc4:	e7cb      	b.n	8005f5e <MCPA_dataLog+0xf2>
 8005fc6:	46c0      	nop			; (mov r8, r8)
 8005fc8:	200009e4 	.word	0x200009e4

08005fcc <MCPA_flushDataLog>:
{
 8005fcc:	b5f8      	push	{r3, r4, r5, r6, r7, lr}
    if (pHandle->bufferIndex > 0U)
 8005fce:	8b03      	ldrh	r3, [r0, #24]
{
 8005fd0:	0004      	movs	r4, r0
    if (pHandle->bufferIndex > 0U)
 8005fd2:	2b00      	cmp	r3, #0
 8005fd4:	d012      	beq.n	8005ffc <MCPA_flushDataLog+0x30>
      if (pHandle->MFRateBuff == 254U) /* In case of flush, we must respect the packet format to allow
 8005fd6:	1dc3      	adds	r3, r0, #7
 8005fd8:	7fdb      	ldrb	r3, [r3, #31]
 8005fda:	6941      	ldr	r1, [r0, #20]
 8005fdc:	2bfe      	cmp	r3, #254	; 0xfe
 8005fde:	d00e      	beq.n	8005ffe <MCPA_flushDataLog+0x32>
      *logValue16 = pHandle->MarkBuff; /* MarkBuff is actually 8 bits, but we add also 8 bits of the ASYNCID=0 after
 8005fe0:	0022      	movs	r2, r4
 8005fe2:	322a      	adds	r2, #42	; 0x2a
      logValue16 = (uint16_t *)&pHandle->currentBuffer[pHandle->bufferIndex]; //cstat !MISRAC2012-Rule-11.3
 8005fe4:	8b23      	ldrh	r3, [r4, #24]
      *logValue16 = pHandle->MarkBuff; /* MarkBuff is actually 8 bits, but we add also 8 bits of the ASYNCID=0 after
 8005fe6:	7812      	ldrb	r2, [r2, #0]
      pHandle->pTransportLayer->fSendPacket (pHandle->pTransportLayer, pHandle->currentBuffer,
 8005fe8:	6820      	ldr	r0, [r4, #0]
      *logValue16 = pHandle->MarkBuff; /* MarkBuff is actually 8 bits, but we add also 8 bits of the ASYNCID=0 after
 8005fea:	52ca      	strh	r2, [r1, r3]
      pHandle->pTransportLayer->fSendPacket (pHandle->pTransportLayer, pHandle->currentBuffer,
 8005fec:	8b22      	ldrh	r2, [r4, #24]
 8005fee:	2309      	movs	r3, #9
 8005ff0:	3202      	adds	r2, #2
 8005ff2:	6845      	ldr	r5, [r0, #4]
 8005ff4:	b292      	uxth	r2, r2
 8005ff6:	47a8      	blx	r5
      pHandle->bufferIndex = 0U;
 8005ff8:	2300      	movs	r3, #0
 8005ffa:	8323      	strh	r3, [r4, #24]
}
 8005ffc:	bdf8      	pop	{r3, r4, r5, r6, r7, pc}
        for (i = pHandle->HFNumBuff; i < (pHandle->MFNumBuff + pHandle->HFNumBuff); i++)
 8005ffe:	0002      	movs	r2, r0
 8006000:	1d43      	adds	r3, r0, #5
 8006002:	3228      	adds	r2, #40	; 0x28
 8006004:	7fdb      	ldrb	r3, [r3, #31]
 8006006:	7815      	ldrb	r5, [r2, #0]
 8006008:	18ed      	adds	r5, r5, r3
         logValue = (uint32_t *)&pHandle->currentBuffer[pHandle->bufferIndex]; //cstat !MISRAC2012-Rule-11.3
 800600a:	8b20      	ldrh	r0, [r4, #24]
 800600c:	180a      	adds	r2, r1, r0
        for (i = pHandle->HFNumBuff; i < (pHandle->MFNumBuff + pHandle->HFNumBuff); i++)
 800600e:	42ab      	cmp	r3, r5
 8006010:	dae6      	bge.n	8005fe0 <MCPA_flushDataLog+0x14>
         *logValue = *((uint32_t *)pHandle->dataPtrTableBuff[i]); //cstat !MISRAC2012-Rule-11.5
 8006012:	68a6      	ldr	r6, [r4, #8]
 8006014:	009f      	lsls	r7, r3, #2
 8006016:	59be      	ldr	r6, [r7, r6]
 8006018:	6836      	ldr	r6, [r6, #0]
 800601a:	6016      	str	r6, [r2, #0]
         pHandle->bufferIndex = pHandle->bufferIndex+pHandle->dataSizeTableBuff[i];
 800601c:	6922      	ldr	r2, [r4, #16]
 800601e:	5cd2      	ldrb	r2, [r2, r3]
        for (i = pHandle->HFNumBuff; i < (pHandle->MFNumBuff + pHandle->HFNumBuff); i++)
 8006020:	3301      	adds	r3, #1
         pHandle->bufferIndex = pHandle->bufferIndex+pHandle->dataSizeTableBuff[i];
 8006022:	1882      	adds	r2, r0, r2
 8006024:	8322      	strh	r2, [r4, #24]
        for (i = pHandle->HFNumBuff; i < (pHandle->MFNumBuff + pHandle->HFNumBuff); i++)
 8006026:	b2db      	uxtb	r3, r3
 8006028:	e7ef      	b.n	800600a <MCPA_flushDataLog+0x3e>

0800602a <MCPA_cfgLog>:
  *
  * @param  *pHandle Pointer to the MCPA Handle
  * @param  *cfgdata Configuration of the Async communication
  */
uint8_t MCPA_cfgLog(MCPA_Handle_t *pHandle, uint8_t *cfgdata)
{
 800602a:	b5f0      	push	{r4, r5, r6, r7, lr}
    uint8_t i;
    uint16_t logSize = 0U; /* Max size of a log per iteration (HF+MF) */
    uint16_t newID, buffSize;
    uint8_t *pCfgData = cfgdata;

    buffSize = *((uint16_t *)pCfgData); //cstat !MISRAC2012-Rule-11.3
 800602c:	880b      	ldrh	r3, [r1, #0]
{
 800602e:	b085      	sub	sp, #20
 8006030:	0004      	movs	r4, r0
    buffSize = *((uint16_t *)pCfgData); //cstat !MISRAC2012-Rule-11.3
 8006032:	9301      	str	r3, [sp, #4]

    if (buffSize == 0U)
 8006034:	2b00      	cmp	r3, #0
 8006036:	d104      	bne.n	8006042 <MCPA_cfgLog+0x18>
    { 
      /* Switch Off condition */
      MCPA_stopDataLog(pHandle);
 8006038:	0020      	movs	r0, r4
 800603a:	f7ff fefb 	bl	8005e34 <MCPA_stopDataLog>
  uint8_t result = MCP_CMD_OK;
 800603e:	2000      	movs	r0, #0
 8006040:	e005      	b.n	800604e <MCPA_cfgLog+0x24>
    }
    else if (buffSize > pHandle->pTransportLayer->txAsyncMaxPayload)
 8006042:	6803      	ldr	r3, [r0, #0]
 8006044:	9a01      	ldr	r2, [sp, #4]
 8006046:	89db      	ldrh	r3, [r3, #14]
 8006048:	4293      	cmp	r3, r2
 800604a:	d202      	bcs.n	8006052 <MCPA_cfgLog+0x28>
    {
      result = MCP_ERROR_NO_TXASYNC_SPACE;
 800604c:	2009      	movs	r0, #9
    }
#ifdef NULL_PTR_CHECK_MCPA
  }
#endif
  return (result);
}
 800604e:	b005      	add	sp, #20
 8006050:	bdf0      	pop	{r4, r5, r6, r7, pc}
      pHandle->HFRate = *((uint8_t *)&pCfgData[2]);
 8006052:	788a      	ldrb	r2, [r1, #2]
 8006054:	1c83      	adds	r3, r0, #2
 8006056:	77da      	strb	r2, [r3, #31]
      pHandle->HFNum  = *((uint8_t *)&pCfgData[3]);
 8006058:	78cb      	ldrb	r3, [r1, #3]
 800605a:	1d02      	adds	r2, r0, #4
 800605c:	77d3      	strb	r3, [r2, #31]
      pHandle->MFRate = *((uint8_t *)&pCfgData[4]);
 800605e:	7908      	ldrb	r0, [r1, #4]
 8006060:	1da2      	adds	r2, r4, #6
 8006062:	77d0      	strb	r0, [r2, #31]
      pHandle->MFNum  = *((uint8_t *)&pCfgData[5]);
 8006064:	0020      	movs	r0, r4
 8006066:	794a      	ldrb	r2, [r1, #5]
 8006068:	3008      	adds	r0, #8
 800606a:	77c2      	strb	r2, [r0, #31]
      if ((pHandle->HFNum + pHandle->MFNum) <= pHandle->nbrOfDataLog)
 800606c:	189b      	adds	r3, r3, r2
 800606e:	7fa2      	ldrb	r2, [r4, #30]
        result = MCP_ERROR_BAD_RAW_FORMAT;
 8006070:	200a      	movs	r0, #10
      if ((pHandle->HFNum + pHandle->MFNum) <= pHandle->nbrOfDataLog)
 8006072:	4293      	cmp	r3, r2
 8006074:	dceb      	bgt.n	800604e <MCPA_cfgLog+0x24>
    uint16_t logSize = 0U; /* Max size of a log per iteration (HF+MF) */
 8006076:	2600      	movs	r6, #0
        for (i = 0; i < (pHandle->HFNum + pHandle->MFNum); i++)
 8006078:	0035      	movs	r5, r6
      pCfgData = &pCfgData[6]; /* Start of the HF IDs */
 800607a:	1d8f      	adds	r7, r1, #6
        for (i = 0; i < (pHandle->HFNum + pHandle->MFNum); i++)
 800607c:	0022      	movs	r2, r4
 800607e:	1d23      	adds	r3, r4, #4
 8006080:	9303      	str	r3, [sp, #12]
 8006082:	3208      	adds	r2, #8
 8006084:	7fdb      	ldrb	r3, [r3, #31]
 8006086:	7fd2      	ldrb	r2, [r2, #31]
 8006088:	189b      	adds	r3, r3, r2
 800608a:	429d      	cmp	r5, r3
 800608c:	db0e      	blt.n	80060ac <MCPA_cfgLog+0x82>
        if (buffSize < (logSize + 2U + 4U))
 800608e:	9a01      	ldr	r2, [sp, #4]
 8006090:	1db3      	adds	r3, r6, #6
 8006092:	429a      	cmp	r2, r3
 8006094:	d3da      	bcc.n	800604c <MCPA_cfgLog+0x22>
          pHandle->bufferTxTrigger = buffSize-logSize - 2U; /* 2 is required to add the last Mark byte and NUL
 8006096:	0013      	movs	r3, r2
          pHandle->Mark = *((uint8_t *)pCfgData);
 8006098:	0022      	movs	r2, r4
          pHandle->bufferTxTrigger = buffSize-logSize - 2U; /* 2 is required to add the last Mark byte and NUL
 800609a:	3b02      	subs	r3, #2
 800609c:	1b9b      	subs	r3, r3, r6
 800609e:	8363      	strh	r3, [r4, #26]
          pHandle->Mark = *((uint8_t *)pCfgData);
 80060a0:	783b      	ldrb	r3, [r7, #0]
 80060a2:	3229      	adds	r2, #41	; 0x29
 80060a4:	7013      	strb	r3, [r2, #0]
          if (0U == pHandle->Mark)
 80060a6:	2b00      	cmp	r3, #0
 80060a8:	d1c9      	bne.n	800603e <MCPA_cfgLog+0x14>
 80060aa:	e7c5      	b.n	8006038 <MCPA_cfgLog+0xe>
          newID = *((uint16_t *)pCfgData); //cstat !MISRAC2012-Rule-11.3
 80060ac:	883b      	ldrh	r3, [r7, #0]
          (void)RI_GetPtrReg(newID, &pHandle->dataPtrTable[i]);
 80060ae:	6861      	ldr	r1, [r4, #4]
          newID = *((uint16_t *)pCfgData); //cstat !MISRAC2012-Rule-11.3
 80060b0:	9302      	str	r3, [sp, #8]
          (void)RI_GetPtrReg(newID, &pHandle->dataPtrTable[i]);
 80060b2:	00ab      	lsls	r3, r5, #2
 80060b4:	18c9      	adds	r1, r1, r3
 80060b6:	9802      	ldr	r0, [sp, #8]
 80060b8:	f7fd fe34 	bl	8003d24 <RI_GetPtrReg>
          pHandle->dataSizeTable[i] = (i < pHandle->HFNum ) ? 2U : RI_GetIDSize(newID);
 80060bc:	9b03      	ldr	r3, [sp, #12]
 80060be:	2002      	movs	r0, #2
 80060c0:	7fdb      	ldrb	r3, [r3, #31]
 80060c2:	42ab      	cmp	r3, r5
 80060c4:	d802      	bhi.n	80060cc <MCPA_cfgLog+0xa2>
 80060c6:	9802      	ldr	r0, [sp, #8]
 80060c8:	f7fd fe20 	bl	8003d0c <RI_GetIDSize>
 80060cc:	68e3      	ldr	r3, [r4, #12]
 80060ce:	3702      	adds	r7, #2
 80060d0:	5558      	strb	r0, [r3, r5]
          logSize = logSize+pHandle->dataSizeTable[i];
 80060d2:	68e3      	ldr	r3, [r4, #12]
 80060d4:	5d5b      	ldrb	r3, [r3, r5]
        for (i = 0; i < (pHandle->HFNum + pHandle->MFNum); i++)
 80060d6:	3501      	adds	r5, #1
          logSize = logSize+pHandle->dataSizeTable[i];
 80060d8:	18f6      	adds	r6, r6, r3
 80060da:	b2b6      	uxth	r6, r6
        for (i = 0; i < (pHandle->HFNum + pHandle->MFNum); i++)
 80060dc:	b2ed      	uxtb	r5, r5
 80060de:	e7cd      	b.n	800607c <MCPA_cfgLog+0x52>

080060e0 <NTC_Clear>:
    /* nothing to do */
  }
  else
  {
#endif
    pHandle->hAvTemp_d = 0U;
 80060e0:	2300      	movs	r3, #0
 80060e2:	8043      	strh	r3, [r0, #2]
#ifdef NULL_PTR_CHECK_NTC_TEMP_SENS
  }
#endif
}
 80060e4:	4770      	bx	lr

080060e6 <NTC_Init>:
    if (REAL_SENSOR == pHandle->bSensorType)
 80060e6:	7803      	ldrb	r3, [r0, #0]
{
 80060e8:	b510      	push	{r4, lr}
    if (REAL_SENSOR == pHandle->bSensorType)
 80060ea:	2b00      	cmp	r3, #0
 80060ec:	d102      	bne.n	80060f4 <NTC_Init+0xe>
      NTC_Clear(pHandle);
 80060ee:	f7ff fff7 	bl	80060e0 <NTC_Clear>
}
 80060f2:	bd10      	pop	{r4, pc}
      pHandle->hFaultState = MC_NO_ERROR;
 80060f4:	2300      	movs	r3, #0
 80060f6:	8103      	strh	r3, [r0, #8]
      pHandle->hAvTemp_d = pHandle->hExpectedTemp_d;
 80060f8:	8883      	ldrh	r3, [r0, #4]
 80060fa:	8043      	strh	r3, [r0, #2]
}
 80060fc:	e7f9      	b.n	80060f2 <NTC_Init+0xc>

080060fe <NTC_GetAvTemp_C>:
  else
  {
#endif
    int32_t wTemp;

    if (REAL_SENSOR == pHandle->bSensorType)
 80060fe:	7803      	ldrb	r3, [r0, #0]
 8006100:	2b00      	cmp	r3, #0
 8006102:	d10a      	bne.n	800611a <NTC_GetAvTemp_C+0x1c>
    {
      wTemp = (int32_t)pHandle->hAvTemp_d;
      wTemp -= ((int32_t)pHandle->wV0);
 8006104:	6942      	ldr	r2, [r0, #20]
      wTemp = (int32_t)pHandle->hAvTemp_d;
 8006106:	8843      	ldrh	r3, [r0, #2]
      wTemp -= ((int32_t)pHandle->wV0);
 8006108:	1a9b      	subs	r3, r3, r2
      wTemp *= pHandle->hSensitivity;
 800610a:	2110      	movs	r1, #16
 800610c:	5e42      	ldrsh	r2, [r0, r1]
#ifndef FULL_MISRA_C_COMPLIANCY_NTC_TEMP
      //cstat !MISRAC2012-Rule-1.3_n !ATH-shift-neg !MISRAC2012-Rule-10.1_R6
      wTemp = (wTemp >> 16) + (int32_t)pHandle->hT0;
 800610e:	8b00      	ldrh	r0, [r0, #24]
      wTemp *= pHandle->hSensitivity;
 8006110:	4353      	muls	r3, r2
      wTemp = (wTemp >> 16) + (int32_t)pHandle->hT0;
 8006112:	141b      	asrs	r3, r3, #16
 8006114:	18c0      	adds	r0, r0, r3
    }
    returnValue = (int16_t)wTemp;
#ifdef NULL_PTR_CHECK_NTC_TEMP_SENS
  }
#endif
  return (returnValue);
 8006116:	b200      	sxth	r0, r0
}
 8006118:	4770      	bx	lr
      wTemp = (int32_t)pHandle->hExpectedTemp_C;
 800611a:	88c0      	ldrh	r0, [r0, #6]
 800611c:	e7fb      	b.n	8006116 <NTC_GetAvTemp_C+0x18>

0800611e <PID_HandleInit>:
    /* Nothing to do */
  }
  else
  {
#endif
    pHandle->hKpGain =  pHandle->hDefKpGain;
 800611e:	6803      	ldr	r3, [r0, #0]
 8006120:	6043      	str	r3, [r0, #4]
    pHandle->hKiGain =  pHandle->hDefKiGain;
    pHandle->hKdGain =  pHandle->hDefKdGain;
 8006122:	8c03      	ldrh	r3, [r0, #32]
 8006124:	8443      	strh	r3, [r0, #34]	; 0x22
    pHandle->wIntegralTerm = 0;
 8006126:	2300      	movs	r3, #0
 8006128:	6083      	str	r3, [r0, #8]
    pHandle->wPrevProcessVarError = 0;
 800612a:	6283      	str	r3, [r0, #40]	; 0x28
#ifdef NULL_PTR_CHECK_PID_REG
  }
#endif
}
 800612c:	4770      	bx	lr

0800612e <PID_SetKP>:
    /* Nothing to do */
  }
  else
  {
#endif
    pHandle->hKpGain = hKpGain;
 800612e:	8081      	strh	r1, [r0, #4]
#ifdef NULL_PTR_CHECK_PID_REG
  }
#endif
}
 8006130:	4770      	bx	lr

08006132 <PID_SetKI>:
    /* Nothing to do */
  }
  else
  {
#endif
    pHandle->hKiGain = hKiGain;
 8006132:	80c1      	strh	r1, [r0, #6]
#ifdef NULL_PTR_CHECK_PID_REG
  }
#endif
}
 8006134:	4770      	bx	lr

08006136 <PID_GetKP>:
__weak int16_t PID_GetKP(PID_Handle_t *pHandle) //cstat !MISRAC2012-Rule-8.13
{
#ifdef NULL_PTR_CHECK_PID_REG
  return ((MC_NULL == pHandle) ? 0 : pHandle->hKpGain);
#else
  return (pHandle->hKpGain);
 8006136:	2304      	movs	r3, #4
 8006138:	5ec0      	ldrsh	r0, [r0, r3]
#endif
}
 800613a:	4770      	bx	lr

0800613c <PID_GetKI>:
__weak int16_t PID_GetKI(PID_Handle_t *pHandle) //cstat !MISRAC2012-Rule-8.13
{
#ifdef NULL_PTR_CHECK_PID_REG
  return ((MC_NULL == pHandle) ? 0 : pHandle->hKiGain);
#else
  return (pHandle->hKiGain);
 800613c:	2306      	movs	r3, #6
 800613e:	5ec0      	ldrsh	r0, [r0, r3]
#endif
}
 8006140:	4770      	bx	lr

08006142 <PID_SetIntegralTerm>:
    /* Nothing to do */
  }
  else
  {
#endif
    pHandle->wIntegralTerm = wIntegralTermValue;
 8006142:	6081      	str	r1, [r0, #8]
#ifdef NULL_PTR_CHECK_PID_REG
  }
#endif
  return;
}
 8006144:	4770      	bx	lr

08006146 <PID_SetKD>:
    /* Nothing to do */
  }
  else
  {
#endif
    pHandle->hKdGain = hKdGain;
 8006146:	8441      	strh	r1, [r0, #34]	; 0x22
#ifdef NULL_PTR_CHECK_PID_REG
  }
#endif
}
 8006148:	4770      	bx	lr

0800614a <PID_GetKD>:
__weak int16_t PID_GetKD(PID_Handle_t *pHandle) //cstat !MISRAC2012-Rule-8.13
{
#ifdef NULL_PTR_CHECK_PID_REG
  return ((MC_NULL == pHandle) ? 0 : pHandle->hKdGain);
#else
  return (pHandle->hKdGain);
 800614a:	2322      	movs	r3, #34	; 0x22
 800614c:	5ec0      	ldrsh	r0, [r0, r3]
#endif
}
 800614e:	4770      	bx	lr

08006150 <PI_Controller>:
  * 
  * The resulting value is then saturated by the upper and lower output limit values before 
  * being returned.
  */
__weak int16_t PI_Controller(PID_Handle_t *pHandle, int32_t wProcessVarError)
{
 8006150:	b570      	push	{r4, r5, r6, lr}
    int32_t wProportional_Term;
    int32_t wIntegral_Term;
    int32_t wOutput_32;
    int32_t wIntegral_sum_temp;
    int32_t wDischarge = 0;
    int16_t hUpperOutputLimit = pHandle->hUpperOutputLimit;
 8006152:	2314      	movs	r3, #20
 8006154:	5ec5      	ldrsh	r5, [r0, r3]
    int16_t hLowerOutputLimit = pHandle->hLowerOutputLimit;
 8006156:	2316      	movs	r3, #22
 8006158:	5ec4      	ldrsh	r4, [r0, r3]

    /* Proportional term computation*/
    wProportional_Term = pHandle->hKpGain * wProcessVarError;

    /* Integral term computation */
    if (0 == pHandle->hKiGain)
 800615a:	2206      	movs	r2, #6
 800615c:	5e86      	ldrsh	r6, [r0, r2]
    wProportional_Term = pHandle->hKpGain * wProcessVarError;
 800615e:	2204      	movs	r2, #4
 8006160:	5e83      	ldrsh	r3, [r0, r2]
 8006162:	2200      	movs	r2, #0
 8006164:	434b      	muls	r3, r1
    if (0 == pHandle->hKiGain)
 8006166:	4296      	cmp	r6, r2
 8006168:	d00f      	beq.n	800618a <PI_Controller+0x3a>
    {
      pHandle->wIntegralTerm = 0;
    }
    else
    {
      wIntegral_Term = pHandle->hKiGain * wProcessVarError;
 800616a:	4371      	muls	r1, r6
      wIntegral_sum_temp = pHandle->wIntegralTerm + wIntegral_Term;
 800616c:	6882      	ldr	r2, [r0, #8]

      if (wIntegral_sum_temp < 0)
 800616e:	1856      	adds	r6, r2, r1
 8006170:	d519      	bpl.n	80061a6 <PI_Controller+0x56>
      {
        if (pHandle->wIntegralTerm > 0)
 8006172:	2a00      	cmp	r2, #0
 8006174:	dd02      	ble.n	800617c <PI_Controller+0x2c>
        {
          if (wIntegral_Term > 0)
 8006176:	2900      	cmp	r1, #0
 8006178:	dd00      	ble.n	800617c <PI_Controller+0x2c>
          {
            wIntegral_sum_temp = INT32_MAX;
 800617a:	4e11      	ldr	r6, [pc, #68]	; (80061c0 <PI_Controller+0x70>)
        {
          /* Nothing to do */
        }
      }

      if (wIntegral_sum_temp > pHandle->wUpperIntegralLimit)
 800617c:	68c2      	ldr	r2, [r0, #12]
 800617e:	42b2      	cmp	r2, r6
 8006180:	db03      	blt.n	800618a <PI_Controller+0x3a>
      {
        pHandle->wIntegralTerm = pHandle->wUpperIntegralLimit;
      }
      else if (wIntegral_sum_temp < pHandle->wLowerIntegralLimit)
 8006182:	6902      	ldr	r2, [r0, #16]
 8006184:	42b2      	cmp	r2, r6
 8006186:	da00      	bge.n	800618a <PI_Controller+0x3a>
 8006188:	0032      	movs	r2, r6
    /* WARNING: the below instruction is not MISRA compliant, user should verify
               that Cortex-M3 assembly instruction ASR (arithmetic shift right)
               is used by the compiler to perform the shifts (instead of LSR
               logical shift right)*/
    //cstat !MISRAC2012-Rule-1.3_n !ATH-shift-neg !MISRAC2012-Rule-10.1_R6
    wOutput_32 = (wProportional_Term >> pHandle->hKpDivisorPOW2) + (pHandle->wIntegralTerm >> pHandle->hKiDivisorPOW2);
 800618a:	0016      	movs	r6, r2
 800618c:	8b81      	ldrh	r1, [r0, #28]
 800618e:	410b      	asrs	r3, r1
 8006190:	8bc1      	ldrh	r1, [r0, #30]
 8006192:	410e      	asrs	r6, r1
 8006194:	199b      	adds	r3, r3, r6
#else
    wOutput_32 = (wProportional_Term / (int32_t)pHandle->hKpDivisor)
              + (pHandle->wIntegralTerm / (int32_t)pHandle->hKiDivisor);
#endif

    if (wOutput_32 > hUpperOutputLimit)
 8006196:	429d      	cmp	r5, r3
 8006198:	da0b      	bge.n	80061b2 <PI_Controller+0x62>
    {
      wDischarge = hUpperOutputLimit - wOutput_32;
 800619a:	1ae9      	subs	r1, r5, r3
      wOutput_32 = hUpperOutputLimit;
 800619c:	002b      	movs	r3, r5
    else
    {
      /* Nothing to do here */
    }

    pHandle->wIntegralTerm += wDischarge;
 800619e:	1889      	adds	r1, r1, r2
 80061a0:	6081      	str	r1, [r0, #8]
    returnValue = (int16_t)wOutput_32;
#ifdef NULL_PTR_CHECK_PID_REG
  }
#endif
  return (returnValue);
 80061a2:	b218      	sxth	r0, r3
}
 80061a4:	bd70      	pop	{r4, r5, r6, pc}
        if (pHandle->wIntegralTerm < 0)
 80061a6:	2a00      	cmp	r2, #0
 80061a8:	dae8      	bge.n	800617c <PI_Controller+0x2c>
          if (wIntegral_Term < 0)
 80061aa:	2900      	cmp	r1, #0
 80061ac:	dae6      	bge.n	800617c <PI_Controller+0x2c>
            wIntegral_sum_temp = -INT32_MAX;
 80061ae:	4e05      	ldr	r6, [pc, #20]	; (80061c4 <PI_Controller+0x74>)
 80061b0:	e7e4      	b.n	800617c <PI_Controller+0x2c>
    int32_t wDischarge = 0;
 80061b2:	2100      	movs	r1, #0
    else if (wOutput_32 < hLowerOutputLimit)
 80061b4:	429c      	cmp	r4, r3
 80061b6:	ddf2      	ble.n	800619e <PI_Controller+0x4e>
      wDischarge = hLowerOutputLimit - wOutput_32;
 80061b8:	1ae1      	subs	r1, r4, r3
      wOutput_32 = hLowerOutputLimit;
 80061ba:	0023      	movs	r3, r4
 80061bc:	e7ef      	b.n	800619e <PI_Controller+0x4e>
 80061be:	46c0      	nop			; (mov r8, r8)
 80061c0:	7fffffff 	.word	0x7fffffff
 80061c4:	80000001 	.word	0x80000001

080061c8 <PQD_CalcElMotorPower>:
  * computed as an int16_t value.
  * 
  * @param pHandle Handle on the related PQD Motor Power Measurement component instance.
  */
__weak void PQD_CalcElMotorPower(PQD_MotorPowMeas_Handle_t *pHandle)
{
 80061c8:	b510      	push	{r4, lr}
  }
  else
  {
#endif
    int32_t wAux;
    qd_t Iqd = pHandle->pFOCVars->Iqd;
 80061ca:	6883      	ldr	r3, [r0, #8]
    qd_t Vqd = pHandle->pFOCVars->Vqd;

    wAux = ((int32_t)Iqd.q * (int32_t)Vqd.q)
 80061cc:	210c      	movs	r1, #12
 80061ce:	5e5a      	ldrsh	r2, [r3, r1]
 80061d0:	2416      	movs	r4, #22
 80061d2:	5f19      	ldrsh	r1, [r3, r4]
 80061d4:	4351      	muls	r1, r2
         + ((int32_t)Iqd.d * (int32_t)Vqd.d);
 80061d6:	240e      	movs	r4, #14
 80061d8:	5f1a      	ldrsh	r2, [r3, r4]
 80061da:	2418      	movs	r4, #24
 80061dc:	5f1b      	ldrsh	r3, [r3, r4]
    wAux /= 65536;

    /* pHandle->hAvrgElMotorPower += (wAux - pHandle->hAvrgElMotorPower) >> 4 */
    pHandle->hAvrgElMotorPower += (int16_t)((wAux - (int32_t)pHandle->hAvrgElMotorPower) / 16);
 80061de:	240f      	movs	r4, #15
         + ((int32_t)Iqd.d * (int32_t)Vqd.d);
 80061e0:	4353      	muls	r3, r2
    wAux = ((int32_t)Iqd.q * (int32_t)Vqd.q)
 80061e2:	18c9      	adds	r1, r1, r3
    pHandle->hAvrgElMotorPower += (int16_t)((wAux - (int32_t)pHandle->hAvrgElMotorPower) / 16);
 80061e4:	2300      	movs	r3, #0
 80061e6:	5ec2      	ldrsh	r2, [r0, r3]
    wAux /= 65536;
 80061e8:	17cb      	asrs	r3, r1, #31
 80061ea:	b29b      	uxth	r3, r3
 80061ec:	185b      	adds	r3, r3, r1
 80061ee:	141b      	asrs	r3, r3, #16
    pHandle->hAvrgElMotorPower += (int16_t)((wAux - (int32_t)pHandle->hAvrgElMotorPower) / 16);
 80061f0:	1a9b      	subs	r3, r3, r2
 80061f2:	17d9      	asrs	r1, r3, #31
 80061f4:	4021      	ands	r1, r4
 80061f6:	18cb      	adds	r3, r1, r3
 80061f8:	111b      	asrs	r3, r3, #4
 80061fa:	189b      	adds	r3, r3, r2
 80061fc:	8003      	strh	r3, [r0, #0]

#ifdef NULL_PTR_CHECK_PQD_MOT_POW_MEAS
  }
#endif
}
 80061fe:	bd10      	pop	{r4, pc}

08006200 <PQD_Clear>:
    /* nothing to do */
  }
  else
  {
#endif
    pHandle->hAvrgElMotorPower = 0;
 8006200:	2300      	movs	r3, #0
 8006202:	8003      	strh	r3, [r0, #0]
#ifdef NULL_PTR_CHECK_MOT_POW_MES
  }
#endif
}
 8006204:	4770      	bx	lr

08006206 <PQD_GetAvrgElMotorPowerW>:
  * 
  * @param pHandle pointer on the related component instance.
  * @retval float_t The average measured motor power expressed in Watts.
  */
__weak float_t PQD_GetAvrgElMotorPowerW(const PQD_MotorPowMeas_Handle_t *pHandle)
{
 8006206:	b570      	push	{r4, r5, r6, lr}
 8006208:	0004      	movs	r4, r0
  else
  {
#endif

  /* First perform an integer multiplication, then a float one. */
  PowerW = ((float_t)pHandle->hAvrgElMotorPower * (float_t)VBS_GetAvBusVoltage_V(pHandle->pVBS)) * pHandle->ConvFact;
 800620a:	2300      	movs	r3, #0
 800620c:	5ec0      	ldrsh	r0, [r0, r3]
 800620e:	f7fa fa53 	bl	80006b8 <__aeabi_i2f>
 8006212:	1c05      	adds	r5, r0, #0
 8006214:	68e0      	ldr	r0, [r4, #12]
 8006216:	f7ff fdd5 	bl	8005dc4 <VBS_GetAvBusVoltage_V>
 800621a:	f7fa fa9f 	bl	800075c <__aeabi_ui2f>
 800621e:	1c29      	adds	r1, r5, #0
 8006220:	f7fa f8fc 	bl	800041c <__aeabi_fmul>
 8006224:	6861      	ldr	r1, [r4, #4]
 8006226:	f7fa f8f9 	bl	800041c <__aeabi_fmul>

#ifdef NULL_PTR_CHECK_PQD_MOT_POW_MEAS
  }
#endif
  return (PowerW);
}
 800622a:	bd70      	pop	{r4, r5, r6, pc}

0800622c <waitForPolarizationEnd>:
  * @param  repCnt Repetition counter value.
  * @param  cnt Polarization counter value.
  */
//cstat !MISRAC2012-Rule-8.13
__weak void waitForPolarizationEnd(TIM_TypeDef *TIMx, uint16_t  *SWerror, uint8_t repCnt, volatile uint8_t *cnt)
{
 800622c:	b5f0      	push	{r4, r5, r6, r7, lr}
 800622e:	2503      	movs	r5, #3
  {
#endif
    uint16_t hCalibrationPeriodCounter;
    uint16_t hMaxPeriodsNumber;

    hMaxPeriodsNumber = ((uint16_t)2 * NB_CONVERSIONS) * (((uint16_t)repCnt + 1U) >> 1);
 8006230:	3201      	adds	r2, #1
 8006232:	0854      	lsrs	r4, r2, #1
  return ((READ_BIT(TIMx->SR, TIM_SR_CC1IF) == (TIM_SR_CC1IF)) ? 1UL : 0UL);
 8006234:	2702      	movs	r7, #2

    /* Wait for NB_CONVERSIONS to be executed */
    LL_TIM_ClearFlag_CC1(TIMx);
    hCalibrationPeriodCounter = 0u;
 8006236:	2200      	movs	r2, #0
  WRITE_REG(TIMx->SR, ~(TIM_SR_CC1IF));
 8006238:	426d      	negs	r5, r5
    hMaxPeriodsNumber = ((uint16_t)2 * NB_CONVERSIONS) * (((uint16_t)repCnt + 1U) >> 1);
 800623a:	0164      	lsls	r4, r4, #5
 800623c:	6105      	str	r5, [r0, #16]
    while (*cnt < NB_CONVERSIONS)
 800623e:	781e      	ldrb	r6, [r3, #0]
 8006240:	2e0f      	cmp	r6, #15
 8006242:	d80c      	bhi.n	800625e <waitForPolarizationEnd+0x32>
  return ((READ_BIT(TIMx->SR, TIM_SR_CC1IF) == (TIM_SR_CC1IF)) ? 1UL : 0UL);
 8006244:	6906      	ldr	r6, [r0, #16]
 8006246:	423e      	tst	r6, r7
 8006248:	d0f9      	beq.n	800623e <waitForPolarizationEnd+0x12>
    {
      if ((uint32_t)ERROR == LL_TIM_IsActiveFlag_CC1(TIMx))
      {
        LL_TIM_ClearFlag_CC1(TIMx);
        hCalibrationPeriodCounter++;
 800624a:	3201      	adds	r2, #1
 800624c:	b292      	uxth	r2, r2
  WRITE_REG(TIMx->SR, ~(TIM_SR_CC1IF));
 800624e:	6105      	str	r5, [r0, #16]
        if (hCalibrationPeriodCounter >= hMaxPeriodsNumber)
 8006250:	4294      	cmp	r4, r2
 8006252:	d8f4      	bhi.n	800623e <waitForPolarizationEnd+0x12>
        {
          if (*cnt < NB_CONVERSIONS)
 8006254:	781e      	ldrb	r6, [r3, #0]
 8006256:	2e0f      	cmp	r6, #15
 8006258:	d8f1      	bhi.n	800623e <waitForPolarizationEnd+0x12>
          {
            *SWerror = 1u;
 800625a:	2301      	movs	r3, #1
 800625c:	800b      	strh	r3, [r1, #0]
      }
    }
#ifdef NULL_PTR_CHECK_POW_COM
  }
#endif
  }
 800625e:	bdf0      	pop	{r4, r5, r6, r7, pc}

08006260 <RVBS_Clear>:
  {
#endif
    uint16_t aux;
    uint16_t index;

    aux = (pHandle->OverVoltageThreshold + pHandle->UnderVoltageThreshold) / 2U;
 8006260:	8a42      	ldrh	r2, [r0, #18]
 8006262:	8983      	ldrh	r3, [r0, #12]
{
 8006264:	b510      	push	{r4, lr}
    aux = (pHandle->OverVoltageThreshold + pHandle->UnderVoltageThreshold) / 2U;
 8006266:	189b      	adds	r3, r3, r2
    for (index = 0U; index < pHandle->LowPassFilterBW; index++)
 8006268:	2200      	movs	r2, #0
    aux = (pHandle->OverVoltageThreshold + pHandle->UnderVoltageThreshold) / 2U;
 800626a:	085b      	lsrs	r3, r3, #1
    for (index = 0U; index < pHandle->LowPassFilterBW; index++)
 800626c:	8941      	ldrh	r1, [r0, #10]
 800626e:	4291      	cmp	r1, r2
 8006270:	d804      	bhi.n	800627c <RVBS_Clear+0x1c>
    {
      pHandle->aBuffer[index] = aux;
    }
    pHandle->_Super.LatestConv = aux;
 8006272:	8083      	strh	r3, [r0, #4]
    pHandle->_Super.AvBusVoltage_d = aux;
 8006274:	80c3      	strh	r3, [r0, #6]
    pHandle->index = 0U;
 8006276:	2300      	movs	r3, #0
 8006278:	7643      	strb	r3, [r0, #25]
#ifdef NULL_PTR_CHECK_RDIV_BUS_VLT_SNS
  }
#endif
}
 800627a:	bd10      	pop	{r4, pc}
      pHandle->aBuffer[index] = aux;
 800627c:	6941      	ldr	r1, [r0, #20]
 800627e:	0054      	lsls	r4, r2, #1
    for (index = 0U; index < pHandle->LowPassFilterBW; index++)
 8006280:	3201      	adds	r2, #1
      pHandle->aBuffer[index] = aux;
 8006282:	5263      	strh	r3, [r4, r1]
    for (index = 0U; index < pHandle->LowPassFilterBW; index++)
 8006284:	b292      	uxth	r2, r2
 8006286:	e7f1      	b.n	800626c <RVBS_Clear+0xc>

08006288 <RVBS_Init>:
{
 8006288:	b510      	push	{r4, lr}
    RVBS_Clear(pHandle);
 800628a:	f7ff ffe9 	bl	8006260 <RVBS_Clear>
}
 800628e:	bd10      	pop	{r4, pc}

08006290 <RVBS_CheckFaultState>:
  *         bus voltage and protection threshold values
  * @param  pHandle related RDivider_Handle_t
  * @retval uint16_t Fault code error
  */
__weak uint16_t RVBS_CheckFaultState(RDivider_Handle_t *pHandle)
{
 8006290:	b530      	push	{r4, r5, lr}
  }
  else
  {
#endif
	/* If both thresholds are equal, single threshold feature is used */
	if (pHandle->OverVoltageThreshold == pHandle->OverVoltageThresholdLow)
 8006292:	8981      	ldrh	r1, [r0, #12]
 8006294:	89c5      	ldrh	r5, [r0, #14]
{
 8006296:	0003      	movs	r3, r0
	{
      if (pHandle->_Super.AvBusVoltage_d > pHandle->OverVoltageThreshold)
 8006298:	88c2      	ldrh	r2, [r0, #6]
	if (pHandle->OverVoltageThreshold == pHandle->OverVoltageThresholdLow)
 800629a:	42a9      	cmp	r1, r5
 800629c:	d108      	bne.n	80062b0 <RVBS_CheckFaultState+0x20>
      {
        fault = MC_OVER_VOLT;
 800629e:	2002      	movs	r0, #2
      if (pHandle->_Super.AvBusVoltage_d > pHandle->OverVoltageThreshold)
 80062a0:	4291      	cmp	r1, r2
 80062a2:	d304      	bcc.n	80062ae <RVBS_CheckFaultState+0x1e>
      }
      else if (pHandle->_Super.AvBusVoltage_d < pHandle->UnderVoltageThreshold)
 80062a4:	8a5b      	ldrh	r3, [r3, #18]
 80062a6:	429a      	cmp	r2, r3
 80062a8:	4192      	sbcs	r2, r2
 80062aa:	4252      	negs	r2, r2
 80062ac:	0090      	lsls	r0, r2, #2
    }
#ifdef NULL_PTR_CHECK_RDIV_BUS_VLT_SNS
  }
#endif
  return (fault);
}
 80062ae:	bd30      	pop	{r4, r5, pc}
      if (pHandle->_Super.AvBusVoltage_d < pHandle->UnderVoltageThreshold)
 80062b0:	8a44      	ldrh	r4, [r0, #18]
        fault = MC_UNDER_VOLT;
 80062b2:	2004      	movs	r0, #4
      if (pHandle->_Super.AvBusVoltage_d < pHandle->UnderVoltageThreshold)
 80062b4:	4294      	cmp	r4, r2
 80062b6:	d8fa      	bhi.n	80062ae <RVBS_CheckFaultState+0x1e>
      else if ( false == pHandle->OverVoltageHysteresisUpDir )
 80062b8:	7c1c      	ldrb	r4, [r3, #16]
 80062ba:	2c00      	cmp	r4, #0
 80062bc:	d106      	bne.n	80062cc <RVBS_CheckFaultState+0x3c>
        fault = MC_OVER_VOLT;
 80062be:	3802      	subs	r0, #2
        if (pHandle->_Super.AvBusVoltage_d < pHandle->OverVoltageThresholdLow)
 80062c0:	4295      	cmp	r5, r2
 80062c2:	d9f4      	bls.n	80062ae <RVBS_CheckFaultState+0x1e>
          pHandle->OverVoltageHysteresisUpDir = true;
 80062c4:	2201      	movs	r2, #1
          fault = MC_NO_ERROR;
 80062c6:	0020      	movs	r0, r4
          pHandle->OverVoltageHysteresisUpDir = true;
 80062c8:	741a      	strb	r2, [r3, #16]
          fault = MC_NO_ERROR;
 80062ca:	e7f0      	b.n	80062ae <RVBS_CheckFaultState+0x1e>
        if (pHandle->_Super.AvBusVoltage_d > pHandle->OverVoltageThreshold)
 80062cc:	2000      	movs	r0, #0
 80062ce:	4291      	cmp	r1, r2
 80062d0:	d2ed      	bcs.n	80062ae <RVBS_CheckFaultState+0x1e>
          pHandle->OverVoltageHysteresisUpDir = false;
 80062d2:	7418      	strb	r0, [r3, #16]
          fault = MC_OVER_VOLT;
 80062d4:	3002      	adds	r0, #2
 80062d6:	e7ea      	b.n	80062ae <RVBS_CheckFaultState+0x1e>

080062d8 <RVBS_CalcAvVbus>:
{
 80062d8:	b5f8      	push	{r3, r4, r5, r6, r7, lr}
    if (0xFFFFU == hAux)
 80062da:	4b13      	ldr	r3, [pc, #76]	; (8006328 <RVBS_CalcAvVbus+0x50>)
{
 80062dc:	0004      	movs	r4, r0
 80062de:	000f      	movs	r7, r1
    if (0xFFFFU == hAux)
 80062e0:	4299      	cmp	r1, r3
 80062e2:	d014      	beq.n	800630e <RVBS_CalcAvVbus+0x36>
      pHandle->aBuffer[pHandle->index] = hAux;
 80062e4:	7e45      	ldrb	r5, [r0, #25]
 80062e6:	6943      	ldr	r3, [r0, #20]
 80062e8:	006a      	lsls	r2, r5, #1
 80062ea:	52d1      	strh	r1, [r2, r3]
      for (i = 0U; i < (uint8_t)pHandle->LowPassFilterBW; i++)
 80062ec:	8946      	ldrh	r6, [r0, #10]
      wtemp = 0u;
 80062ee:	2000      	movs	r0, #0
 80062f0:	b2f2      	uxtb	r2, r6
 80062f2:	0052      	lsls	r2, r2, #1
 80062f4:	189a      	adds	r2, r3, r2
      for (i = 0U; i < (uint8_t)pHandle->LowPassFilterBW; i++)
 80062f6:	4293      	cmp	r3, r2
 80062f8:	d10e      	bne.n	8006318 <RVBS_CalcAvVbus+0x40>
      wtemp /= pHandle->LowPassFilterBW;
 80062fa:	0031      	movs	r1, r6
 80062fc:	f7f9 ff18 	bl	8000130 <__udivsi3>
      if ((uint16_t)pHandle->index < (pHandle->LowPassFilterBW - 1U))
 8006300:	3e01      	subs	r6, #1
      pHandle->_Super.AvBusVoltage_d = (uint16_t)wtemp;
 8006302:	80e0      	strh	r0, [r4, #6]
      pHandle->_Super.LatestConv = hAux;
 8006304:	80a7      	strh	r7, [r4, #4]
      if ((uint16_t)pHandle->index < (pHandle->LowPassFilterBW - 1U))
 8006306:	42b5      	cmp	r5, r6
 8006308:	d20a      	bcs.n	8006320 <RVBS_CalcAvVbus+0x48>
        pHandle->index++;
 800630a:	3501      	adds	r5, #1
 800630c:	7665      	strb	r5, [r4, #25]
    pHandle->_Super.FaultState = RVBS_CheckFaultState(pHandle);
 800630e:	0020      	movs	r0, r4
 8006310:	f7ff ffbe 	bl	8006290 <RVBS_CheckFaultState>
 8006314:	8120      	strh	r0, [r4, #8]
}
 8006316:	bdf8      	pop	{r3, r4, r5, r6, r7, pc}
        wtemp += pHandle->aBuffer[i];
 8006318:	8819      	ldrh	r1, [r3, #0]
 800631a:	3302      	adds	r3, #2
 800631c:	1840      	adds	r0, r0, r1
      for (i = 0U; i < (uint8_t)pHandle->LowPassFilterBW; i++)
 800631e:	e7ea      	b.n	80062f6 <RVBS_CalcAvVbus+0x1e>
        pHandle->index = 0U;
 8006320:	2300      	movs	r3, #0
 8006322:	7663      	strb	r3, [r4, #25]
 8006324:	e7f3      	b.n	800630e <RVBS_CalcAvVbus+0x36>
 8006326:	46c0      	nop			; (mov r8, r8)
 8006328:	0000ffff 	.word	0x0000ffff

0800632c <REMNG_Init>:
    /* Nothing to do */
  }
  else
  {
#endif
    pHandle->Ext = 0;
 800632c:	2300      	movs	r3, #0
 800632e:	6083      	str	r3, [r0, #8]
    pHandle->TargetFinal = 0;
 8006330:	6043      	str	r3, [r0, #4]
    pHandle->RampRemainingStep = 0U;
 8006332:	60c3      	str	r3, [r0, #12]
    pHandle->IncDecAmount = 0;
 8006334:	6103      	str	r3, [r0, #16]
    pHandle->ScalingFactor = 1U;
 8006336:	3301      	adds	r3, #1
 8006338:	6143      	str	r3, [r0, #20]
#ifdef NULL_PTR_CHECK_RMP_EXT_MNG
  }
#endif
}
 800633a:	4770      	bx	lr

0800633c <SPD_GetElAngle>:
__weak int16_t SPD_GetElAngle(const SpeednPosFdbk_Handle_t *pHandle)
{
#ifdef NULL_PTR_CHECK_SPD_POS_FBK
  return ((MC_NULL == pHandle) ? 0 : pHandle->hElAngle);
#else
  return (pHandle->hElAngle);
 800633c:	2304      	movs	r3, #4
 800633e:	5ec0      	ldrsh	r0, [r0, r3]
#endif
}
 8006340:	4770      	bx	lr

08006342 <SPD_GetAvrgMecSpeedUnit>:
__weak int16_t SPD_GetAvrgMecSpeedUnit(const SpeednPosFdbk_Handle_t *pHandle)
{
#ifdef NULL_PTR_CHECK_SPD_POS_FBK
  return ((MC_NULL == pHandle) ? 0 : pHandle->hAvrMecSpeedUnit);
#else
  return (pHandle->hAvrMecSpeedUnit);
 8006342:	230c      	movs	r3, #12
 8006344:	5ec0      	ldrsh	r0, [r0, r3]
#endif
}
 8006346:	4770      	bx	lr

08006348 <SPD_GetInstElSpeedDpp>:
__weak int16_t SPD_GetInstElSpeedDpp(const SpeednPosFdbk_Handle_t *pHandle)
{
#ifdef NULL_PTR_CHECK_SPD_POS_FBK
  return ((MC_NULL == pHandle) ? 0 : pHandle->InstantaneousElSpeedDpp);
#else
  return (pHandle->InstantaneousElSpeedDpp);
 8006348:	2310      	movs	r3, #16
 800634a:	5ec0      	ldrsh	r0, [r0, r3]
#endif
}
 800634c:	4770      	bx	lr

0800634e <SPD_IsMecSpeedReliable>:
  * - Called at least with the same periodicity on which speed control is executed.
  *         -

  */
__weak bool SPD_IsMecSpeedReliable(SpeednPosFdbk_Handle_t *pHandle, const int16_t *pMecSpeedUnit)
{
 800634e:	b570      	push	{r4, r5, r6, lr}
    bool SpeedError = false;

    bSpeedErrorNumber = pHandle->bSpeedErrorNumber;

    /* Compute absoulte value of mechanical speed */
    if (*pMecSpeedUnit < 0)
 8006350:	2200      	movs	r2, #0
 8006352:	5e89      	ldrsh	r1, [r1, r2]
    uint8_t bMaximumSpeedErrorsNumber = pHandle->bMaximumSpeedErrorsNumber;
 8006354:	78c4      	ldrb	r4, [r0, #3]
    bSpeedErrorNumber = pHandle->bSpeedErrorNumber;
 8006356:	7803      	ldrb	r3, [r0, #0]
    {
      hAux = -(*pMecSpeedUnit);
 8006358:	b28a      	uxth	r2, r1
    if (*pMecSpeedUnit < 0)
 800635a:	2900      	cmp	r1, #0
 800635c:	da01      	bge.n	8006362 <SPD_IsMecSpeedReliable+0x14>
      hAux = -(*pMecSpeedUnit);
 800635e:	4252      	negs	r2, r2
 8006360:	b292      	uxth	r2, r2
    else
    {
      /* Nothing to do */
    }

    if (hAbsMecSpeedUnit < pHandle->hMinReliableMecSpeedUnit)
 8006362:	8ac6      	ldrh	r6, [r0, #22]
    {
      SpeedError = true;
 8006364:	2101      	movs	r1, #1
    if (hAbsMecSpeedUnit > pHandle->hMaxReliableMecSpeedUnit)
 8006366:	8a85      	ldrh	r5, [r0, #20]
    if (hAbsMecSpeedUnit < pHandle->hMinReliableMecSpeedUnit)
 8006368:	4296      	cmp	r6, r2
 800636a:	d802      	bhi.n	8006372 <SPD_IsMecSpeedReliable+0x24>
    if (hAbsMecSpeedUnit > pHandle->hMaxReliableMecSpeedUnit)
 800636c:	4295      	cmp	r5, r2
 800636e:	4192      	sbcs	r2, r2
 8006370:	4251      	negs	r1, r2
    {
      /* Nothing to do */
    }

    /* Compute absoulte value of mechanical acceleration */
    if (pHandle->hMecAccelUnitP < 0)
 8006372:	2212      	movs	r2, #18
 8006374:	5e85      	ldrsh	r5, [r0, r2]
    {
      hAux = -(pHandle->hMecAccelUnitP);
 8006376:	b2aa      	uxth	r2, r5
    if (pHandle->hMecAccelUnitP < 0)
 8006378:	2d00      	cmp	r5, #0
 800637a:	da01      	bge.n	8006380 <SPD_IsMecSpeedReliable+0x32>
      hAux = -(pHandle->hMecAccelUnitP);
 800637c:	4252      	negs	r2, r2
 800637e:	b292      	uxth	r2, r2
    else
    {
      hAbsMecAccelUnitP = (uint16_t)pHandle->hMecAccelUnitP;
    }

    if (hAbsMecAccelUnitP > pHandle->hMaxReliableMecAccelUnitP)
 8006380:	8b05      	ldrh	r5, [r0, #24]
 8006382:	4295      	cmp	r5, r2
 8006384:	d301      	bcc.n	800638a <SPD_IsMecSpeedReliable+0x3c>
    else
    {
      /* Nothing to do */
    }

    if (true == SpeedError)
 8006386:	2900      	cmp	r1, #0
 8006388:	d009      	beq.n	800639e <SPD_IsMecSpeedReliable+0x50>
    {
      if (bSpeedErrorNumber < bMaximumSpeedErrorsNumber)
 800638a:	429c      	cmp	r4, r3
 800638c:	d901      	bls.n	8006392 <SPD_IsMecSpeedReliable+0x44>
      {
        bSpeedErrorNumber++;
 800638e:	3301      	adds	r3, #1
 8006390:	b2db      	uxtb	r3, r3
    else
    {
      /* Nothing to do */
    }

    pHandle->bSpeedErrorNumber = bSpeedErrorNumber;
 8006392:	7003      	strb	r3, [r0, #0]
    if (bSpeedErrorNumber == bMaximumSpeedErrorsNumber)
 8006394:	1b18      	subs	r0, r3, r4
 8006396:	1e42      	subs	r2, r0, #1
 8006398:	4190      	sbcs	r0, r2
#ifdef NULL_PTR_CHECK_SPD_POS_FBK
  }
#endif
  return (SpeedSensorReliability);
 800639a:	b2c0      	uxtb	r0, r0
}
 800639c:	bd70      	pop	{r4, r5, r6, pc}
      if (bSpeedErrorNumber < bMaximumSpeedErrorsNumber)
 800639e:	429c      	cmp	r4, r3
 80063a0:	d9f7      	bls.n	8006392 <SPD_IsMecSpeedReliable+0x44>
        bSpeedErrorNumber = 0u;
 80063a2:	000b      	movs	r3, r1
 80063a4:	e7f5      	b.n	8006392 <SPD_IsMecSpeedReliable+0x44>

080063a6 <SPD_GetS16Speed>:
  * -- INT16_MAX when the average mechanical speed is equal to
  * @ref SpeednPosFdbk_Handle_t::hMaxReliableMecSpeedUnit "hMaxReliableMecSpeedUnit" ,\n
  * - Called for speed monitoring through MotorPilote.
  */
__weak int16_t SPD_GetS16Speed(const SpeednPosFdbk_Handle_t *pHandle)
{
 80063a6:	0003      	movs	r3, r0
 80063a8:	b510      	push	{r4, lr}
    tempValue = 0;
  }
  else
  {
#endif
    int32_t wAux = (int32_t)pHandle->hAvrMecSpeedUnit;
 80063aa:	210c      	movs	r1, #12
 80063ac:	5e42      	ldrsh	r2, [r0, r1]
    wAux *= INT16_MAX;
    wAux /= (int16_t)pHandle->hMaxReliableMecSpeedUnit;
 80063ae:	2114      	movs	r1, #20
 80063b0:	5e59      	ldrsh	r1, [r3, r1]
    wAux *= INT16_MAX;
 80063b2:	03d0      	lsls	r0, r2, #15
 80063b4:	1a80      	subs	r0, r0, r2
    wAux /= (int16_t)pHandle->hMaxReliableMecSpeedUnit;
 80063b6:	f7f9 ff45 	bl	8000244 <__divsi3>
    tempValue = (int16_t)wAux;
#ifdef NULL_PTR_CHECK_SPD_POS_FBK
  }
#endif
  return (tempValue);
 80063ba:	b200      	sxth	r0, r0
}
 80063bc:	bd10      	pop	{r4, pc}

080063be <STC_Init>:
  else
  {
#endif
    pHandle->PISpeed = pPI;
    pHandle->SPD = SPD_Handle;
    pHandle->Mode = pHandle->ModeDefault;
 80063be:	0003      	movs	r3, r0
    pHandle->SPD = SPD_Handle;
 80063c0:	6142      	str	r2, [r0, #20]
    pHandle->PISpeed = pPI;
 80063c2:	6101      	str	r1, [r0, #16]
    pHandle->Mode = pHandle->ModeDefault;
 80063c4:	332a      	adds	r3, #42	; 0x2a
 80063c6:	781b      	ldrb	r3, [r3, #0]
 80063c8:	7003      	strb	r3, [r0, #0]
    pHandle->SpeedRefUnitExt = ((int32_t)pHandle->MecSpeedRefUnitDefault) * 65536;
 80063ca:	222c      	movs	r2, #44	; 0x2c
 80063cc:	5e83      	ldrsh	r3, [r0, r2]
 80063ce:	041b      	lsls	r3, r3, #16
 80063d0:	6043      	str	r3, [r0, #4]
    pHandle->TorqueRef = ((int32_t)pHandle->TorqueRefDefault) * 65536;
 80063d2:	222e      	movs	r2, #46	; 0x2e
 80063d4:	5e83      	ldrsh	r3, [r0, r2]
 80063d6:	041b      	lsls	r3, r3, #16
 80063d8:	6083      	str	r3, [r0, #8]
    pHandle->TargetFinal = 0;
 80063da:	2300      	movs	r3, #0
 80063dc:	8043      	strh	r3, [r0, #2]
    pHandle->RampRemainingStep = 0U;
 80063de:	60c3      	str	r3, [r0, #12]
    pHandle->IncDecAmount = 0;
 80063e0:	6183      	str	r3, [r0, #24]
#ifdef NULL_PTR_CHECK_SPD_TRQ_CTL
  }
#endif
}
 80063e2:	4770      	bx	lr

080063e4 <STC_GetSpeedSensor>:
__weak SpeednPosFdbk_Handle_t *STC_GetSpeedSensor(SpeednTorqCtrl_Handle_t *pHandle)
{
#ifdef NULL_PTR_CHECK_SPD_TRQ_CTL
  return ((MC_NULL ==  pHandle) ? MC_NULL : pHandle->SPD);
#else
  return (pHandle->SPD);
 80063e4:	6940      	ldr	r0, [r0, #20]
#endif
}
 80063e6:	4770      	bx	lr

080063e8 <STC_Clear>:
    /* Nothing to do */
  }
  else
  {
#endif
    if (MCM_SPEED_MODE == pHandle->Mode)
 80063e8:	7803      	ldrb	r3, [r0, #0]
{
 80063ea:	b510      	push	{r4, lr}
    if (MCM_SPEED_MODE == pHandle->Mode)
 80063ec:	2b03      	cmp	r3, #3
 80063ee:	d103      	bne.n	80063f8 <STC_Clear+0x10>
    {
      PID_SetIntegralTerm(pHandle->PISpeed, 0);
 80063f0:	2100      	movs	r1, #0
 80063f2:	6900      	ldr	r0, [r0, #16]
 80063f4:	f7ff fea5 	bl	8006142 <PID_SetIntegralTerm>
      /* Nothing to do */
    }
#ifdef NULL_PTR_CHECK_SPD_TRQ_CTL
  }
#endif
}
 80063f8:	bd10      	pop	{r4, pc}

080063fa <STC_GetMecSpeedRefUnit>:
#ifndef FULL_MISRA_C_COMPLIANCY_SPD_TORQ_CTRL
#ifdef NULL_PTR_CHECK_SPD_TRQ_CTL
  //cstat !MISRAC2012-Rule-1.3_n !ATH-shift-neg !MISRAC2012-Rule-10.1_R6
  return ((MC_NULL == pHandle) ? 0 : (int16_t)(pHandle->SpeedRefUnitExt >> 16));
#else
  return ((int16_t)(pHandle->SpeedRefUnitExt >> 16));
 80063fa:	6840      	ldr	r0, [r0, #4]
 80063fc:	1400      	asrs	r0, r0, #16
  return ((MC_NULL == pHandle) ? 0 : (int16_t)(pHandle->SpeedRefUnitExt / 65536));
#else
  return ((int16_t)(pHandle->SpeedRefUnitExt / 65536));
#endif
#endif
}
 80063fe:	4770      	bx	lr

08006400 <STC_GetTorqueRef>:
#ifndef FULL_MISRA_C_COMPLIANCY_SPD_TORQ_CTRL
#ifdef NULL_PTR_CHECK_SPD_TRQ_CTL
  //cstat !MISRAC2012-Rule-1.3_n !ATH-shift-neg !MISRAC2012-Rule-10.1_R6
  return ((MC_NULL == pHandle) ? 0 : (int16_t)(pHandle->TorqueRef >> 16));
#else
  return ((int16_t)(pHandle->TorqueRef >> 16));
 8006400:	6880      	ldr	r0, [r0, #8]
 8006402:	1400      	asrs	r0, r0, #16
  return ((MC_NULL == pHandle) ? 0 : (int16_t)(pHandle->TorqueRef / 65536));
#else
  return ((int16_t)(pHandle->TorqueRef / 65536));
#endif
#endif
}
 8006404:	4770      	bx	lr

08006406 <STC_SetControlMode>:
  }
  else
  {
#endif
    pHandle->Mode = bMode;
    pHandle->RampRemainingStep = 0u; /* Interrupts previous ramp */
 8006406:	2300      	movs	r3, #0
    pHandle->Mode = bMode;
 8006408:	7001      	strb	r1, [r0, #0]
    pHandle->RampRemainingStep = 0u; /* Interrupts previous ramp */
 800640a:	60c3      	str	r3, [r0, #12]
#ifdef NULL_PTR_CHECK_SPD_TRQ_CTL
  }
#endif
}
 800640c:	4770      	bx	lr

0800640e <STC_ExecRamp>:
  * @ref EncAlignCtrl "Encoder Alignment Control",
  * @ref PositionControl "Position Control" loop or
  * speed regulation with @ref SpeedRegulatorPotentiometer Speed potentiometer.
  */
__weak bool STC_ExecRamp(SpeednTorqCtrl_Handle_t *pHandle, int16_t hTargetFinal, uint32_t hDurationms)
{
 800640e:	b5f8      	push	{r3, r4, r5, r6, r7, lr}
    uint32_t wAux;
    int32_t wAux1;
    int16_t hCurrentReference;

    /* Check if the hTargetFinal is out of the bound of application */
    if (MCM_TORQUE_MODE == pHandle->Mode)
 8006410:	7803      	ldrb	r3, [r0, #0]
{
 8006412:	0004      	movs	r4, r0
 8006414:	000d      	movs	r5, r1
 8006416:	0017      	movs	r7, r2
    if (MCM_TORQUE_MODE == pHandle->Mode)
 8006418:	2b04      	cmp	r3, #4
 800641a:	d109      	bne.n	8006430 <STC_ExecRamp+0x22>
    {
      hCurrentReference = STC_GetTorqueRef(pHandle);
 800641c:	f7ff fff0 	bl	8006400 <STC_GetTorqueRef>
      }
      else
      {
        /* Nothing to do */
      }
      if ((int32_t)hTargetFinal < (int32_t)pHandle->MinNegativeTorque)
 8006420:	2128      	movs	r1, #40	; 0x28
 8006422:	5e62      	ldrsh	r2, [r4, r1]
      hCurrentReference = STC_GetTorqueRef(pHandle);
 8006424:	0006      	movs	r6, r0
      if ((int32_t)hTargetFinal > (int32_t)pHandle->MaxPositiveTorque)
 8006426:	8ce3      	ldrh	r3, [r4, #38]	; 0x26
      if ((int32_t)hTargetFinal < (int32_t)pHandle->MinNegativeTorque)
 8006428:	42aa      	cmp	r2, r5
 800642a:	dd0f      	ble.n	800644c <STC_ExecRamp+0x3e>
      {
        allowedRange = false;
 800642c:	2000      	movs	r0, #0
    }
#ifdef NULL_PTR_CHECK_SPD_TRQ_CTL
  }
#endif
  return (allowedRange);
}
 800642e:	bdf8      	pop	{r3, r4, r5, r6, r7, pc}
      hCurrentReference = (int16_t)(pHandle->SpeedRefUnitExt >> 16);
 8006430:	6846      	ldr	r6, [r0, #4]
      if ((int32_t)hTargetFinal > (int32_t)pHandle->MaxAppPositiveMecSpeedUnit)
 8006432:	8bc3      	ldrh	r3, [r0, #30]
      hCurrentReference = (int16_t)(pHandle->SpeedRefUnitExt >> 16);
 8006434:	1436      	asrs	r6, r6, #16
      if ((int32_t)hTargetFinal > (int32_t)pHandle->MaxAppPositiveMecSpeedUnit)
 8006436:	428b      	cmp	r3, r1
 8006438:	dbf8      	blt.n	800642c <STC_ExecRamp+0x1e>
      else if (hTargetFinal < pHandle->MinAppNegativeMecSpeedUnit)
 800643a:	2224      	movs	r2, #36	; 0x24
 800643c:	5e83      	ldrsh	r3, [r0, r2]
 800643e:	428b      	cmp	r3, r1
 8006440:	dcf4      	bgt.n	800642c <STC_ExecRamp+0x1e>
      else if ((int32_t)hTargetFinal < (int32_t)pHandle->MinAppPositiveMecSpeedUnit)
 8006442:	8c03      	ldrh	r3, [r0, #32]
 8006444:	428b      	cmp	r3, r1
 8006446:	dd03      	ble.n	8006450 <STC_ExecRamp+0x42>
        if (hTargetFinal > pHandle->MaxAppNegativeMecSpeedUnit)
 8006448:	2222      	movs	r2, #34	; 0x22
 800644a:	5e83      	ldrsh	r3, [r0, r2]
    if (true == allowedRange)
 800644c:	42ab      	cmp	r3, r5
 800644e:	dbed      	blt.n	800642c <STC_ExecRamp+0x1e>
      if (0U == hDurationms)
 8006450:	2f00      	cmp	r7, #0
 8006452:	d10b      	bne.n	800646c <STC_ExecRamp+0x5e>
        if (MCM_SPEED_MODE == pHandle->Mode)
 8006454:	7823      	ldrb	r3, [r4, #0]
          pHandle->SpeedRefUnitExt = ((int32_t)hTargetFinal) * 65536;
 8006456:	042d      	lsls	r5, r5, #16
        if (MCM_SPEED_MODE == pHandle->Mode)
 8006458:	2b03      	cmp	r3, #3
 800645a:	d105      	bne.n	8006468 <STC_ExecRamp+0x5a>
          pHandle->SpeedRefUnitExt = ((int32_t)hTargetFinal) * 65536;
 800645c:	6065      	str	r5, [r4, #4]
        pHandle->RampRemainingStep = 0U;
 800645e:	2300      	movs	r3, #0
 8006460:	60e3      	str	r3, [r4, #12]
        pHandle->IncDecAmount = 0;
 8006462:	61a3      	str	r3, [r4, #24]
        pHandle->IncDecAmount = wAux1;
 8006464:	2001      	movs	r0, #1
 8006466:	e7e2      	b.n	800642e <STC_ExecRamp+0x20>
          pHandle->TorqueRef = ((int32_t)hTargetFinal) * 65536;
 8006468:	60a5      	str	r5, [r4, #8]
 800646a:	e7f8      	b.n	800645e <STC_ExecRamp+0x50>
        wAux /= 1000U;
 800646c:	21fa      	movs	r1, #250	; 0xfa
        wAux = ((uint32_t)hDurationms) * ((uint32_t)pHandle->STCFrequencyHz);
 800646e:	8ba0      	ldrh	r0, [r4, #28]
        pHandle->TargetFinal = hTargetFinal;
 8006470:	8065      	strh	r5, [r4, #2]
        wAux /= 1000U;
 8006472:	0089      	lsls	r1, r1, #2
        wAux = ((uint32_t)hDurationms) * ((uint32_t)pHandle->STCFrequencyHz);
 8006474:	4378      	muls	r0, r7
        wAux /= 1000U;
 8006476:	f7f9 fe5b 	bl	8000130 <__udivsi3>
        wAux1 = (((int32_t)hTargetFinal) - ((int32_t)hCurrentReference)) * 65536;
 800647a:	1bad      	subs	r5, r5, r6
        pHandle->RampRemainingStep++;
 800647c:	1c41      	adds	r1, r0, #1
 800647e:	60e1      	str	r1, [r4, #12]
        wAux1 = (((int32_t)hTargetFinal) - ((int32_t)hCurrentReference)) * 65536;
 8006480:	0428      	lsls	r0, r5, #16
        wAux1 /= ((int32_t)pHandle->RampRemainingStep);
 8006482:	f7f9 fedf 	bl	8000244 <__divsi3>
        pHandle->IncDecAmount = wAux1;
 8006486:	61a0      	str	r0, [r4, #24]
 8006488:	e7ec      	b.n	8006464 <STC_ExecRamp+0x56>

0800648a <STC_StopRamp>:
    /* Nothing to do */
  }
  else
  {
#endif
    pHandle->RampRemainingStep = 0U;
 800648a:	2300      	movs	r3, #0
 800648c:	60c3      	str	r3, [r0, #12]
    pHandle->IncDecAmount = 0;
 800648e:	6183      	str	r3, [r0, #24]
#ifdef NULL_PTR_CHECK_SPD_TRQ_CTL
  }
#endif
}
 8006490:	4770      	bx	lr

08006492 <STC_CalcTorqueReference>:
    int32_t wCurrentReference;
    int16_t hMeasuredSpeed;
    int16_t hTargetSpeed;
    int16_t hError;

    if (MCM_TORQUE_MODE == pHandle->Mode)
 8006492:	7802      	ldrb	r2, [r0, #0]
{
 8006494:	b570      	push	{r4, r5, r6, lr}
 8006496:	0004      	movs	r4, r0
    if (MCM_TORQUE_MODE == pHandle->Mode)
 8006498:	2a04      	cmp	r2, #4
 800649a:	d116      	bne.n	80064ca <STC_CalcTorqueReference+0x38>
    {
      wCurrentReference = pHandle->TorqueRef;
 800649c:	6885      	ldr	r5, [r0, #8]
      wCurrentReference = pHandle->SpeedRefUnitExt;
    }

    /* Update the speed reference or the torque reference according to the mode
       and terminates the ramp if needed */
    if (pHandle->RampRemainingStep > 1U)
 800649e:	68e3      	ldr	r3, [r4, #12]
 80064a0:	2b01      	cmp	r3, #1
 80064a2:	d914      	bls.n	80064ce <STC_CalcTorqueReference+0x3c>
    {
      /* Increment/decrement the reference value */
      wCurrentReference += pHandle->IncDecAmount;
 80064a4:	69a1      	ldr	r1, [r4, #24]

      /* Decrement the number of remaining steps */
      pHandle->RampRemainingStep--;
 80064a6:	3b01      	subs	r3, #1
      wCurrentReference += pHandle->IncDecAmount;
 80064a8:	186d      	adds	r5, r5, r1
    }
    else if (1U == pHandle->RampRemainingStep)
    {
      /* Set the backup value of hTargetFinal */
      wCurrentReference = ((int32_t)pHandle->TargetFinal) * 65536;
      pHandle->RampRemainingStep = 0U;
 80064aa:	60e3      	str	r3, [r4, #12]
      /* Run the speed control loop */

      /* Compute speed error */
#ifndef FULL_MISRA_C_COMPLIANCY_SPD_TORQ_CTRL
      //cstat !MISRAC2012-Rule-1.3_n !ATH-shift-neg !MISRAC2012-Rule-10.1_R6
      hTargetSpeed = (int16_t)(wCurrentReference >> 16);
 80064ac:	142e      	asrs	r6, r5, #16
    if (MCM_SPEED_MODE == pHandle->Mode)
 80064ae:	2a03      	cmp	r2, #3
 80064b0:	d114      	bne.n	80064dc <STC_CalcTorqueReference+0x4a>
#else
      hTargetSpeed = (int16_t)(wCurrentReference / 65536);
#endif
      hMeasuredSpeed = SPD_GetAvrgMecSpeedUnit(pHandle->SPD);
 80064b2:	6960      	ldr	r0, [r4, #20]
 80064b4:	f7ff ff45 	bl	8006342 <SPD_GetAvrgMecSpeedUnit>
      hError = hTargetSpeed - hMeasuredSpeed;
 80064b8:	1a31      	subs	r1, r6, r0
      hTorqueReference = PI_Controller(pHandle->PISpeed, (int32_t)hError);
 80064ba:	b209      	sxth	r1, r1
 80064bc:	6920      	ldr	r0, [r4, #16]
 80064be:	f7ff fe47 	bl	8006150 <PI_Controller>

      pHandle->SpeedRefUnitExt = wCurrentReference;
 80064c2:	6065      	str	r5, [r4, #4]
      pHandle->TorqueRef = ((int32_t)hTorqueReference) * 65536;
 80064c4:	0405      	lsls	r5, r0, #16
 80064c6:	60a5      	str	r5, [r4, #8]
    }
#ifdef NULL_PTR_CHECK_SPD_TRQ_CTL
  }
#endif
  return (hTorqueReference);
}
 80064c8:	bd70      	pop	{r4, r5, r6, pc}
      wCurrentReference = pHandle->SpeedRefUnitExt;
 80064ca:	6845      	ldr	r5, [r0, #4]
 80064cc:	e7e7      	b.n	800649e <STC_CalcTorqueReference+0xc>
    else if (1U == pHandle->RampRemainingStep)
 80064ce:	2b01      	cmp	r3, #1
 80064d0:	d1ec      	bne.n	80064ac <STC_CalcTorqueReference+0x1a>
      wCurrentReference = ((int32_t)pHandle->TargetFinal) * 65536;
 80064d2:	2302      	movs	r3, #2
 80064d4:	5ee5      	ldrsh	r5, [r4, r3]
      pHandle->RampRemainingStep = 0U;
 80064d6:	2300      	movs	r3, #0
      wCurrentReference = ((int32_t)pHandle->TargetFinal) * 65536;
 80064d8:	042d      	lsls	r5, r5, #16
      pHandle->RampRemainingStep = 0U;
 80064da:	e7e6      	b.n	80064aa <STC_CalcTorqueReference+0x18>
      hTorqueReference = (int16_t)(wCurrentReference >> 16);
 80064dc:	b230      	sxth	r0, r6
 80064de:	e7f2      	b.n	80064c6 <STC_CalcTorqueReference+0x34>

080064e0 <STC_GetMecSpeedRefUnitDefault>:
__weak int16_t STC_GetMecSpeedRefUnitDefault(SpeednTorqCtrl_Handle_t *pHandle)
{
#ifdef NULL_PTR_CHECK_SPD_TRQ_CTL
  return ((MC_NULL == pHandle) ? 0 : pHandle->MecSpeedRefUnitDefault);
#else
  return (pHandle->MecSpeedRefUnitDefault);
 80064e0:	232c      	movs	r3, #44	; 0x2c
 80064e2:	5ec0      	ldrsh	r0, [r0, r3]
#endif
}
 80064e4:	4770      	bx	lr

080064e6 <STC_GetDefaultIqdref>:
    IqdRefDefault.q = pHandle->TorqueRefDefault;
    IqdRefDefault.d = pHandle->IdrefDefault;
#ifdef NULL_PTR_CHECK_SPD_TRQ_CTL
  }
#endif
  return (IqdRefDefault);
 80064e6:	8e02      	ldrh	r2, [r0, #48]	; 0x30
 80064e8:	8dc3      	ldrh	r3, [r0, #46]	; 0x2e
 80064ea:	0412      	lsls	r2, r2, #16
 80064ec:	b298      	uxth	r0, r3
{
 80064ee:	b082      	sub	sp, #8
  return (IqdRefDefault);
 80064f0:	4310      	orrs	r0, r2
}
 80064f2:	b002      	add	sp, #8
 80064f4:	4770      	bx	lr

080064f6 <STC_ForceSpeedReferenceToCurrentSpeed>:
  *
  * - Called during the CHARGE_BOOT_CAP, SWITCH_OVER and WAIT_STOP_MOTOR states of the MC state machine
  * into MediumFrequencyTask to initialize the speed reference.
  */
__weak void STC_ForceSpeedReferenceToCurrentSpeed(SpeednTorqCtrl_Handle_t *pHandle)
{
 80064f6:	b510      	push	{r4, lr}
 80064f8:	0004      	movs	r4, r0
    /* Nothing to do */
  }
  else
  {
#endif
    pHandle->SpeedRefUnitExt = ((int32_t)SPD_GetAvrgMecSpeedUnit(pHandle->SPD)) * (int32_t)65536;
 80064fa:	6940      	ldr	r0, [r0, #20]
 80064fc:	f7ff ff21 	bl	8006342 <SPD_GetAvrgMecSpeedUnit>
 8006500:	0400      	lsls	r0, r0, #16
 8006502:	6060      	str	r0, [r4, #4]
#ifdef NULL_PTR_CHECK_SPD_TRQ_CTL
  }
#endif
}
 8006504:	bd10      	pop	{r4, pc}

08006506 <memset>:
 8006506:	0003      	movs	r3, r0
 8006508:	1882      	adds	r2, r0, r2
 800650a:	4293      	cmp	r3, r2
 800650c:	d100      	bne.n	8006510 <memset+0xa>
 800650e:	4770      	bx	lr
 8006510:	7019      	strb	r1, [r3, #0]
 8006512:	3301      	adds	r3, #1
 8006514:	e7f9      	b.n	800650a <memset+0x4>
	...

08006518 <__libc_init_array>:
 8006518:	b570      	push	{r4, r5, r6, lr}
 800651a:	2600      	movs	r6, #0
 800651c:	4c0c      	ldr	r4, [pc, #48]	; (8006550 <__libc_init_array+0x38>)
 800651e:	4d0d      	ldr	r5, [pc, #52]	; (8006554 <__libc_init_array+0x3c>)
 8006520:	1b64      	subs	r4, r4, r5
 8006522:	10a4      	asrs	r4, r4, #2
 8006524:	42a6      	cmp	r6, r4
 8006526:	d109      	bne.n	800653c <__libc_init_array+0x24>
 8006528:	2600      	movs	r6, #0
 800652a:	f000 f823 	bl	8006574 <_init>
 800652e:	4c0a      	ldr	r4, [pc, #40]	; (8006558 <__libc_init_array+0x40>)
 8006530:	4d0a      	ldr	r5, [pc, #40]	; (800655c <__libc_init_array+0x44>)
 8006532:	1b64      	subs	r4, r4, r5
 8006534:	10a4      	asrs	r4, r4, #2
 8006536:	42a6      	cmp	r6, r4
 8006538:	d105      	bne.n	8006546 <__libc_init_array+0x2e>
 800653a:	bd70      	pop	{r4, r5, r6, pc}
 800653c:	00b3      	lsls	r3, r6, #2
 800653e:	58eb      	ldr	r3, [r5, r3]
 8006540:	4798      	blx	r3
 8006542:	3601      	adds	r6, #1
 8006544:	e7ee      	b.n	8006524 <__libc_init_array+0xc>
 8006546:	00b3      	lsls	r3, r6, #2
 8006548:	58eb      	ldr	r3, [r5, r3]
 800654a:	4798      	blx	r3
 800654c:	3601      	adds	r6, #1
 800654e:	e7f2      	b.n	8006536 <__libc_init_array+0x1e>
 8006550:	0800715c 	.word	0x0800715c
 8006554:	0800715c 	.word	0x0800715c
 8006558:	08007160 	.word	0x08007160
 800655c:	0800715c 	.word	0x0800715c

08006560 <memcpy>:
 8006560:	2300      	movs	r3, #0
 8006562:	b510      	push	{r4, lr}
 8006564:	429a      	cmp	r2, r3
 8006566:	d100      	bne.n	800656a <memcpy+0xa>
 8006568:	bd10      	pop	{r4, pc}
 800656a:	5ccc      	ldrb	r4, [r1, r3]
 800656c:	54c4      	strb	r4, [r0, r3]
 800656e:	3301      	adds	r3, #1
 8006570:	e7f8      	b.n	8006564 <memcpy+0x4>
	...

08006574 <_init>:
 8006574:	b5f8      	push	{r3, r4, r5, r6, r7, lr}
 8006576:	46c0      	nop			; (mov r8, r8)
 8006578:	bcf8      	pop	{r3, r4, r5, r6, r7}
 800657a:	bc08      	pop	{r3}
 800657c:	469e      	mov	lr, r3
 800657e:	4770      	bx	lr

08006580 <_fini>:
 8006580:	b5f8      	push	{r3, r4, r5, r6, r7, lr}
 8006582:	46c0      	nop			; (mov r8, r8)
 8006584:	bcf8      	pop	{r3, r4, r5, r6, r7}
 8006586:	bc08      	pop	{r3}
 8006588:	469e      	mov	lr, r3
 800658a:	4770      	bx	lr
